(dp1
S'output'
p2
S"<type 'exceptions.NameError'> global name 'count' is not defined"
p3
sS'layer'
p4
S'/Applications/web2py.app/Contents/Resources/applications/MR/controllers/default.py'
p5
sS'code'
p6
S'# -*- coding: utf-8 -*-\n# this file is released under public domain and you can use without limitations\n\n#########################################################################\n## This is a samples controller\n## - index is the default action of any application\n## - user is required for authentication and authorization\n## - download is for downloading files uploaded in the db (does streaming)\n## - call exposes all registered services (none by default)\n#########################################################################\n\n\ndef index():\n    return dict(message=T(\'Hello World\'))\n\n\ndef user():\n    """\n    exposes:\n    http://..../[app]/default/user/login\n    http://..../[app]/default/user/logout\n    http://..../[app]/default/user/register\n    http://..../[app]/default/user/profile\n    http://..../[app]/default/user/retrieve_password\n    http://..../[app]/default/user/change_password\n    use @auth.requires_login()\n        @auth.requires_membership(\'group name\')\n        @auth.requires_permission(\'read\',\'table name\',record_id)\n    to decorate functions that need access control\n    """\n    return dict(form=auth())\n\ndef download():\n    """\n    allows downloading of uploaded files\n    http://..../[app]/default/download/[filename]\n    """\n    return response.download(request, db)\n\n\ndef call():\n    """\n    exposes services. for example:\n    http://..../[app]/default/call/jsonrpc\n    decorate with @services.jsonrpc the functions to expose\n    supports xml, json, xmlrpc, jsonrpc, amfrpc, rss, csv\n    """\n    return service()\n\n#@service.jsonrpc\ndef mobile_user_register():\n    email = request.vars.email\n    password = request.vars.password\n    firstname = request.vars.firstname\n    lastname = request.vars.lastname\n    country = request.vars.country\n    rows = db(db.mobile_user.email==email).select()\n    if count(rows) != 0:\n        return {\'status\': \'exist\'}\n    \n    result = md5_hash(password)\n    ret = db.mobile_user.validate_and_insert(email=email, password=password, first_name=firstname, last_name=lastname, md5=result, country=country)\n    if ret.errors:\n        return {\'status\':\'ERROR\'}        \n        \n    return {\'status\': \'success\', \'result\': result}\n    \n#@service.jsonrpc\ndef mobile_user_login(email, password):\n    rows = db(db.mobile_user.email==email).select()\n    if count(rows) != 1:\n        return {\'status\': \'ERROR\'}\n    user = rows[0]\n    return {\'status\':\'success\', \'result\': user.md5}\n\n@auth.requires_signature()\ndef data():\n    """\n    http://..../[app]/default/data/tables\n    http://..../[app]/default/data/create/[table]\n    http://..../[app]/default/data/read/[table]/[id]\n    http://..../[app]/default/data/update/[table]/[id]\n    http://..../[app]/default/data/delete/[table]/[id]\n    http://..../[app]/default/data/select/[table]\n    http://..../[app]/default/data/search/[table]\n    but URLs must be signed, i.e. linked with\n      A(\'table\',_href=URL(\'data/tables\',user_signature=True))\n    or with the signed load operator\n      LOAD(\'default\',\'data.load\',args=\'tables\',ajax=True,user_signature=True)\n    """\n    return dict(form=crud())\n\nresponse._vars=response._caller(mobile_user_register)\n'
p7
sS'snapshot'
p8
(dp9
S'exception'
p10
(dp11
S'__hash__'
p12
S"<method-wrapper '__hash__' of exceptions.NameError object at 0x8fb63c8>"
p13
sS'__setattr__'
p14
S"<method-wrapper '__setattr__' of exceptions.NameError object at 0x8fb63c8>"
p15
sS'__reduce_ex__'
p16
S'<built-in method __reduce_ex__ of exceptions.NameError object at 0x8fb63c8>'
p17
sS'__getslice__'
p18
S"<method-wrapper '__getslice__' of exceptions.NameError object at 0x8fb63c8>"
p19
sS'__getitem__'
p20
S"<method-wrapper '__getitem__' of exceptions.NameError object at 0x8fb63c8>"
p21
sS'__setstate__'
p22
S'<built-in method __setstate__ of exceptions.NameError object at 0x8fb63c8>'
p23
sS'__reduce__'
p24
S'<built-in method __reduce__ of exceptions.NameError object at 0x8fb63c8>'
p25
sS'__str__'
p26
S"<method-wrapper '__str__' of exceptions.NameError object at 0x8fb63c8>"
p27
sS'args'
p28
S'("global name \'count\' is not defined",)'
p29
sS'__getattribute__'
p30
S"<method-wrapper '__getattribute__' of exceptions.NameError object at 0x8fb63c8>"
p31
sS'__class__'
p32
S"<type 'exceptions.NameError'>"
p33
sS'__delattr__'
p34
S"<method-wrapper '__delattr__' of exceptions.NameError object at 0x8fb63c8>"
p35
sS'__repr__'
p36
S"<method-wrapper '__repr__' of exceptions.NameError object at 0x8fb63c8>"
p37
sS'__dict__'
p38
S'{}'
p39
sS'__doc__'
p40
S"'Name not found globally.'"
p41
sS'__init__'
p42
S"<method-wrapper '__init__' of exceptions.NameError object at 0x8fb63c8>"
p43
sS'__new__'
p44
S'<built-in method __new__ of type object at 0x5f9640>'
p45
ssS'evalue'
p46
S"global name 'count' is not defined"
p47
sS'request'
p48
ccopy_reg
_reconstructor
p49
(cgluon.html
BEAUTIFY
p50
c__builtin__
object
p51
NtRp52
(dp53
S'attributes'
p54
(dp55
sS'components'
p56
(lp57
g49
(cgluon.html
TABLE
p58
g51
NtRp59
(dp60
g54
(dp61
S'level'
p62
I5
ssS'parent'
p63
Nsg56
(lp64
g49
(cgluon.html
TR
p65
g51
NtRp66
(dp67
g54
(dp68
sg63
g59
sg56
(lp69
g49
(cgluon.html
TD
p70
g51
NtRp71
(dp72
g54
(dp73
S'_style'
p74
S'font-weight:bold;vertical-align:top'
p75
ssg63
g66
sg56
(lp76
S'ajax'
p77
asbag49
(g70
g51
NtRp78
(dp79
g54
(dp80
S'_valign'
p81
S'top'
p82
ssg63
g66
sg56
(lp83
S':'
asbag49
(g70
g51
NtRp84
(dp85
g54
(dp86
sg63
g66
sg56
(lp87
g49
(g50
g51
NtRp88
(dp89
g54
(dp90
g62
I5
ssg63
g84
sg56
(lp91
S'False'
p92
asbasbasbag49
(g65
g51
NtRp93
(dp94
g54
(dp95
sg63
g59
sg56
(lp96
g49
(g70
g51
NtRp97
(dp98
g54
(dp99
g74
g75
ssg63
g93
sg56
(lp100
S'application'
p101
asbag49
(g70
g51
NtRp102
(dp103
g54
(dp104
g81
g82
ssg63
g93
sg56
(lp105
S':'
asbag49
(g70
g51
NtRp106
(dp107
g54
(dp108
sg63
g93
sg56
(lp109
g49
(g50
g51
NtRp110
(dp111
g54
(dp112
g62
I5
ssg63
g106
sg56
(lp113
S'MR'
p114
asbasbasbag49
(g65
g51
NtRp115
(dp116
g54
(dp117
sg63
g59
sg56
(lp118
g49
(g70
g51
NtRp119
(dp120
g54
(dp121
g74
g75
ssg63
g115
sg56
(lp122
g28
asbag49
(g70
g51
NtRp123
(dp124
g54
(dp125
g81
g82
ssg63
g115
sg56
(lp126
S':'
asbag49
(g70
g51
NtRp127
(dp128
g54
(dp129
sg63
g115
sg56
(lp130
g49
(g50
g51
NtRp131
(dp132
g54
(dp133
g62
I5
ssg63
g127
sg56
(lp134
g49
(g58
g51
NtRp135
(dp136
g54
(dp137
g62
I4
ssg63
Nsg56
(lp138
sbasbasbasbag49
(g65
g51
NtRp139
(dp140
g54
(dp141
sg63
g59
sg56
(lp142
g49
(g70
g51
NtRp143
(dp144
g54
(dp145
g74
g75
ssg63
g139
sg56
(lp146
S'body'
p147
asbag49
(g70
g51
NtRp148
(dp149
g54
(dp150
g81
g82
ssg63
g139
sg56
(lp151
S':'
asbag49
(g70
g51
NtRp152
(dp153
g54
(dp154
sg63
g139
sg56
(lp155
g49
(g50
g51
NtRp156
(dp157
g54
(dp158
g62
I5
ssg63
g152
sg56
(lp159
S'<cStringIO.StringO object at 0x8eeb6e0>'
p160
asbasbasbag49
(g65
g51
NtRp161
(dp162
g54
(dp163
sg63
g59
sg56
(lp164
g49
(g70
g51
NtRp165
(dp166
g54
(dp167
g74
g75
ssg63
g161
sg56
(lp168
S'cid'
p169
asbag49
(g70
g51
NtRp170
(dp171
g54
(dp172
g81
g82
ssg63
g161
sg56
(lp173
S':'
asbag49
(g70
g51
NtRp174
(dp175
g54
(dp176
sg63
g161
sg56
(lp177
g49
(g50
g51
NtRp178
(dp179
g54
(dp180
g62
I5
ssg63
g174
sg56
(lp181
S'None'
p182
asbasbasbag49
(g65
g51
NtRp183
(dp184
g54
(dp185
sg63
g59
sg56
(lp186
g49
(g70
g51
NtRp187
(dp188
g54
(dp189
g74
g75
ssg63
g183
sg56
(lp190
S'client'
p191
asbag49
(g70
g51
NtRp192
(dp193
g54
(dp194
g81
g82
ssg63
g183
sg56
(lp195
S':'
asbag49
(g70
g51
NtRp196
(dp197
g54
(dp198
sg63
g183
sg56
(lp199
g49
(g50
g51
NtRp200
(dp201
g54
(dp202
g62
I5
ssg63
g196
sg56
(lp203
S'127.0.0.1'
p204
asbasbasbag49
(g65
g51
NtRp205
(dp206
g54
(dp207
sg63
g59
sg56
(lp208
g49
(g70
g51
NtRp209
(dp210
g54
(dp211
g74
g75
ssg63
g205
sg56
(lp212
S'controller'
p213
asbag49
(g70
g51
NtRp214
(dp215
g54
(dp216
g81
g82
ssg63
g205
sg56
(lp217
S':'
asbag49
(g70
g51
NtRp218
(dp219
g54
(dp220
sg63
g205
sg56
(lp221
g49
(g50
g51
NtRp222
(dp223
g54
(dp224
g62
I5
ssg63
g218
sg56
(lp225
S'default'
p226
asbasbasbag49
(g65
g51
NtRp227
(dp228
g54
(dp229
sg63
g59
sg56
(lp230
g49
(g70
g51
NtRp231
(dp232
g54
(dp233
g74
g75
ssg63
g227
sg56
(lp234
S'cookies'
p235
asbag49
(g70
g51
NtRp236
(dp237
g54
(dp238
g81
g82
ssg63
g227
sg56
(lp239
S':'
asbag49
(g70
g51
NtRp240
(dp241
g54
(dp242
sg63
g227
sg56
(lp243
g49
(g50
g51
NtRp244
(dp245
g54
(dp246
g62
I5
ssg63
g240
sg56
(lp247
g49
(g58
g51
NtRp248
(dp249
g54
(dp250
g62
I4
ssg63
Nsg56
(lp251
g49
(g65
g51
NtRp252
(dp253
g54
(dp254
sg63
g248
sg56
(lp255
g49
(g70
g51
NtRp256
(dp257
g54
(dp258
g74
g75
ssg63
g252
sg56
(lp259
S'session_id_admin'
p260
asbag49
(g70
g51
NtRp261
(dp262
g54
(dp263
g81
g82
ssg63
g252
sg56
(lp264
S':'
asbag49
(g70
g51
NtRp265
(dp266
g54
(dp267
sg63
g252
sg56
(lp268
g49
(g50
g51
NtRp269
(dp270
g54
(dp271
g62
I4
ssg63
g265
sg56
(lp272
S'127.0.0.1-6d643e70-8d6c-4e92-8c7e-38ba6849a536'
p273
ag49
(g58
g51
NtRp274
(dp275
g54
(dp276
g62
I3
ssg63
Nsg56
(lp277
g49
(g65
g51
NtRp278
(dp279
g54
(dp280
sg63
g274
sg56
(lp281
g49
(g70
g51
NtRp282
(dp283
g54
(dp284
g74
g75
ssg63
g278
sg56
(lp285
S'comment'
p286
asbag49
(g70
g51
NtRp287
(dp288
g54
(dp289
g81
g82
ssg63
g278
sg56
(lp290
S':'
asbag49
(g70
g51
NtRp291
(dp292
g54
(dp293
sg63
g278
sg56
(lp294
g49
(g50
g51
NtRp295
(dp296
g54
(dp297
g62
I3
ssg63
g291
sg56
(lp298
S''
asbasbasbag49
(g65
g51
NtRp299
(dp300
g54
(dp301
sg63
g274
sg56
(lp302
g49
(g70
g51
NtRp303
(dp304
g54
(dp305
g74
g75
ssg63
g299
sg56
(lp306
S'domain'
p307
asbag49
(g70
g51
NtRp308
(dp309
g54
(dp310
g81
g82
ssg63
g299
sg56
(lp311
S':'
asbag49
(g70
g51
NtRp312
(dp313
g54
(dp314
sg63
g299
sg56
(lp315
g49
(g50
g51
NtRp316
(dp317
g54
(dp318
g62
I3
ssg63
g312
sg56
(lp319
S''
asbasbasbag49
(g65
g51
NtRp320
(dp321
g54
(dp322
sg63
g274
sg56
(lp323
g49
(g70
g51
NtRp324
(dp325
g54
(dp326
g74
g75
ssg63
g320
sg56
(lp327
S'expires'
p328
asbag49
(g70
g51
NtRp329
(dp330
g54
(dp331
g81
g82
ssg63
g320
sg56
(lp332
S':'
asbag49
(g70
g51
NtRp333
(dp334
g54
(dp335
sg63
g320
sg56
(lp336
g49
(g50
g51
NtRp337
(dp338
g54
(dp339
g62
I3
ssg63
g333
sg56
(lp340
S''
asbasbasbag49
(g65
g51
NtRp341
(dp342
g54
(dp343
sg63
g274
sg56
(lp344
g49
(g70
g51
NtRp345
(dp346
g54
(dp347
g74
g75
ssg63
g341
sg56
(lp348
S'max-age'
p349
asbag49
(g70
g51
NtRp350
(dp351
g54
(dp352
g81
g82
ssg63
g341
sg56
(lp353
S':'
asbag49
(g70
g51
NtRp354
(dp355
g54
(dp356
sg63
g341
sg56
(lp357
g49
(g50
g51
NtRp358
(dp359
g54
(dp360
g62
I3
ssg63
g354
sg56
(lp361
S''
asbasbasbag49
(g65
g51
NtRp362
(dp363
g54
(dp364
sg63
g274
sg56
(lp365
g49
(g70
g51
NtRp366
(dp367
g54
(dp368
g74
g75
ssg63
g362
sg56
(lp369
S'path'
p370
asbag49
(g70
g51
NtRp371
(dp372
g54
(dp373
g81
g82
ssg63
g362
sg56
(lp374
S':'
asbag49
(g70
g51
NtRp375
(dp376
g54
(dp377
sg63
g362
sg56
(lp378
g49
(g50
g51
NtRp379
(dp380
g54
(dp381
g62
I3
ssg63
g375
sg56
(lp382
S''
asbasbasbag49
(g65
g51
NtRp383
(dp384
g54
(dp385
sg63
g274
sg56
(lp386
g49
(g70
g51
NtRp387
(dp388
g54
(dp389
g74
g75
ssg63
g383
sg56
(lp390
S'secure'
p391
asbag49
(g70
g51
NtRp392
(dp393
g54
(dp394
g81
g82
ssg63
g383
sg56
(lp395
S':'
asbag49
(g70
g51
NtRp396
(dp397
g54
(dp398
sg63
g383
sg56
(lp399
g49
(g50
g51
NtRp400
(dp401
g54
(dp402
g62
I3
ssg63
g396
sg56
(lp403
S''
asbasbasbag49
(g65
g51
NtRp404
(dp405
g54
(dp406
sg63
g274
sg56
(lp407
g49
(g70
g51
NtRp408
(dp409
g54
(dp410
g74
g75
ssg63
g404
sg56
(lp411
S'version'
p412
asbag49
(g70
g51
NtRp413
(dp414
g54
(dp415
g81
g82
ssg63
g404
sg56
(lp416
S':'
asbag49
(g70
g51
NtRp417
(dp418
g54
(dp419
sg63
g404
sg56
(lp420
g49
(g50
g51
NtRp421
(dp422
g54
(dp423
g62
I3
ssg63
g417
sg56
(lp424
S''
asbasbasbasbasbasbasbag49
(g65
g51
NtRp425
(dp426
g54
(dp427
sg63
g248
sg56
(lp428
g49
(g70
g51
NtRp429
(dp430
g54
(dp431
g74
g75
ssg63
g425
sg56
(lp432
S'session_id_mr'
p433
asbag49
(g70
g51
NtRp434
(dp435
g54
(dp436
g81
g82
ssg63
g425
sg56
(lp437
S':'
asbag49
(g70
g51
NtRp438
(dp439
g54
(dp440
sg63
g425
sg56
(lp441
g49
(g50
g51
NtRp442
(dp443
g54
(dp444
g62
I4
ssg63
g438
sg56
(lp445
S'127.0.0.1-56f6c833-4495-4158-afa1-0ddb41c94ce0'
p446
ag49
(g58
g51
NtRp447
(dp448
g54
(dp449
g62
I3
ssg63
Nsg56
(lp450
g49
(g65
g51
NtRp451
(dp452
g54
(dp453
sg63
g447
sg56
(lp454
g49
(g70
g51
NtRp455
(dp456
g54
(dp457
g74
g75
ssg63
g451
sg56
(lp458
g286
asbag49
(g70
g51
NtRp459
(dp460
g54
(dp461
g81
g82
ssg63
g451
sg56
(lp462
S':'
asbag49
(g70
g51
NtRp463
(dp464
g54
(dp465
sg63
g451
sg56
(lp466
g49
(g50
g51
NtRp467
(dp468
g54
(dp469
g62
I3
ssg63
g463
sg56
(lp470
S''
asbasbasbag49
(g65
g51
NtRp471
(dp472
g54
(dp473
sg63
g447
sg56
(lp474
g49
(g70
g51
NtRp475
(dp476
g54
(dp477
g74
g75
ssg63
g471
sg56
(lp478
g307
asbag49
(g70
g51
NtRp479
(dp480
g54
(dp481
g81
g82
ssg63
g471
sg56
(lp482
S':'
asbag49
(g70
g51
NtRp483
(dp484
g54
(dp485
sg63
g471
sg56
(lp486
g49
(g50
g51
NtRp487
(dp488
g54
(dp489
g62
I3
ssg63
g483
sg56
(lp490
S''
asbasbasbag49
(g65
g51
NtRp491
(dp492
g54
(dp493
sg63
g447
sg56
(lp494
g49
(g70
g51
NtRp495
(dp496
g54
(dp497
g74
g75
ssg63
g491
sg56
(lp498
g328
asbag49
(g70
g51
NtRp499
(dp500
g54
(dp501
g81
g82
ssg63
g491
sg56
(lp502
S':'
asbag49
(g70
g51
NtRp503
(dp504
g54
(dp505
sg63
g491
sg56
(lp506
g49
(g50
g51
NtRp507
(dp508
g54
(dp509
g62
I3
ssg63
g503
sg56
(lp510
S''
asbasbasbag49
(g65
g51
NtRp511
(dp512
g54
(dp513
sg63
g447
sg56
(lp514
g49
(g70
g51
NtRp515
(dp516
g54
(dp517
g74
g75
ssg63
g511
sg56
(lp518
g349
asbag49
(g70
g51
NtRp519
(dp520
g54
(dp521
g81
g82
ssg63
g511
sg56
(lp522
S':'
asbag49
(g70
g51
NtRp523
(dp524
g54
(dp525
sg63
g511
sg56
(lp526
g49
(g50
g51
NtRp527
(dp528
g54
(dp529
g62
I3
ssg63
g523
sg56
(lp530
S''
asbasbasbag49
(g65
g51
NtRp531
(dp532
g54
(dp533
sg63
g447
sg56
(lp534
g49
(g70
g51
NtRp535
(dp536
g54
(dp537
g74
g75
ssg63
g531
sg56
(lp538
g370
asbag49
(g70
g51
NtRp539
(dp540
g54
(dp541
g81
g82
ssg63
g531
sg56
(lp542
S':'
asbag49
(g70
g51
NtRp543
(dp544
g54
(dp545
sg63
g531
sg56
(lp546
g49
(g50
g51
NtRp547
(dp548
g54
(dp549
g62
I3
ssg63
g543
sg56
(lp550
S''
asbasbasbag49
(g65
g51
NtRp551
(dp552
g54
(dp553
sg63
g447
sg56
(lp554
g49
(g70
g51
NtRp555
(dp556
g54
(dp557
g74
g75
ssg63
g551
sg56
(lp558
g391
asbag49
(g70
g51
NtRp559
(dp560
g54
(dp561
g81
g82
ssg63
g551
sg56
(lp562
S':'
asbag49
(g70
g51
NtRp563
(dp564
g54
(dp565
sg63
g551
sg56
(lp566
g49
(g50
g51
NtRp567
(dp568
g54
(dp569
g62
I3
ssg63
g563
sg56
(lp570
S''
asbasbasbag49
(g65
g51
NtRp571
(dp572
g54
(dp573
sg63
g447
sg56
(lp574
g49
(g70
g51
NtRp575
(dp576
g54
(dp577
g74
g75
ssg63
g571
sg56
(lp578
g412
asbag49
(g70
g51
NtRp579
(dp580
g54
(dp581
g81
g82
ssg63
g571
sg56
(lp582
S':'
asbag49
(g70
g51
NtRp583
(dp584
g54
(dp585
sg63
g571
sg56
(lp586
g49
(g50
g51
NtRp587
(dp588
g54
(dp589
g62
I3
ssg63
g583
sg56
(lp590
S''
asbasbasbasbasbasbasbag49
(g65
g51
NtRp591
(dp592
g54
(dp593
sg63
g248
sg56
(lp594
g49
(g70
g51
NtRp595
(dp596
g54
(dp597
g74
g75
ssg63
g591
sg56
(lp598
S'session_id_welcome'
p599
asbag49
(g70
g51
NtRp600
(dp601
g54
(dp602
g81
g82
ssg63
g591
sg56
(lp603
S':'
asbag49
(g70
g51
NtRp604
(dp605
g54
(dp606
sg63
g591
sg56
(lp607
g49
(g50
g51
NtRp608
(dp609
g54
(dp610
g62
I4
ssg63
g604
sg56
(lp611
S'127.0.0.1-2ac9e4fa-5c51-4c7c-9d24-af98e051a735'
p612
ag49
(g58
g51
NtRp613
(dp614
g54
(dp615
g62
I3
ssg63
Nsg56
(lp616
g49
(g65
g51
NtRp617
(dp618
g54
(dp619
sg63
g613
sg56
(lp620
g49
(g70
g51
NtRp621
(dp622
g54
(dp623
g74
g75
ssg63
g617
sg56
(lp624
g286
asbag49
(g70
g51
NtRp625
(dp626
g54
(dp627
g81
g82
ssg63
g617
sg56
(lp628
S':'
asbag49
(g70
g51
NtRp629
(dp630
g54
(dp631
sg63
g617
sg56
(lp632
g49
(g50
g51
NtRp633
(dp634
g54
(dp635
g62
I3
ssg63
g629
sg56
(lp636
S''
asbasbasbag49
(g65
g51
NtRp637
(dp638
g54
(dp639
sg63
g613
sg56
(lp640
g49
(g70
g51
NtRp641
(dp642
g54
(dp643
g74
g75
ssg63
g637
sg56
(lp644
g307
asbag49
(g70
g51
NtRp645
(dp646
g54
(dp647
g81
g82
ssg63
g637
sg56
(lp648
S':'
asbag49
(g70
g51
NtRp649
(dp650
g54
(dp651
sg63
g637
sg56
(lp652
g49
(g50
g51
NtRp653
(dp654
g54
(dp655
g62
I3
ssg63
g649
sg56
(lp656
S''
asbasbasbag49
(g65
g51
NtRp657
(dp658
g54
(dp659
sg63
g613
sg56
(lp660
g49
(g70
g51
NtRp661
(dp662
g54
(dp663
g74
g75
ssg63
g657
sg56
(lp664
g328
asbag49
(g70
g51
NtRp665
(dp666
g54
(dp667
g81
g82
ssg63
g657
sg56
(lp668
S':'
asbag49
(g70
g51
NtRp669
(dp670
g54
(dp671
sg63
g657
sg56
(lp672
g49
(g50
g51
NtRp673
(dp674
g54
(dp675
g62
I3
ssg63
g669
sg56
(lp676
S''
asbasbasbag49
(g65
g51
NtRp677
(dp678
g54
(dp679
sg63
g613
sg56
(lp680
g49
(g70
g51
NtRp681
(dp682
g54
(dp683
g74
g75
ssg63
g677
sg56
(lp684
g349
asbag49
(g70
g51
NtRp685
(dp686
g54
(dp687
g81
g82
ssg63
g677
sg56
(lp688
S':'
asbag49
(g70
g51
NtRp689
(dp690
g54
(dp691
sg63
g677
sg56
(lp692
g49
(g50
g51
NtRp693
(dp694
g54
(dp695
g62
I3
ssg63
g689
sg56
(lp696
S''
asbasbasbag49
(g65
g51
NtRp697
(dp698
g54
(dp699
sg63
g613
sg56
(lp700
g49
(g70
g51
NtRp701
(dp702
g54
(dp703
g74
g75
ssg63
g697
sg56
(lp704
g370
asbag49
(g70
g51
NtRp705
(dp706
g54
(dp707
g81
g82
ssg63
g697
sg56
(lp708
S':'
asbag49
(g70
g51
NtRp709
(dp710
g54
(dp711
sg63
g697
sg56
(lp712
g49
(g50
g51
NtRp713
(dp714
g54
(dp715
g62
I3
ssg63
g709
sg56
(lp716
S''
asbasbasbag49
(g65
g51
NtRp717
(dp718
g54
(dp719
sg63
g613
sg56
(lp720
g49
(g70
g51
NtRp721
(dp722
g54
(dp723
g74
g75
ssg63
g717
sg56
(lp724
g391
asbag49
(g70
g51
NtRp725
(dp726
g54
(dp727
g81
g82
ssg63
g717
sg56
(lp728
S':'
asbag49
(g70
g51
NtRp729
(dp730
g54
(dp731
sg63
g717
sg56
(lp732
g49
(g50
g51
NtRp733
(dp734
g54
(dp735
g62
I3
ssg63
g729
sg56
(lp736
S''
asbasbasbag49
(g65
g51
NtRp737
(dp738
g54
(dp739
sg63
g613
sg56
(lp740
g49
(g70
g51
NtRp741
(dp742
g54
(dp743
g74
g75
ssg63
g737
sg56
(lp744
g412
asbag49
(g70
g51
NtRp745
(dp746
g54
(dp747
g81
g82
ssg63
g737
sg56
(lp748
S':'
asbag49
(g70
g51
NtRp749
(dp750
g54
(dp751
sg63
g737
sg56
(lp752
g49
(g50
g51
NtRp753
(dp754
g54
(dp755
g62
I3
ssg63
g749
sg56
(lp756
S''
asbasbasbasbasbasbasbasbasbasbasbag49
(g65
g51
NtRp757
(dp758
g54
(dp759
sg63
g59
sg56
(lp760
g49
(g70
g51
NtRp761
(dp762
g54
(dp763
g74
g75
ssg63
g757
sg56
(lp764
S'env'
p765
asbag49
(g70
g51
NtRp766
(dp767
g54
(dp768
g81
g82
ssg63
g757
sg56
(lp769
S':'
asbag49
(g70
g51
NtRp770
(dp771
g54
(dp772
sg63
g757
sg56
(lp773
g49
(g50
g51
NtRp774
(dp775
g54
(dp776
g62
I5
ssg63
g770
sg56
(lp777
g49
(g58
g51
NtRp778
(dp779
g54
(dp780
g62
I4
ssg63
Nsg56
(lp781
g49
(g65
g51
NtRp782
(dp783
g54
(dp784
sg63
g778
sg56
(lp785
g49
(g70
g51
NtRp786
(dp787
g54
(dp788
g74
g75
ssg63
g782
sg56
(lp789
S'app_folders'
p790
asbag49
(g70
g51
NtRp791
(dp792
g54
(dp793
g81
g82
ssg63
g782
sg56
(lp794
S':'
asbag49
(g70
g51
NtRp795
(dp796
g54
(dp797
sg63
g782
sg56
(lp798
g49
(g50
g51
NtRp799
(dp800
g54
(dp801
g62
I4
ssg63
g795
sg56
(lp802
S"set(['/Applications/web2py.app/Contents/Resources/applications/admin/', '/Applications/web2py.app/Contents/Resources/applications/welcome/', '/Applications/web2py.app/Contents/Resources/applications/MR/'])"
p803
asbasbasbag49
(g65
g51
NtRp804
(dp805
g54
(dp806
sg63
g778
sg56
(lp807
g49
(g70
g51
NtRp808
(dp809
g54
(dp810
g74
g75
ssg63
g804
sg56
(lp811
S'applications_parent'
p812
asbag49
(g70
g51
NtRp813
(dp814
g54
(dp815
g81
g82
ssg63
g804
sg56
(lp816
S':'
asbag49
(g70
g51
NtRp817
(dp818
g54
(dp819
sg63
g804
sg56
(lp820
g49
(g50
g51
NtRp821
(dp822
g54
(dp823
g62
I4
ssg63
g817
sg56
(lp824
S'/Applications/web2py.app/Contents/Resources'
p825
asbasbasbag49
(g65
g51
NtRp826
(dp827
g54
(dp828
sg63
g778
sg56
(lp829
g49
(g70
g51
NtRp830
(dp831
g54
(dp832
g74
g75
ssg63
g826
sg56
(lp833
S'cmd_args'
p834
asbag49
(g70
g51
NtRp835
(dp836
g54
(dp837
g81
g82
ssg63
g826
sg56
(lp838
S':'
asbag49
(g70
g51
NtRp839
(dp840
g54
(dp841
sg63
g826
sg56
(lp842
g49
(g50
g51
NtRp843
(dp844
g54
(dp845
g62
I4
ssg63
g839
sg56
(lp846
g49
(g58
g51
NtRp847
(dp848
g54
(dp849
g62
I3
ssg63
Nsg56
(lp850
sbasbasbasbag49
(g65
g51
NtRp851
(dp852
g54
(dp853
sg63
g778
sg56
(lp854
g49
(g70
g51
NtRp855
(dp856
g54
(dp857
g74
g75
ssg63
g851
sg56
(lp858
S'cmd_options'
p859
asbag49
(g70
g51
NtRp860
(dp861
g54
(dp862
g81
g82
ssg63
g851
sg56
(lp863
S':'
asbag49
(g70
g51
NtRp864
(dp865
g54
(dp866
sg63
g851
sg56
(lp867
g49
(g50
g51
NtRp868
(dp869
g54
(dp870
g62
I4
ssg63
g864
sg56
(lp871
S"<Values at 0x4554f58: {'verbose': False, 'ip': '127.0.0.1', 'with_scheduler': False, 'ips': ['173.250.203.67'], 'shutdown_timeout': 5, 'taskbar': False, 'port': 8000, 'maxthreads': None, 'softcron': False, 'server_name': 'd-173-250-203-67.dhcp4.washington.edu', 'bpython': False, 'nogui': False, 'pid_filename': 'httpserver.pid', 'extcron': False, 'runcron': False, 'run_system_tests': False, 'test': None, 'folder': '/Applications/web2py.app/Contents/Resources', 'config': '', 'import_models': False, 'winservice': '', 'shell': None, 'run': '', 'log_filename': 'httpserver.log', 'debuglevel': 30, 'args': [''], 'socket_timeout': 5, 'ssl_ca_certificate': None, 'scheduler': None, 'profiler_filename': None, 'ssl_private_key': '', 'scheduler_groups': None, 'password': '<ask>', 'request_queue_size': 5, 'ssl_certificate': '', 'cronjob': False, 'numthreads': None, 'quiet': False, 'interfaces': None, 'minthreads': None, 'timeout': 10, 'plain': False, 'nobanner': False}>"
p872
asbasbasbag49
(g65
g51
NtRp873
(dp874
g54
(dp875
sg63
g778
sg56
(lp876
g49
(g70
g51
NtRp877
(dp878
g54
(dp879
g74
g75
ssg63
g873
sg56
(lp880
S'db_sessions'
p881
asbag49
(g70
g51
NtRp882
(dp883
g54
(dp884
g81
g82
ssg63
g873
sg56
(lp885
S':'
asbag49
(g70
g51
NtRp886
(dp887
g54
(dp888
sg63
g873
sg56
(lp889
g49
(g50
g51
NtRp890
(dp891
g54
(dp892
g62
I4
ssg63
g886
sg56
(lp893
S'set([])'
p894
asbasbasbag49
(g65
g51
NtRp895
(dp896
g54
(dp897
sg63
g778
sg56
(lp898
g49
(g70
g51
NtRp899
(dp900
g54
(dp901
g74
g75
ssg63
g895
sg56
(lp902
S'debugging'
p903
asbag49
(g70
g51
NtRp904
(dp905
g54
(dp906
g81
g82
ssg63
g895
sg56
(lp907
S':'
asbag49
(g70
g51
NtRp908
(dp909
g54
(dp910
sg63
g895
sg56
(lp911
g49
(g50
g51
NtRp912
(dp913
g54
(dp914
g62
I4
ssg63
g908
sg56
(lp915
S'True'
p916
asbasbasbag49
(g65
g51
NtRp917
(dp918
g54
(dp919
sg63
g778
sg56
(lp920
g49
(g70
g51
NtRp921
(dp922
g54
(dp923
g74
g75
ssg63
g917
sg56
(lp924
S'gluon_parent'
p925
asbag49
(g70
g51
NtRp926
(dp927
g54
(dp928
g81
g82
ssg63
g917
sg56
(lp929
S':'
asbag49
(g70
g51
NtRp930
(dp931
g54
(dp932
sg63
g917
sg56
(lp933
g49
(g50
g51
NtRp934
(dp935
g54
(dp936
g62
I4
ssg63
g930
sg56
(lp937
S'/Applications/web2py.app/Contents/Resources'
p938
asbasbasbag49
(g65
g51
NtRp939
(dp940
g54
(dp941
sg63
g778
sg56
(lp942
g49
(g70
g51
NtRp943
(dp944
g54
(dp945
g74
g75
ssg63
g939
sg56
(lp946
S'http_accept'
p947
asbag49
(g70
g51
NtRp948
(dp949
g54
(dp950
g81
g82
ssg63
g939
sg56
(lp951
S':'
asbag49
(g70
g51
NtRp952
(dp953
g54
(dp954
sg63
g939
sg56
(lp955
g49
(g50
g51
NtRp956
(dp957
g54
(dp958
g62
I4
ssg63
g952
sg56
(lp959
S'text/html,application/xhtml+xml,application/xml;q=0.9,*/*;q=0.8'
p960
asbasbasbag49
(g65
g51
NtRp961
(dp962
g54
(dp963
sg63
g778
sg56
(lp964
g49
(g70
g51
NtRp965
(dp966
g54
(dp967
g74
g75
ssg63
g961
sg56
(lp968
S'http_accept_charset'
p969
asbag49
(g70
g51
NtRp970
(dp971
g54
(dp972
g81
g82
ssg63
g961
sg56
(lp973
S':'
asbag49
(g70
g51
NtRp974
(dp975
g54
(dp976
sg63
g961
sg56
(lp977
g49
(g50
g51
NtRp978
(dp979
g54
(dp980
g62
I4
ssg63
g974
sg56
(lp981
S'GBK,utf-8;q=0.7,*;q=0.3'
p982
asbasbasbag49
(g65
g51
NtRp983
(dp984
g54
(dp985
sg63
g778
sg56
(lp986
g49
(g70
g51
NtRp987
(dp988
g54
(dp989
g74
g75
ssg63
g983
sg56
(lp990
S'http_accept_encoding'
p991
asbag49
(g70
g51
NtRp992
(dp993
g54
(dp994
g81
g82
ssg63
g983
sg56
(lp995
S':'
asbag49
(g70
g51
NtRp996
(dp997
g54
(dp998
sg63
g983
sg56
(lp999
g49
(g50
g51
NtRp1000
(dp1001
g54
(dp1002
g62
I4
ssg63
g996
sg56
(lp1003
S'gzip,deflate,sdch'
p1004
asbasbasbag49
(g65
g51
NtRp1005
(dp1006
g54
(dp1007
sg63
g778
sg56
(lp1008
g49
(g70
g51
NtRp1009
(dp1010
g54
(dp1011
g74
g75
ssg63
g1005
sg56
(lp1012
S'http_accept_language'
p1013
asbag49
(g70
g51
NtRp1014
(dp1015
g54
(dp1016
g81
g82
ssg63
g1005
sg56
(lp1017
S':'
asbag49
(g70
g51
NtRp1018
(dp1019
g54
(dp1020
sg63
g1005
sg56
(lp1021
g49
(g50
g51
NtRp1022
(dp1023
g54
(dp1024
g62
I4
ssg63
g1018
sg56
(lp1025
S'zh-CN,zh;q=0.8'
p1026
asbasbasbag49
(g65
g51
NtRp1027
(dp1028
g54
(dp1029
sg63
g778
sg56
(lp1030
g49
(g70
g51
NtRp1031
(dp1032
g54
(dp1033
g74
g75
ssg63
g1027
sg56
(lp1034
S'http_connection'
p1035
asbag49
(g70
g51
NtRp1036
(dp1037
g54
(dp1038
g81
g82
ssg63
g1027
sg56
(lp1039
S':'
asbag49
(g70
g51
NtRp1040
(dp1041
g54
(dp1042
sg63
g1027
sg56
(lp1043
g49
(g50
g51
NtRp1044
(dp1045
g54
(dp1046
g62
I4
ssg63
g1040
sg56
(lp1047
S'keep-alive'
p1048
asbasbasbag49
(g65
g51
NtRp1049
(dp1050
g54
(dp1051
sg63
g778
sg56
(lp1052
g49
(g70
g51
NtRp1053
(dp1054
g54
(dp1055
g74
g75
ssg63
g1049
sg56
(lp1056
S'http_cookie'
p1057
asbag49
(g70
g51
NtRp1058
(dp1059
g54
(dp1060
g81
g82
ssg63
g1049
sg56
(lp1061
S':'
asbag49
(g70
g51
NtRp1062
(dp1063
g54
(dp1064
sg63
g1049
sg56
(lp1065
g49
(g50
g51
NtRp1066
(dp1067
g54
(dp1068
g62
I4
ssg63
g1062
sg56
(lp1069
S'session_id_welcome=127.0.0.1-2ac9e4fa-5c51-4c7c-9d24-af98e051a735; session_id_admin=127.0.0.1-6d643e70-8d6c-4e92-8c7e-38ba6849a536; session_id_mr=127.0.0.1-56f6c833-4495-4158-afa1-0ddb41c94ce0'
p1070
asbasbasbag49
(g65
g51
NtRp1071
(dp1072
g54
(dp1073
sg63
g778
sg56
(lp1074
g49
(g70
g51
NtRp1075
(dp1076
g54
(dp1077
g74
g75
ssg63
g1071
sg56
(lp1078
S'http_host'
p1079
asbag49
(g70
g51
NtRp1080
(dp1081
g54
(dp1082
g81
g82
ssg63
g1071
sg56
(lp1083
S':'
asbag49
(g70
g51
NtRp1084
(dp1085
g54
(dp1086
sg63
g1071
sg56
(lp1087
g49
(g50
g51
NtRp1088
(dp1089
g54
(dp1090
g62
I4
ssg63
g1084
sg56
(lp1091
S'127.0.0.1:8000'
p1092
asbasbasbag49
(g65
g51
NtRp1093
(dp1094
g54
(dp1095
sg63
g778
sg56
(lp1096
g49
(g70
g51
NtRp1097
(dp1098
g54
(dp1099
g74
g75
ssg63
g1093
sg56
(lp1100
S'http_user_agent'
p1101
asbag49
(g70
g51
NtRp1102
(dp1103
g54
(dp1104
g81
g82
ssg63
g1093
sg56
(lp1105
S':'
asbag49
(g70
g51
NtRp1106
(dp1107
g54
(dp1108
sg63
g1093
sg56
(lp1109
g49
(g50
g51
NtRp1110
(dp1111
g54
(dp1112
g62
I4
ssg63
g1106
sg56
(lp1113
S'Mozilla/5.0 (Macintosh; Intel Mac OS X 10_8_3) AppleWebKit/537.31 (KHTML, like Gecko) Chrome/26.0.1410.65 Safari/537.31'
p1114
asbasbasbag49
(g65
g51
NtRp1115
(dp1116
g54
(dp1117
sg63
g778
sg56
(lp1118
g49
(g70
g51
NtRp1119
(dp1120
g54
(dp1121
g74
g75
ssg63
g1115
sg56
(lp1122
S'is_jython'
p1123
asbag49
(g70
g51
NtRp1124
(dp1125
g54
(dp1126
g81
g82
ssg63
g1115
sg56
(lp1127
S':'
asbag49
(g70
g51
NtRp1128
(dp1129
g54
(dp1130
sg63
g1115
sg56
(lp1131
g49
(g50
g51
NtRp1132
(dp1133
g54
(dp1134
g62
I4
ssg63
g1128
sg56
(lp1135
g92
asbasbasbag49
(g65
g51
NtRp1136
(dp1137
g54
(dp1138
sg63
g778
sg56
(lp1139
g49
(g70
g51
NtRp1140
(dp1141
g54
(dp1142
g74
g75
ssg63
g1136
sg56
(lp1143
S'is_pypy'
p1144
asbag49
(g70
g51
NtRp1145
(dp1146
g54
(dp1147
g81
g82
ssg63
g1136
sg56
(lp1148
S':'
asbag49
(g70
g51
NtRp1149
(dp1150
g54
(dp1151
sg63
g1136
sg56
(lp1152
g49
(g50
g51
NtRp1153
(dp1154
g54
(dp1155
g62
I4
ssg63
g1149
sg56
(lp1156
g92
asbasbasbag49
(g65
g51
NtRp1157
(dp1158
g54
(dp1159
sg63
g778
sg56
(lp1160
g49
(g70
g51
NtRp1161
(dp1162
g54
(dp1163
g74
g75
ssg63
g1157
sg56
(lp1164
S'local_hosts'
p1165
asbag49
(g70
g51
NtRp1166
(dp1167
g54
(dp1168
g81
g82
ssg63
g1157
sg56
(lp1169
S':'
asbag49
(g70
g51
NtRp1170
(dp1171
g54
(dp1172
sg63
g1157
sg56
(lp1173
g49
(g50
g51
NtRp1174
(dp1175
g54
(dp1176
g62
I4
ssg63
g1170
sg56
(lp1177
g49
(g58
g51
NtRp1178
(dp1179
g54
(dp1180
g62
I3
ssg63
Nsg56
(lp1181
g49
(g65
g51
NtRp1182
(dp1183
g54
(dp1184
sg63
g1178
sg56
(lp1185
g49
(g70
g51
NtRp1186
(dp1187
g54
(dp1188
sg63
g1182
sg56
(lp1189
g49
(g50
g51
NtRp1190
(dp1191
g54
(dp1192
g62
I3
ssg63
g1186
sg56
(lp1193
S'd-173-250-203-67.dhcp4.washington.edu'
p1194
asbasbasbag49
(g65
g51
NtRp1195
(dp1196
g54
(dp1197
sg63
g1178
sg56
(lp1198
g49
(g70
g51
NtRp1199
(dp1200
g54
(dp1201
sg63
g1195
sg56
(lp1202
g49
(g50
g51
NtRp1203
(dp1204
g54
(dp1205
g62
I3
ssg63
g1199
sg56
(lp1206
S'::1'
p1207
asbasbasbag49
(g65
g51
NtRp1208
(dp1209
g54
(dp1210
sg63
g1178
sg56
(lp1211
g49
(g70
g51
NtRp1212
(dp1213
g54
(dp1214
sg63
g1208
sg56
(lp1215
g49
(g50
g51
NtRp1216
(dp1217
g54
(dp1218
g62
I3
ssg63
g1212
sg56
(lp1219
S'173.250.203.67'
p1220
asbasbasbag49
(g65
g51
NtRp1221
(dp1222
g54
(dp1223
sg63
g1178
sg56
(lp1224
g49
(g70
g51
NtRp1225
(dp1226
g54
(dp1227
sg63
g1221
sg56
(lp1228
g49
(g50
g51
NtRp1229
(dp1230
g54
(dp1231
g62
I3
ssg63
g1225
sg56
(lp1232
S'::ffff:127.0.0.1'
p1233
asbasbasbag49
(g65
g51
NtRp1234
(dp1235
g54
(dp1236
sg63
g1178
sg56
(lp1237
g49
(g70
g51
NtRp1238
(dp1239
g54
(dp1240
sg63
g1234
sg56
(lp1241
g49
(g50
g51
NtRp1242
(dp1243
g54
(dp1244
g62
I3
ssg63
g1238
sg56
(lp1245
S'127.0.0.1'
p1246
asbasbasbasbasbasbasbag49
(g65
g51
NtRp1247
(dp1248
g54
(dp1249
sg63
g778
sg56
(lp1250
g49
(g70
g51
NtRp1251
(dp1252
g54
(dp1253
g74
g75
ssg63
g1247
sg56
(lp1254
S'path_info'
p1255
asbag49
(g70
g51
NtRp1256
(dp1257
g54
(dp1258
g81
g82
ssg63
g1247
sg56
(lp1259
S':'
asbag49
(g70
g51
NtRp1260
(dp1261
g54
(dp1262
sg63
g1247
sg56
(lp1263
g49
(g50
g51
NtRp1264
(dp1265
g54
(dp1266
g62
I4
ssg63
g1260
sg56
(lp1267
S'/MR/default/mobile_user_register'
p1268
asbasbasbag49
(g65
g51
NtRp1269
(dp1270
g54
(dp1271
sg63
g778
sg56
(lp1272
g49
(g70
g51
NtRp1273
(dp1274
g54
(dp1275
g74
g75
ssg63
g1269
sg56
(lp1276
S'query_string'
p1277
asbag49
(g70
g51
NtRp1278
(dp1279
g54
(dp1280
g81
g82
ssg63
g1269
sg56
(lp1281
S':'
asbag49
(g70
g51
NtRp1282
(dp1283
g54
(dp1284
sg63
g1269
sg56
(lp1285
g49
(g50
g51
NtRp1286
(dp1287
g54
(dp1288
g62
I4
ssg63
g1282
sg56
(lp1289
S''
asbasbasbag49
(g65
g51
NtRp1290
(dp1291
g54
(dp1292
sg63
g778
sg56
(lp1293
g49
(g70
g51
NtRp1294
(dp1295
g54
(dp1296
g74
g75
ssg63
g1290
sg56
(lp1297
S'remote_addr'
p1298
asbag49
(g70
g51
NtRp1299
(dp1300
g54
(dp1301
g81
g82
ssg63
g1290
sg56
(lp1302
S':'
asbag49
(g70
g51
NtRp1303
(dp1304
g54
(dp1305
sg63
g1290
sg56
(lp1306
g49
(g50
g51
NtRp1307
(dp1308
g54
(dp1309
g62
I4
ssg63
g1303
sg56
(lp1310
g204
asbasbasbag49
(g65
g51
NtRp1311
(dp1312
g54
(dp1313
sg63
g778
sg56
(lp1314
g49
(g70
g51
NtRp1315
(dp1316
g54
(dp1317
g74
g75
ssg63
g1311
sg56
(lp1318
S'remote_port'
p1319
asbag49
(g70
g51
NtRp1320
(dp1321
g54
(dp1322
g81
g82
ssg63
g1311
sg56
(lp1323
S':'
asbag49
(g70
g51
NtRp1324
(dp1325
g54
(dp1326
sg63
g1311
sg56
(lp1327
g49
(g50
g51
NtRp1328
(dp1329
g54
(dp1330
g62
I4
ssg63
g1324
sg56
(lp1331
S'56864'
p1332
asbasbasbag49
(g65
g51
NtRp1333
(dp1334
g54
(dp1335
sg63
g778
sg56
(lp1336
g49
(g70
g51
NtRp1337
(dp1338
g54
(dp1339
g74
g75
ssg63
g1333
sg56
(lp1340
S'request_method'
p1341
asbag49
(g70
g51
NtRp1342
(dp1343
g54
(dp1344
g81
g82
ssg63
g1333
sg56
(lp1345
S':'
asbag49
(g70
g51
NtRp1346
(dp1347
g54
(dp1348
sg63
g1333
sg56
(lp1349
g49
(g50
g51
NtRp1350
(dp1351
g54
(dp1352
g62
I4
ssg63
g1346
sg56
(lp1353
S'GET'
p1354
asbasbasbag49
(g65
g51
NtRp1355
(dp1356
g54
(dp1357
sg63
g778
sg56
(lp1358
g49
(g70
g51
NtRp1359
(dp1360
g54
(dp1361
g74
g75
ssg63
g1355
sg56
(lp1362
S'request_uri'
p1363
asbag49
(g70
g51
NtRp1364
(dp1365
g54
(dp1366
g81
g82
ssg63
g1355
sg56
(lp1367
S':'
asbag49
(g70
g51
NtRp1368
(dp1369
g54
(dp1370
sg63
g1355
sg56
(lp1371
g49
(g50
g51
NtRp1372
(dp1373
g54
(dp1374
g62
I4
ssg63
g1368
sg56
(lp1375
g1268
asbasbasbag49
(g65
g51
NtRp1376
(dp1377
g54
(dp1378
sg63
g778
sg56
(lp1379
g49
(g70
g51
NtRp1380
(dp1381
g54
(dp1382
g74
g75
ssg63
g1376
sg56
(lp1383
S'script_name'
p1384
asbag49
(g70
g51
NtRp1385
(dp1386
g54
(dp1387
g81
g82
ssg63
g1376
sg56
(lp1388
S':'
asbag49
(g70
g51
NtRp1389
(dp1390
g54
(dp1391
sg63
g1376
sg56
(lp1392
g49
(g50
g51
NtRp1393
(dp1394
g54
(dp1395
g62
I4
ssg63
g1389
sg56
(lp1396
S''
asbasbasbag49
(g65
g51
NtRp1397
(dp1398
g54
(dp1399
sg63
g778
sg56
(lp1400
g49
(g70
g51
NtRp1401
(dp1402
g54
(dp1403
g74
g75
ssg63
g1397
sg56
(lp1404
S'server_name'
p1405
asbag49
(g70
g51
NtRp1406
(dp1407
g54
(dp1408
g81
g82
ssg63
g1397
sg56
(lp1409
S':'
asbag49
(g70
g51
NtRp1410
(dp1411
g54
(dp1412
sg63
g1397
sg56
(lp1413
g49
(g50
g51
NtRp1414
(dp1415
g54
(dp1416
g62
I4
ssg63
g1410
sg56
(lp1417
S'd-173-250-203-67.dhcp4.washington.edu'
p1418
asbasbasbag49
(g65
g51
NtRp1419
(dp1420
g54
(dp1421
sg63
g778
sg56
(lp1422
g49
(g70
g51
NtRp1423
(dp1424
g54
(dp1425
g74
g75
ssg63
g1419
sg56
(lp1426
S'server_port'
p1427
asbag49
(g70
g51
NtRp1428
(dp1429
g54
(dp1430
g81
g82
ssg63
g1419
sg56
(lp1431
S':'
asbag49
(g70
g51
NtRp1432
(dp1433
g54
(dp1434
sg63
g1419
sg56
(lp1435
g49
(g50
g51
NtRp1436
(dp1437
g54
(dp1438
g62
I4
ssg63
g1432
sg56
(lp1439
S'8000'
p1440
asbasbasbag49
(g65
g51
NtRp1441
(dp1442
g54
(dp1443
sg63
g778
sg56
(lp1444
g49
(g70
g51
NtRp1445
(dp1446
g54
(dp1447
g74
g75
ssg63
g1441
sg56
(lp1448
S'server_protocol'
p1449
asbag49
(g70
g51
NtRp1450
(dp1451
g54
(dp1452
g81
g82
ssg63
g1441
sg56
(lp1453
S':'
asbag49
(g70
g51
NtRp1454
(dp1455
g54
(dp1456
sg63
g1441
sg56
(lp1457
g49
(g50
g51
NtRp1458
(dp1459
g54
(dp1460
g62
I4
ssg63
g1454
sg56
(lp1461
S'HTTP/1.1'
p1462
asbasbasbag49
(g65
g51
NtRp1463
(dp1464
g54
(dp1465
sg63
g778
sg56
(lp1466
g49
(g70
g51
NtRp1467
(dp1468
g54
(dp1469
g74
g75
ssg63
g1463
sg56
(lp1470
S'server_software'
p1471
asbag49
(g70
g51
NtRp1472
(dp1473
g54
(dp1474
g81
g82
ssg63
g1463
sg56
(lp1475
S':'
asbag49
(g70
g51
NtRp1476
(dp1477
g54
(dp1478
sg63
g1463
sg56
(lp1479
g49
(g50
g51
NtRp1480
(dp1481
g54
(dp1482
g62
I4
ssg63
g1476
sg56
(lp1483
S'Rocket 1.2.6'
p1484
asbasbasbag49
(g65
g51
NtRp1485
(dp1486
g54
(dp1487
sg63
g778
sg56
(lp1488
g49
(g70
g51
NtRp1489
(dp1490
g54
(dp1491
g74
g75
ssg63
g1485
sg56
(lp1492
S'web2py_path'
p1493
asbag49
(g70
g51
NtRp1494
(dp1495
g54
(dp1496
g81
g82
ssg63
g1485
sg56
(lp1497
S':'
asbag49
(g70
g51
NtRp1498
(dp1499
g54
(dp1500
sg63
g1485
sg56
(lp1501
g49
(g50
g51
NtRp1502
(dp1503
g54
(dp1504
g62
I4
ssg63
g1498
sg56
(lp1505
g825
asbasbasbag49
(g65
g51
NtRp1506
(dp1507
g54
(dp1508
sg63
g778
sg56
(lp1509
g49
(g70
g51
NtRp1510
(dp1511
g54
(dp1512
g74
g75
ssg63
g1506
sg56
(lp1513
S'web2py_version'
p1514
asbag49
(g70
g51
NtRp1515
(dp1516
g54
(dp1517
g81
g82
ssg63
g1506
sg56
(lp1518
S':'
asbag49
(g70
g51
NtRp1519
(dp1520
g54
(dp1521
sg63
g1506
sg56
(lp1522
g49
(g50
g51
NtRp1523
(dp1524
g54
(dp1525
g62
I4
ssg63
g1519
sg56
(lp1526
g49
(g58
g51
NtRp1527
(dp1528
g54
(dp1529
g62
I3
ssg63
Nsg56
(lp1530
g49
(g65
g51
NtRp1531
(dp1532
g54
(dp1533
sg63
g1527
sg56
(lp1534
g49
(g70
g51
NtRp1535
(dp1536
g54
(dp1537
sg63
g1531
sg56
(lp1538
g49
(g50
g51
NtRp1539
(dp1540
g54
(dp1541
g62
I3
ssg63
g1535
sg56
(lp1542
S'2'
asbasbasbag49
(g65
g51
NtRp1543
(dp1544
g54
(dp1545
sg63
g1527
sg56
(lp1546
g49
(g70
g51
NtRp1547
(dp1548
g54
(dp1549
sg63
g1543
sg56
(lp1550
g49
(g50
g51
NtRp1551
(dp1552
g54
(dp1553
g62
I3
ssg63
g1547
sg56
(lp1554
S'4'
asbasbasbag49
(g65
g51
NtRp1555
(dp1556
g54
(dp1557
sg63
g1527
sg56
(lp1558
g49
(g70
g51
NtRp1559
(dp1560
g54
(dp1561
sg63
g1555
sg56
(lp1562
g49
(g50
g51
NtRp1563
(dp1564
g54
(dp1565
g62
I3
ssg63
g1559
sg56
(lp1566
S'5'
asbasbasbag49
(g65
g51
NtRp1567
(dp1568
g54
(dp1569
sg63
g1527
sg56
(lp1570
g49
(g70
g51
NtRp1571
(dp1572
g54
(dp1573
sg63
g1567
sg56
(lp1574
g49
(g50
g51
NtRp1575
(dp1576
g54
(dp1577
g62
I3
ssg63
g1571
sg56
(lp1578
S'stable'
p1579
asbasbasbag49
(g65
g51
NtRp1580
(dp1581
g54
(dp1582
sg63
g1527
sg56
(lp1583
g49
(g70
g51
NtRp1584
(dp1585
g54
(dp1586
sg63
g1580
sg56
(lp1587
g49
(g50
g51
NtRp1588
(dp1589
g54
(dp1590
g62
I3
ssg63
g1584
sg56
(lp1591
S'datetime.datetime(2013, 3, 18, 22, 46, 22)'
p1592
asbasbasbasbasbasbasbag49
(g65
g51
NtRp1593
(dp1594
g54
(dp1595
sg63
g778
sg56
(lp1596
g49
(g70
g51
NtRp1597
(dp1598
g54
(dp1599
g74
g75
ssg63
g1593
sg56
(lp1600
S'wsgi_errors'
p1601
asbag49
(g70
g51
NtRp1602
(dp1603
g54
(dp1604
g81
g82
ssg63
g1593
sg56
(lp1605
S':'
asbag49
(g70
g51
NtRp1606
(dp1607
g54
(dp1608
sg63
g1593
sg56
(lp1609
g49
(g50
g51
NtRp1610
(dp1611
g54
(dp1612
g62
I4
ssg63
g1606
sg56
(lp1613
S"<open file '<stderr>', mode 'w' at 0x660b0>"
p1614
asbasbasbag49
(g65
g51
NtRp1615
(dp1616
g54
(dp1617
sg63
g778
sg56
(lp1618
g49
(g70
g51
NtRp1619
(dp1620
g54
(dp1621
g74
g75
ssg63
g1615
sg56
(lp1622
S'wsgi_file_wrapper'
p1623
asbag49
(g70
g51
NtRp1624
(dp1625
g54
(dp1626
g81
g82
ssg63
g1615
sg56
(lp1627
S':'
asbag49
(g70
g51
NtRp1628
(dp1629
g54
(dp1630
sg63
g1615
sg56
(lp1631
g49
(g50
g51
NtRp1632
(dp1633
g54
(dp1634
g62
I4
ssg63
g1628
sg56
(lp1635
S'<class wsgiref.util.FileWrapper at 0x452d060>'
p1636
asbasbasbag49
(g65
g51
NtRp1637
(dp1638
g54
(dp1639
sg63
g778
sg56
(lp1640
g49
(g70
g51
NtRp1641
(dp1642
g54
(dp1643
g74
g75
ssg63
g1637
sg56
(lp1644
S'wsgi_input'
p1645
asbag49
(g70
g51
NtRp1646
(dp1647
g54
(dp1648
g81
g82
ssg63
g1637
sg56
(lp1649
S':'
asbag49
(g70
g51
NtRp1650
(dp1651
g54
(dp1652
sg63
g1637
sg56
(lp1653
g49
(g50
g51
NtRp1654
(dp1655
g54
(dp1656
g62
I4
ssg63
g1650
sg56
(lp1657
S'<socket._fileobject object at 0x8fcb1b0>'
p1658
asbasbasbag49
(g65
g51
NtRp1659
(dp1660
g54
(dp1661
sg63
g778
sg56
(lp1662
g49
(g70
g51
NtRp1663
(dp1664
g54
(dp1665
g74
g75
ssg63
g1659
sg56
(lp1666
S'wsgi_multiprocess'
p1667
asbag49
(g70
g51
NtRp1668
(dp1669
g54
(dp1670
g81
g82
ssg63
g1659
sg56
(lp1671
S':'
asbag49
(g70
g51
NtRp1672
(dp1673
g54
(dp1674
sg63
g1659
sg56
(lp1675
g49
(g50
g51
NtRp1676
(dp1677
g54
(dp1678
g62
I4
ssg63
g1672
sg56
(lp1679
g92
asbasbasbag49
(g65
g51
NtRp1680
(dp1681
g54
(dp1682
sg63
g778
sg56
(lp1683
g49
(g70
g51
NtRp1684
(dp1685
g54
(dp1686
g74
g75
ssg63
g1680
sg56
(lp1687
S'wsgi_multithread'
p1688
asbag49
(g70
g51
NtRp1689
(dp1690
g54
(dp1691
g81
g82
ssg63
g1680
sg56
(lp1692
S':'
asbag49
(g70
g51
NtRp1693
(dp1694
g54
(dp1695
sg63
g1680
sg56
(lp1696
g49
(g50
g51
NtRp1697
(dp1698
g54
(dp1699
g62
I4
ssg63
g1693
sg56
(lp1700
g916
asbasbasbag49
(g65
g51
NtRp1701
(dp1702
g54
(dp1703
sg63
g778
sg56
(lp1704
g49
(g70
g51
NtRp1705
(dp1706
g54
(dp1707
g74
g75
ssg63
g1701
sg56
(lp1708
S'wsgi_run_once'
p1709
asbag49
(g70
g51
NtRp1710
(dp1711
g54
(dp1712
g81
g82
ssg63
g1701
sg56
(lp1713
S':'
asbag49
(g70
g51
NtRp1714
(dp1715
g54
(dp1716
sg63
g1701
sg56
(lp1717
g49
(g50
g51
NtRp1718
(dp1719
g54
(dp1720
g62
I4
ssg63
g1714
sg56
(lp1721
g92
asbasbasbag49
(g65
g51
NtRp1722
(dp1723
g54
(dp1724
sg63
g778
sg56
(lp1725
g49
(g70
g51
NtRp1726
(dp1727
g54
(dp1728
g74
g75
ssg63
g1722
sg56
(lp1729
S'wsgi_url_scheme'
p1730
asbag49
(g70
g51
NtRp1731
(dp1732
g54
(dp1733
g81
g82
ssg63
g1722
sg56
(lp1734
S':'
asbag49
(g70
g51
NtRp1735
(dp1736
g54
(dp1737
sg63
g1722
sg56
(lp1738
g49
(g50
g51
NtRp1739
(dp1740
g54
(dp1741
g62
I4
ssg63
g1735
sg56
(lp1742
S'http'
p1743
asbasbasbag49
(g65
g51
NtRp1744
(dp1745
g54
(dp1746
sg63
g778
sg56
(lp1747
g49
(g70
g51
NtRp1748
(dp1749
g54
(dp1750
g74
g75
ssg63
g1744
sg56
(lp1751
S'wsgi_version'
p1752
asbag49
(g70
g51
NtRp1753
(dp1754
g54
(dp1755
g81
g82
ssg63
g1744
sg56
(lp1756
S':'
asbag49
(g70
g51
NtRp1757
(dp1758
g54
(dp1759
sg63
g1744
sg56
(lp1760
g49
(g50
g51
NtRp1761
(dp1762
g54
(dp1763
g62
I4
ssg63
g1757
sg56
(lp1764
g49
(g58
g51
NtRp1765
(dp1766
g54
(dp1767
g62
I3
ssg63
Nsg56
(lp1768
g49
(g65
g51
NtRp1769
(dp1770
g54
(dp1771
sg63
g1765
sg56
(lp1772
g49
(g70
g51
NtRp1773
(dp1774
g54
(dp1775
sg63
g1769
sg56
(lp1776
g49
(g50
g51
NtRp1777
(dp1778
g54
(dp1779
g62
I3
ssg63
g1773
sg56
(lp1780
S'1'
asbasbasbag49
(g65
g51
NtRp1781
(dp1782
g54
(dp1783
sg63
g1765
sg56
(lp1784
g49
(g70
g51
NtRp1785
(dp1786
g54
(dp1787
sg63
g1781
sg56
(lp1788
g49
(g50
g51
NtRp1789
(dp1790
g54
(dp1791
g62
I3
ssg63
g1785
sg56
(lp1792
S'0'
asbasbasbasbasbasbasbasbasbasbasbag49
(g65
g51
NtRp1793
(dp1794
g54
(dp1795
sg63
g59
sg56
(lp1796
g49
(g70
g51
NtRp1797
(dp1798
g54
(dp1799
g74
g75
ssg63
g1793
sg56
(lp1800
S'extension'
p1801
asbag49
(g70
g51
NtRp1802
(dp1803
g54
(dp1804
g81
g82
ssg63
g1793
sg56
(lp1805
S':'
asbag49
(g70
g51
NtRp1806
(dp1807
g54
(dp1808
sg63
g1793
sg56
(lp1809
g49
(g50
g51
NtRp1810
(dp1811
g54
(dp1812
g62
I5
ssg63
g1806
sg56
(lp1813
S'html'
p1814
asbasbasbag49
(g65
g51
NtRp1815
(dp1816
g54
(dp1817
sg63
g59
sg56
(lp1818
g49
(g70
g51
NtRp1819
(dp1820
g54
(dp1821
g74
g75
ssg63
g1815
sg56
(lp1822
S'folder'
p1823
asbag49
(g70
g51
NtRp1824
(dp1825
g54
(dp1826
g81
g82
ssg63
g1815
sg56
(lp1827
S':'
asbag49
(g70
g51
NtRp1828
(dp1829
g54
(dp1830
sg63
g1815
sg56
(lp1831
g49
(g50
g51
NtRp1832
(dp1833
g54
(dp1834
g62
I5
ssg63
g1828
sg56
(lp1835
S'/Applications/web2py.app/Contents/Resources/applications/MR/'
p1836
asbasbasbag49
(g65
g51
NtRp1837
(dp1838
g54
(dp1839
sg63
g59
sg56
(lp1840
g49
(g70
g51
NtRp1841
(dp1842
g54
(dp1843
g74
g75
ssg63
g1837
sg56
(lp1844
S'function'
p1845
asbag49
(g70
g51
NtRp1846
(dp1847
g54
(dp1848
g81
g82
ssg63
g1837
sg56
(lp1849
S':'
asbag49
(g70
g51
NtRp1850
(dp1851
g54
(dp1852
sg63
g1837
sg56
(lp1853
g49
(g50
g51
NtRp1854
(dp1855
g54
(dp1856
g62
I5
ssg63
g1850
sg56
(lp1857
S'mobile_user_register'
p1858
asbasbasbag49
(g65
g51
NtRp1859
(dp1860
g54
(dp1861
sg63
g59
sg56
(lp1862
g49
(g70
g51
NtRp1863
(dp1864
g54
(dp1865
g74
g75
ssg63
g1859
sg56
(lp1866
S'get_vars'
p1867
asbag49
(g70
g51
NtRp1868
(dp1869
g54
(dp1870
g81
g82
ssg63
g1859
sg56
(lp1871
S':'
asbag49
(g70
g51
NtRp1872
(dp1873
g54
(dp1874
sg63
g1859
sg56
(lp1875
g49
(g50
g51
NtRp1876
(dp1877
g54
(dp1878
g62
I5
ssg63
g1872
sg56
(lp1879
g49
(g58
g51
NtRp1880
(dp1881
g54
(dp1882
g62
I4
ssg63
Nsg56
(lp1883
sbasbasbasbag49
(g65
g51
NtRp1884
(dp1885
g54
(dp1886
sg63
g59
sg56
(lp1887
g49
(g70
g51
NtRp1888
(dp1889
g54
(dp1890
g74
g75
ssg63
g1884
sg56
(lp1891
S'global_settings'
p1892
asbag49
(g70
g51
NtRp1893
(dp1894
g54
(dp1895
g81
g82
ssg63
g1884
sg56
(lp1896
S':'
asbag49
(g70
g51
NtRp1897
(dp1898
g54
(dp1899
sg63
g1884
sg56
(lp1900
g49
(g50
g51
NtRp1901
(dp1902
g54
(dp1903
g62
I5
ssg63
g1897
sg56
(lp1904
g49
(g58
g51
NtRp1905
(dp1906
g54
(dp1907
g62
I4
ssg63
Nsg56
(lp1908
g49
(g65
g51
NtRp1909
(dp1910
g54
(dp1911
sg63
g1905
sg56
(lp1912
g49
(g70
g51
NtRp1913
(dp1914
g54
(dp1915
g74
g75
ssg63
g1909
sg56
(lp1916
g790
asbag49
(g70
g51
NtRp1917
(dp1918
g54
(dp1919
g81
g82
ssg63
g1909
sg56
(lp1920
S':'
asbag49
(g70
g51
NtRp1921
(dp1922
g54
(dp1923
sg63
g1909
sg56
(lp1924
g49
(g50
g51
NtRp1925
(dp1926
g54
(dp1927
g62
I4
ssg63
g1921
sg56
(lp1928
S"set(['/Applications/web2py.app/Contents/Resources/applications/admin/', '/Applications/web2py.app/Contents/Resources/applications/welcome/', '/Applications/web2py.app/Contents/Resources/applications/MR/'])"
p1929
asbasbasbag49
(g65
g51
NtRp1930
(dp1931
g54
(dp1932
sg63
g1905
sg56
(lp1933
g49
(g70
g51
NtRp1934
(dp1935
g54
(dp1936
g74
g75
ssg63
g1930
sg56
(lp1937
g812
asbag49
(g70
g51
NtRp1938
(dp1939
g54
(dp1940
g81
g82
ssg63
g1930
sg56
(lp1941
S':'
asbag49
(g70
g51
NtRp1942
(dp1943
g54
(dp1944
sg63
g1930
sg56
(lp1945
g49
(g50
g51
NtRp1946
(dp1947
g54
(dp1948
g62
I4
ssg63
g1942
sg56
(lp1949
g825
asbasbasbag49
(g65
g51
NtRp1950
(dp1951
g54
(dp1952
sg63
g1905
sg56
(lp1953
g49
(g70
g51
NtRp1954
(dp1955
g54
(dp1956
g74
g75
ssg63
g1950
sg56
(lp1957
g834
asbag49
(g70
g51
NtRp1958
(dp1959
g54
(dp1960
g81
g82
ssg63
g1950
sg56
(lp1961
S':'
asbag49
(g70
g51
NtRp1962
(dp1963
g54
(dp1964
sg63
g1950
sg56
(lp1965
g49
(g50
g51
NtRp1966
(dp1967
g54
(dp1968
g62
I4
ssg63
g1962
sg56
(lp1969
g49
(g58
g51
NtRp1970
(dp1971
g54
(dp1972
g62
I3
ssg63
Nsg56
(lp1973
sbasbasbasbag49
(g65
g51
NtRp1974
(dp1975
g54
(dp1976
sg63
g1905
sg56
(lp1977
g49
(g70
g51
NtRp1978
(dp1979
g54
(dp1980
g74
g75
ssg63
g1974
sg56
(lp1981
g859
asbag49
(g70
g51
NtRp1982
(dp1983
g54
(dp1984
g81
g82
ssg63
g1974
sg56
(lp1985
S':'
asbag49
(g70
g51
NtRp1986
(dp1987
g54
(dp1988
sg63
g1974
sg56
(lp1989
g49
(g50
g51
NtRp1990
(dp1991
g54
(dp1992
g62
I4
ssg63
g1986
sg56
(lp1993
S"<Values at 0x4554f58: {'verbose': False, 'ip': '127.0.0.1', 'with_scheduler': False, 'ips': ['173.250.203.67'], 'shutdown_timeout': 5, 'taskbar': False, 'port': 8000, 'maxthreads': None, 'softcron': False, 'server_name': 'd-173-250-203-67.dhcp4.washington.edu', 'bpython': False, 'nogui': False, 'pid_filename': 'httpserver.pid', 'extcron': False, 'runcron': False, 'run_system_tests': False, 'test': None, 'folder': '/Applications/web2py.app/Contents/Resources', 'config': '', 'import_models': False, 'winservice': '', 'shell': None, 'run': '', 'log_filename': 'httpserver.log', 'debuglevel': 30, 'args': [''], 'socket_timeout': 5, 'ssl_ca_certificate': None, 'scheduler': None, 'profiler_filename': None, 'ssl_private_key': '', 'scheduler_groups': None, 'password': '<ask>', 'request_queue_size': 5, 'ssl_certificate': '', 'cronjob': False, 'numthreads': None, 'quiet': False, 'interfaces': None, 'minthreads': None, 'timeout': 10, 'plain': False, 'nobanner': False}>"
p1994
asbasbasbag49
(g65
g51
NtRp1995
(dp1996
g54
(dp1997
sg63
g1905
sg56
(lp1998
g49
(g70
g51
NtRp1999
(dp2000
g54
(dp2001
g74
g75
ssg63
g1995
sg56
(lp2002
g881
asbag49
(g70
g51
NtRp2003
(dp2004
g54
(dp2005
g81
g82
ssg63
g1995
sg56
(lp2006
S':'
asbag49
(g70
g51
NtRp2007
(dp2008
g54
(dp2009
sg63
g1995
sg56
(lp2010
g49
(g50
g51
NtRp2011
(dp2012
g54
(dp2013
g62
I4
ssg63
g2007
sg56
(lp2014
S'set([])'
p2015
asbasbasbag49
(g65
g51
NtRp2016
(dp2017
g54
(dp2018
sg63
g1905
sg56
(lp2019
g49
(g70
g51
NtRp2020
(dp2021
g54
(dp2022
g74
g75
ssg63
g2016
sg56
(lp2023
g903
asbag49
(g70
g51
NtRp2024
(dp2025
g54
(dp2026
g81
g82
ssg63
g2016
sg56
(lp2027
S':'
asbag49
(g70
g51
NtRp2028
(dp2029
g54
(dp2030
sg63
g2016
sg56
(lp2031
g49
(g50
g51
NtRp2032
(dp2033
g54
(dp2034
g62
I4
ssg63
g2028
sg56
(lp2035
g916
asbasbasbag49
(g65
g51
NtRp2036
(dp2037
g54
(dp2038
sg63
g1905
sg56
(lp2039
g49
(g70
g51
NtRp2040
(dp2041
g54
(dp2042
g74
g75
ssg63
g2036
sg56
(lp2043
g925
asbag49
(g70
g51
NtRp2044
(dp2045
g54
(dp2046
g81
g82
ssg63
g2036
sg56
(lp2047
S':'
asbag49
(g70
g51
NtRp2048
(dp2049
g54
(dp2050
sg63
g2036
sg56
(lp2051
g49
(g50
g51
NtRp2052
(dp2053
g54
(dp2054
g62
I4
ssg63
g2048
sg56
(lp2055
g938
asbasbasbag49
(g65
g51
NtRp2056
(dp2057
g54
(dp2058
sg63
g1905
sg56
(lp2059
g49
(g70
g51
NtRp2060
(dp2061
g54
(dp2062
g74
g75
ssg63
g2056
sg56
(lp2063
g1123
asbag49
(g70
g51
NtRp2064
(dp2065
g54
(dp2066
g81
g82
ssg63
g2056
sg56
(lp2067
S':'
asbag49
(g70
g51
NtRp2068
(dp2069
g54
(dp2070
sg63
g2056
sg56
(lp2071
g49
(g50
g51
NtRp2072
(dp2073
g54
(dp2074
g62
I4
ssg63
g2068
sg56
(lp2075
g92
asbasbasbag49
(g65
g51
NtRp2076
(dp2077
g54
(dp2078
sg63
g1905
sg56
(lp2079
g49
(g70
g51
NtRp2080
(dp2081
g54
(dp2082
g74
g75
ssg63
g2076
sg56
(lp2083
g1144
asbag49
(g70
g51
NtRp2084
(dp2085
g54
(dp2086
g81
g82
ssg63
g2076
sg56
(lp2087
S':'
asbag49
(g70
g51
NtRp2088
(dp2089
g54
(dp2090
sg63
g2076
sg56
(lp2091
g49
(g50
g51
NtRp2092
(dp2093
g54
(dp2094
g62
I4
ssg63
g2088
sg56
(lp2095
g92
asbasbasbag49
(g65
g51
NtRp2096
(dp2097
g54
(dp2098
sg63
g1905
sg56
(lp2099
g49
(g70
g51
NtRp2100
(dp2101
g54
(dp2102
g74
g75
ssg63
g2096
sg56
(lp2103
g1165
asbag49
(g70
g51
NtRp2104
(dp2105
g54
(dp2106
g81
g82
ssg63
g2096
sg56
(lp2107
S':'
asbag49
(g70
g51
NtRp2108
(dp2109
g54
(dp2110
sg63
g2096
sg56
(lp2111
g49
(g50
g51
NtRp2112
(dp2113
g54
(dp2114
g62
I4
ssg63
g2108
sg56
(lp2115
g49
(g58
g51
NtRp2116
(dp2117
g54
(dp2118
g62
I3
ssg63
Nsg56
(lp2119
g49
(g65
g51
NtRp2120
(dp2121
g54
(dp2122
sg63
g2116
sg56
(lp2123
g49
(g70
g51
NtRp2124
(dp2125
g54
(dp2126
sg63
g2120
sg56
(lp2127
g49
(g50
g51
NtRp2128
(dp2129
g54
(dp2130
g62
I3
ssg63
g2124
sg56
(lp2131
g1194
asbasbasbag49
(g65
g51
NtRp2132
(dp2133
g54
(dp2134
sg63
g2116
sg56
(lp2135
g49
(g70
g51
NtRp2136
(dp2137
g54
(dp2138
sg63
g2132
sg56
(lp2139
g49
(g50
g51
NtRp2140
(dp2141
g54
(dp2142
g62
I3
ssg63
g2136
sg56
(lp2143
g1207
asbasbasbag49
(g65
g51
NtRp2144
(dp2145
g54
(dp2146
sg63
g2116
sg56
(lp2147
g49
(g70
g51
NtRp2148
(dp2149
g54
(dp2150
sg63
g2144
sg56
(lp2151
g49
(g50
g51
NtRp2152
(dp2153
g54
(dp2154
g62
I3
ssg63
g2148
sg56
(lp2155
g1220
asbasbasbag49
(g65
g51
NtRp2156
(dp2157
g54
(dp2158
sg63
g2116
sg56
(lp2159
g49
(g70
g51
NtRp2160
(dp2161
g54
(dp2162
sg63
g2156
sg56
(lp2163
g49
(g50
g51
NtRp2164
(dp2165
g54
(dp2166
g62
I3
ssg63
g2160
sg56
(lp2167
g1233
asbasbasbag49
(g65
g51
NtRp2168
(dp2169
g54
(dp2170
sg63
g2116
sg56
(lp2171
g49
(g70
g51
NtRp2172
(dp2173
g54
(dp2174
sg63
g2168
sg56
(lp2175
g49
(g50
g51
NtRp2176
(dp2177
g54
(dp2178
g62
I3
ssg63
g2172
sg56
(lp2179
g1246
asbasbasbasbasbasbasbag49
(g65
g51
NtRp2180
(dp2181
g54
(dp2182
sg63
g1905
sg56
(lp2183
g49
(g70
g51
NtRp2184
(dp2185
g54
(dp2186
g74
g75
ssg63
g2180
sg56
(lp2187
g1514
asbag49
(g70
g51
NtRp2188
(dp2189
g54
(dp2190
g81
g82
ssg63
g2180
sg56
(lp2191
S':'
asbag49
(g70
g51
NtRp2192
(dp2193
g54
(dp2194
sg63
g2180
sg56
(lp2195
g49
(g50
g51
NtRp2196
(dp2197
g54
(dp2198
g62
I4
ssg63
g2192
sg56
(lp2199
g49
(g58
g51
NtRp2200
(dp2201
g54
(dp2202
g62
I3
ssg63
Nsg56
(lp2203
g49
(g65
g51
NtRp2204
(dp2205
g54
(dp2206
sg63
g2200
sg56
(lp2207
g49
(g70
g51
NtRp2208
(dp2209
g54
(dp2210
sg63
g2204
sg56
(lp2211
g49
(g50
g51
NtRp2212
(dp2213
g54
(dp2214
g62
I3
ssg63
g2208
sg56
(lp2215
S'2'
asbasbasbag49
(g65
g51
NtRp2216
(dp2217
g54
(dp2218
sg63
g2200
sg56
(lp2219
g49
(g70
g51
NtRp2220
(dp2221
g54
(dp2222
sg63
g2216
sg56
(lp2223
g49
(g50
g51
NtRp2224
(dp2225
g54
(dp2226
g62
I3
ssg63
g2220
sg56
(lp2227
S'4'
asbasbasbag49
(g65
g51
NtRp2228
(dp2229
g54
(dp2230
sg63
g2200
sg56
(lp2231
g49
(g70
g51
NtRp2232
(dp2233
g54
(dp2234
sg63
g2228
sg56
(lp2235
g49
(g50
g51
NtRp2236
(dp2237
g54
(dp2238
g62
I3
ssg63
g2232
sg56
(lp2239
S'5'
asbasbasbag49
(g65
g51
NtRp2240
(dp2241
g54
(dp2242
sg63
g2200
sg56
(lp2243
g49
(g70
g51
NtRp2244
(dp2245
g54
(dp2246
sg63
g2240
sg56
(lp2247
g49
(g50
g51
NtRp2248
(dp2249
g54
(dp2250
g62
I3
ssg63
g2244
sg56
(lp2251
g1579
asbasbasbag49
(g65
g51
NtRp2252
(dp2253
g54
(dp2254
sg63
g2200
sg56
(lp2255
g49
(g70
g51
NtRp2256
(dp2257
g54
(dp2258
sg63
g2252
sg56
(lp2259
g49
(g50
g51
NtRp2260
(dp2261
g54
(dp2262
g62
I3
ssg63
g2256
sg56
(lp2263
S'datetime.datetime(2013, 3, 18, 22, 46, 22)'
p2264
asbasbasbasbasbasbasbasbasbasbasbag49
(g65
g51
NtRp2265
(dp2266
g54
(dp2267
sg63
g59
sg56
(lp2268
g49
(g70
g51
NtRp2269
(dp2270
g54
(dp2271
g74
g75
ssg63
g2265
sg56
(lp2272
S'is_https'
p2273
asbag49
(g70
g51
NtRp2274
(dp2275
g54
(dp2276
g81
g82
ssg63
g2265
sg56
(lp2277
S':'
asbag49
(g70
g51
NtRp2278
(dp2279
g54
(dp2280
sg63
g2265
sg56
(lp2281
g49
(g50
g51
NtRp2282
(dp2283
g54
(dp2284
g62
I5
ssg63
g2278
sg56
(lp2285
g92
asbasbasbag49
(g65
g51
NtRp2286
(dp2287
g54
(dp2288
sg63
g59
sg56
(lp2289
g49
(g70
g51
NtRp2290
(dp2291
g54
(dp2292
g74
g75
ssg63
g2286
sg56
(lp2293
S'is_local'
p2294
asbag49
(g70
g51
NtRp2295
(dp2296
g54
(dp2297
g81
g82
ssg63
g2286
sg56
(lp2298
S':'
asbag49
(g70
g51
NtRp2299
(dp2300
g54
(dp2301
sg63
g2286
sg56
(lp2302
g49
(g50
g51
NtRp2303
(dp2304
g54
(dp2305
g62
I5
ssg63
g2299
sg56
(lp2306
g916
asbasbasbag49
(g65
g51
NtRp2307
(dp2308
g54
(dp2309
sg63
g59
sg56
(lp2310
g49
(g70
g51
NtRp2311
(dp2312
g54
(dp2313
g74
g75
ssg63
g2307
sg56
(lp2314
S'is_restful'
p2315
asbag49
(g70
g51
NtRp2316
(dp2317
g54
(dp2318
g81
g82
ssg63
g2307
sg56
(lp2319
S':'
asbag49
(g70
g51
NtRp2320
(dp2321
g54
(dp2322
sg63
g2307
sg56
(lp2323
g49
(g50
g51
NtRp2324
(dp2325
g54
(dp2326
g62
I5
ssg63
g2320
sg56
(lp2327
g92
asbasbasbag49
(g65
g51
NtRp2328
(dp2329
g54
(dp2330
sg63
g59
sg56
(lp2331
g49
(g70
g51
NtRp2332
(dp2333
g54
(dp2334
g74
g75
ssg63
g2328
sg56
(lp2335
S'now'
p2336
asbag49
(g70
g51
NtRp2337
(dp2338
g54
(dp2339
g81
g82
ssg63
g2328
sg56
(lp2340
S':'
asbag49
(g70
g51
NtRp2341
(dp2342
g54
(dp2343
sg63
g2328
sg56
(lp2344
g49
(g50
g51
NtRp2345
(dp2346
g54
(dp2347
g62
I5
ssg63
g2341
sg56
(lp2348
S'datetime.datetime(2013, 4, 15, 17, 35, 7, 630528)'
p2349
asbasbasbag49
(g65
g51
NtRp2350
(dp2351
g54
(dp2352
sg63
g59
sg56
(lp2353
g49
(g70
g51
NtRp2354
(dp2355
g54
(dp2356
g74
g75
ssg63
g2350
sg56
(lp2357
S'post_vars'
p2358
asbag49
(g70
g51
NtRp2359
(dp2360
g54
(dp2361
g81
g82
ssg63
g2350
sg56
(lp2362
S':'
asbag49
(g70
g51
NtRp2363
(dp2364
g54
(dp2365
sg63
g2350
sg56
(lp2366
g49
(g50
g51
NtRp2367
(dp2368
g54
(dp2369
g62
I5
ssg63
g2363
sg56
(lp2370
g49
(g58
g51
NtRp2371
(dp2372
g54
(dp2373
g62
I4
ssg63
Nsg56
(lp2374
sbasbasbasbag49
(g65
g51
NtRp2375
(dp2376
g54
(dp2377
sg63
g59
sg56
(lp2378
g49
(g70
g51
NtRp2379
(dp2380
g54
(dp2381
g74
g75
ssg63
g2375
sg56
(lp2382
S'raw_args'
p2383
asbag49
(g70
g51
NtRp2384
(dp2385
g54
(dp2386
g81
g82
ssg63
g2375
sg56
(lp2387
S':'
asbag49
(g70
g51
NtRp2388
(dp2389
g54
(dp2390
sg63
g2375
sg56
(lp2391
g49
(g50
g51
NtRp2392
(dp2393
g54
(dp2394
g62
I5
ssg63
g2388
sg56
(lp2395
S''
asbasbasbag49
(g65
g51
NtRp2396
(dp2397
g54
(dp2398
sg63
g59
sg56
(lp2399
g49
(g70
g51
NtRp2400
(dp2401
g54
(dp2402
g74
g75
ssg63
g2396
sg56
(lp2403
S'raw_extension'
p2404
asbag49
(g70
g51
NtRp2405
(dp2406
g54
(dp2407
g81
g82
ssg63
g2396
sg56
(lp2408
S':'
asbag49
(g70
g51
NtRp2409
(dp2410
g54
(dp2411
sg63
g2396
sg56
(lp2412
g49
(g50
g51
NtRp2413
(dp2414
g54
(dp2415
g62
I5
ssg63
g2409
sg56
(lp2416
S'None'
p2417
asbasbasbag49
(g65
g51
NtRp2418
(dp2419
g54
(dp2420
sg63
g59
sg56
(lp2421
g49
(g70
g51
NtRp2422
(dp2423
g54
(dp2424
g74
g75
ssg63
g2418
sg56
(lp2425
S'url'
p2426
asbag49
(g70
g51
NtRp2427
(dp2428
g54
(dp2429
g81
g82
ssg63
g2418
sg56
(lp2430
S':'
asbag49
(g70
g51
NtRp2431
(dp2432
g54
(dp2433
sg63
g2418
sg56
(lp2434
g49
(g50
g51
NtRp2435
(dp2436
g54
(dp2437
g62
I5
ssg63
g2431
sg56
(lp2438
g1268
asbasbasbag49
(g65
g51
NtRp2439
(dp2440
g54
(dp2441
sg63
g59
sg56
(lp2442
g49
(g70
g51
NtRp2443
(dp2444
g54
(dp2445
g74
g75
ssg63
g2439
sg56
(lp2446
S'utcnow'
p2447
asbag49
(g70
g51
NtRp2448
(dp2449
g54
(dp2450
g81
g82
ssg63
g2439
sg56
(lp2451
S':'
asbag49
(g70
g51
NtRp2452
(dp2453
g54
(dp2454
sg63
g2439
sg56
(lp2455
g49
(g50
g51
NtRp2456
(dp2457
g54
(dp2458
g62
I5
ssg63
g2452
sg56
(lp2459
S'datetime.datetime(2013, 4, 16, 0, 35, 7, 630539)'
p2460
asbasbasbag49
(g65
g51
NtRp2461
(dp2462
g54
(dp2463
sg63
g59
sg56
(lp2464
g49
(g70
g51
NtRp2465
(dp2466
g54
(dp2467
g74
g75
ssg63
g2461
sg56
(lp2468
S'uuid'
p2469
asbag49
(g70
g51
NtRp2470
(dp2471
g54
(dp2472
g81
g82
ssg63
g2461
sg56
(lp2473
S':'
asbag49
(g70
g51
NtRp2474
(dp2475
g54
(dp2476
sg63
g2461
sg56
(lp2477
g49
(g50
g51
NtRp2478
(dp2479
g54
(dp2480
g62
I5
ssg63
g2474
sg56
(lp2481
S'MR/127.0.0.1.2013-04-15.17-35-07.93cbdf1f-c175-48f8-91cf-a591046befe2'
p2482
asbasbasbag49
(g65
g51
NtRp2483
(dp2484
g54
(dp2485
sg63
g59
sg56
(lp2486
g49
(g70
g51
NtRp2487
(dp2488
g54
(dp2489
g74
g75
ssg63
g2483
sg56
(lp2490
S'vars'
p2491
asbag49
(g70
g51
NtRp2492
(dp2493
g54
(dp2494
g81
g82
ssg63
g2483
sg56
(lp2495
S':'
asbag49
(g70
g51
NtRp2496
(dp2497
g54
(dp2498
sg63
g2483
sg56
(lp2499
g49
(g50
g51
NtRp2500
(dp2501
g54
(dp2502
g62
I5
ssg63
g2496
sg56
(lp2503
g49
(g58
g51
NtRp2504
(dp2505
g54
(dp2506
g62
I4
ssg63
Nsg56
(lp2507
sbasbasbasbag49
(g65
g51
NtRp2508
(dp2509
g54
(dp2510
sg63
g59
sg56
(lp2511
g49
(g70
g51
NtRp2512
(dp2513
g54
(dp2514
g74
g75
ssg63
g2508
sg56
(lp2515
S'wsgi'
p2516
asbag49
(g70
g51
NtRp2517
(dp2518
g54
(dp2519
g81
g82
ssg63
g2508
sg56
(lp2520
S':'
asbag49
(g70
g51
NtRp2521
(dp2522
g54
(dp2523
sg63
g2508
sg56
(lp2524
g49
(g50
g51
NtRp2525
(dp2526
g54
(dp2527
g62
I5
ssg63
g2521
sg56
(lp2528
g49
(g58
g51
NtRp2529
(dp2530
g54
(dp2531
g62
I4
ssg63
Nsg56
(lp2532
g49
(g65
g51
NtRp2533
(dp2534
g54
(dp2535
sg63
g2529
sg56
(lp2536
g49
(g70
g51
NtRp2537
(dp2538
g54
(dp2539
g74
g75
ssg63
g2533
sg56
(lp2540
S'environ'
p2541
asbag49
(g70
g51
NtRp2542
(dp2543
g54
(dp2544
g81
g82
ssg63
g2533
sg56
(lp2545
S':'
asbag49
(g70
g51
NtRp2546
(dp2547
g54
(dp2548
sg63
g2533
sg56
(lp2549
g49
(g50
g51
NtRp2550
(dp2551
g54
(dp2552
g62
I4
ssg63
g2546
sg56
(lp2553
g49
(g58
g51
NtRp2554
(dp2555
g54
(dp2556
g62
I3
ssg63
Nsg56
(lp2557
g49
(g65
g51
NtRp2558
(dp2559
g54
(dp2560
sg63
g2554
sg56
(lp2561
g49
(g70
g51
NtRp2562
(dp2563
g54
(dp2564
g74
g75
ssg63
g2558
sg56
(lp2565
S'HTTP_ACCEPT'
p2566
asbag49
(g70
g51
NtRp2567
(dp2568
g54
(dp2569
g81
g82
ssg63
g2558
sg56
(lp2570
S':'
asbag49
(g70
g51
NtRp2571
(dp2572
g54
(dp2573
sg63
g2558
sg56
(lp2574
g49
(g50
g51
NtRp2575
(dp2576
g54
(dp2577
g62
I3
ssg63
g2571
sg56
(lp2578
g960
asbasbasbag49
(g65
g51
NtRp2579
(dp2580
g54
(dp2581
sg63
g2554
sg56
(lp2582
g49
(g70
g51
NtRp2583
(dp2584
g54
(dp2585
g74
g75
ssg63
g2579
sg56
(lp2586
S'HTTP_ACCEPT_CHARSET'
p2587
asbag49
(g70
g51
NtRp2588
(dp2589
g54
(dp2590
g81
g82
ssg63
g2579
sg56
(lp2591
S':'
asbag49
(g70
g51
NtRp2592
(dp2593
g54
(dp2594
sg63
g2579
sg56
(lp2595
g49
(g50
g51
NtRp2596
(dp2597
g54
(dp2598
g62
I3
ssg63
g2592
sg56
(lp2599
g982
asbasbasbag49
(g65
g51
NtRp2600
(dp2601
g54
(dp2602
sg63
g2554
sg56
(lp2603
g49
(g70
g51
NtRp2604
(dp2605
g54
(dp2606
g74
g75
ssg63
g2600
sg56
(lp2607
S'HTTP_ACCEPT_ENCODING'
p2608
asbag49
(g70
g51
NtRp2609
(dp2610
g54
(dp2611
g81
g82
ssg63
g2600
sg56
(lp2612
S':'
asbag49
(g70
g51
NtRp2613
(dp2614
g54
(dp2615
sg63
g2600
sg56
(lp2616
g49
(g50
g51
NtRp2617
(dp2618
g54
(dp2619
g62
I3
ssg63
g2613
sg56
(lp2620
g1004
asbasbasbag49
(g65
g51
NtRp2621
(dp2622
g54
(dp2623
sg63
g2554
sg56
(lp2624
g49
(g70
g51
NtRp2625
(dp2626
g54
(dp2627
g74
g75
ssg63
g2621
sg56
(lp2628
S'HTTP_ACCEPT_LANGUAGE'
p2629
asbag49
(g70
g51
NtRp2630
(dp2631
g54
(dp2632
g81
g82
ssg63
g2621
sg56
(lp2633
S':'
asbag49
(g70
g51
NtRp2634
(dp2635
g54
(dp2636
sg63
g2621
sg56
(lp2637
g49
(g50
g51
NtRp2638
(dp2639
g54
(dp2640
g62
I3
ssg63
g2634
sg56
(lp2641
g1026
asbasbasbag49
(g65
g51
NtRp2642
(dp2643
g54
(dp2644
sg63
g2554
sg56
(lp2645
g49
(g70
g51
NtRp2646
(dp2647
g54
(dp2648
g74
g75
ssg63
g2642
sg56
(lp2649
S'HTTP_CONNECTION'
p2650
asbag49
(g70
g51
NtRp2651
(dp2652
g54
(dp2653
g81
g82
ssg63
g2642
sg56
(lp2654
S':'
asbag49
(g70
g51
NtRp2655
(dp2656
g54
(dp2657
sg63
g2642
sg56
(lp2658
g49
(g50
g51
NtRp2659
(dp2660
g54
(dp2661
g62
I3
ssg63
g2655
sg56
(lp2662
g1048
asbasbasbag49
(g65
g51
NtRp2663
(dp2664
g54
(dp2665
sg63
g2554
sg56
(lp2666
g49
(g70
g51
NtRp2667
(dp2668
g54
(dp2669
g74
g75
ssg63
g2663
sg56
(lp2670
S'HTTP_COOKIE'
p2671
asbag49
(g70
g51
NtRp2672
(dp2673
g54
(dp2674
g81
g82
ssg63
g2663
sg56
(lp2675
S':'
asbag49
(g70
g51
NtRp2676
(dp2677
g54
(dp2678
sg63
g2663
sg56
(lp2679
g49
(g50
g51
NtRp2680
(dp2681
g54
(dp2682
g62
I3
ssg63
g2676
sg56
(lp2683
g1070
asbasbasbag49
(g65
g51
NtRp2684
(dp2685
g54
(dp2686
sg63
g2554
sg56
(lp2687
g49
(g70
g51
NtRp2688
(dp2689
g54
(dp2690
g74
g75
ssg63
g2684
sg56
(lp2691
S'HTTP_HOST'
p2692
asbag49
(g70
g51
NtRp2693
(dp2694
g54
(dp2695
g81
g82
ssg63
g2684
sg56
(lp2696
S':'
asbag49
(g70
g51
NtRp2697
(dp2698
g54
(dp2699
sg63
g2684
sg56
(lp2700
g49
(g50
g51
NtRp2701
(dp2702
g54
(dp2703
g62
I3
ssg63
g2697
sg56
(lp2704
g1092
asbasbasbag49
(g65
g51
NtRp2705
(dp2706
g54
(dp2707
sg63
g2554
sg56
(lp2708
g49
(g70
g51
NtRp2709
(dp2710
g54
(dp2711
g74
g75
ssg63
g2705
sg56
(lp2712
S'HTTP_USER_AGENT'
p2713
asbag49
(g70
g51
NtRp2714
(dp2715
g54
(dp2716
g81
g82
ssg63
g2705
sg56
(lp2717
S':'
asbag49
(g70
g51
NtRp2718
(dp2719
g54
(dp2720
sg63
g2705
sg56
(lp2721
g49
(g50
g51
NtRp2722
(dp2723
g54
(dp2724
g62
I3
ssg63
g2718
sg56
(lp2725
g1114
asbasbasbag49
(g65
g51
NtRp2726
(dp2727
g54
(dp2728
sg63
g2554
sg56
(lp2729
g49
(g70
g51
NtRp2730
(dp2731
g54
(dp2732
g74
g75
ssg63
g2726
sg56
(lp2733
S'PATH_INFO'
p2734
asbag49
(g70
g51
NtRp2735
(dp2736
g54
(dp2737
g81
g82
ssg63
g2726
sg56
(lp2738
S':'
asbag49
(g70
g51
NtRp2739
(dp2740
g54
(dp2741
sg63
g2726
sg56
(lp2742
g49
(g50
g51
NtRp2743
(dp2744
g54
(dp2745
g62
I3
ssg63
g2739
sg56
(lp2746
g1268
asbasbasbag49
(g65
g51
NtRp2747
(dp2748
g54
(dp2749
sg63
g2554
sg56
(lp2750
g49
(g70
g51
NtRp2751
(dp2752
g54
(dp2753
g74
g75
ssg63
g2747
sg56
(lp2754
S'QUERY_STRING'
p2755
asbag49
(g70
g51
NtRp2756
(dp2757
g54
(dp2758
g81
g82
ssg63
g2747
sg56
(lp2759
S':'
asbag49
(g70
g51
NtRp2760
(dp2761
g54
(dp2762
sg63
g2747
sg56
(lp2763
g49
(g50
g51
NtRp2764
(dp2765
g54
(dp2766
g62
I3
ssg63
g2760
sg56
(lp2767
S''
asbasbasbag49
(g65
g51
NtRp2768
(dp2769
g54
(dp2770
sg63
g2554
sg56
(lp2771
g49
(g70
g51
NtRp2772
(dp2773
g54
(dp2774
g74
g75
ssg63
g2768
sg56
(lp2775
S'REMOTE_ADDR'
p2776
asbag49
(g70
g51
NtRp2777
(dp2778
g54
(dp2779
g81
g82
ssg63
g2768
sg56
(lp2780
S':'
asbag49
(g70
g51
NtRp2781
(dp2782
g54
(dp2783
sg63
g2768
sg56
(lp2784
g49
(g50
g51
NtRp2785
(dp2786
g54
(dp2787
g62
I3
ssg63
g2781
sg56
(lp2788
g204
asbasbasbag49
(g65
g51
NtRp2789
(dp2790
g54
(dp2791
sg63
g2554
sg56
(lp2792
g49
(g70
g51
NtRp2793
(dp2794
g54
(dp2795
g74
g75
ssg63
g2789
sg56
(lp2796
S'REMOTE_PORT'
p2797
asbag49
(g70
g51
NtRp2798
(dp2799
g54
(dp2800
g81
g82
ssg63
g2789
sg56
(lp2801
S':'
asbag49
(g70
g51
NtRp2802
(dp2803
g54
(dp2804
sg63
g2789
sg56
(lp2805
g49
(g50
g51
NtRp2806
(dp2807
g54
(dp2808
g62
I3
ssg63
g2802
sg56
(lp2809
g1332
asbasbasbag49
(g65
g51
NtRp2810
(dp2811
g54
(dp2812
sg63
g2554
sg56
(lp2813
g49
(g70
g51
NtRp2814
(dp2815
g54
(dp2816
g74
g75
ssg63
g2810
sg56
(lp2817
S'REQUEST_METHOD'
p2818
asbag49
(g70
g51
NtRp2819
(dp2820
g54
(dp2821
g81
g82
ssg63
g2810
sg56
(lp2822
S':'
asbag49
(g70
g51
NtRp2823
(dp2824
g54
(dp2825
sg63
g2810
sg56
(lp2826
g49
(g50
g51
NtRp2827
(dp2828
g54
(dp2829
g62
I3
ssg63
g2823
sg56
(lp2830
g1354
asbasbasbag49
(g65
g51
NtRp2831
(dp2832
g54
(dp2833
sg63
g2554
sg56
(lp2834
g49
(g70
g51
NtRp2835
(dp2836
g54
(dp2837
g74
g75
ssg63
g2831
sg56
(lp2838
S'REQUEST_URI'
p2839
asbag49
(g70
g51
NtRp2840
(dp2841
g54
(dp2842
g81
g82
ssg63
g2831
sg56
(lp2843
S':'
asbag49
(g70
g51
NtRp2844
(dp2845
g54
(dp2846
sg63
g2831
sg56
(lp2847
g49
(g50
g51
NtRp2848
(dp2849
g54
(dp2850
g62
I3
ssg63
g2844
sg56
(lp2851
g1268
asbasbasbag49
(g65
g51
NtRp2852
(dp2853
g54
(dp2854
sg63
g2554
sg56
(lp2855
g49
(g70
g51
NtRp2856
(dp2857
g54
(dp2858
g74
g75
ssg63
g2852
sg56
(lp2859
S'SCRIPT_NAME'
p2860
asbag49
(g70
g51
NtRp2861
(dp2862
g54
(dp2863
g81
g82
ssg63
g2852
sg56
(lp2864
S':'
asbag49
(g70
g51
NtRp2865
(dp2866
g54
(dp2867
sg63
g2852
sg56
(lp2868
g49
(g50
g51
NtRp2869
(dp2870
g54
(dp2871
g62
I3
ssg63
g2865
sg56
(lp2872
S''
asbasbasbag49
(g65
g51
NtRp2873
(dp2874
g54
(dp2875
sg63
g2554
sg56
(lp2876
g49
(g70
g51
NtRp2877
(dp2878
g54
(dp2879
g74
g75
ssg63
g2873
sg56
(lp2880
S'SERVER_NAME'
p2881
asbag49
(g70
g51
NtRp2882
(dp2883
g54
(dp2884
g81
g82
ssg63
g2873
sg56
(lp2885
S':'
asbag49
(g70
g51
NtRp2886
(dp2887
g54
(dp2888
sg63
g2873
sg56
(lp2889
g49
(g50
g51
NtRp2890
(dp2891
g54
(dp2892
g62
I3
ssg63
g2886
sg56
(lp2893
g1418
asbasbasbag49
(g65
g51
NtRp2894
(dp2895
g54
(dp2896
sg63
g2554
sg56
(lp2897
g49
(g70
g51
NtRp2898
(dp2899
g54
(dp2900
g74
g75
ssg63
g2894
sg56
(lp2901
S'SERVER_PORT'
p2902
asbag49
(g70
g51
NtRp2903
(dp2904
g54
(dp2905
g81
g82
ssg63
g2894
sg56
(lp2906
S':'
asbag49
(g70
g51
NtRp2907
(dp2908
g54
(dp2909
sg63
g2894
sg56
(lp2910
g49
(g50
g51
NtRp2911
(dp2912
g54
(dp2913
g62
I3
ssg63
g2907
sg56
(lp2914
g1440
asbasbasbag49
(g65
g51
NtRp2915
(dp2916
g54
(dp2917
sg63
g2554
sg56
(lp2918
g49
(g70
g51
NtRp2919
(dp2920
g54
(dp2921
g74
g75
ssg63
g2915
sg56
(lp2922
S'SERVER_PROTOCOL'
p2923
asbag49
(g70
g51
NtRp2924
(dp2925
g54
(dp2926
g81
g82
ssg63
g2915
sg56
(lp2927
S':'
asbag49
(g70
g51
NtRp2928
(dp2929
g54
(dp2930
sg63
g2915
sg56
(lp2931
g49
(g50
g51
NtRp2932
(dp2933
g54
(dp2934
g62
I3
ssg63
g2928
sg56
(lp2935
g1462
asbasbasbag49
(g65
g51
NtRp2936
(dp2937
g54
(dp2938
sg63
g2554
sg56
(lp2939
g49
(g70
g51
NtRp2940
(dp2941
g54
(dp2942
g74
g75
ssg63
g2936
sg56
(lp2943
S'SERVER_SOFTWARE'
p2944
asbag49
(g70
g51
NtRp2945
(dp2946
g54
(dp2947
g81
g82
ssg63
g2936
sg56
(lp2948
S':'
asbag49
(g70
g51
NtRp2949
(dp2950
g54
(dp2951
sg63
g2936
sg56
(lp2952
g49
(g50
g51
NtRp2953
(dp2954
g54
(dp2955
g62
I3
ssg63
g2949
sg56
(lp2956
g1484
asbasbasbag49
(g65
g51
NtRp2957
(dp2958
g54
(dp2959
sg63
g2554
sg56
(lp2960
g49
(g70
g51
NtRp2961
(dp2962
g54
(dp2963
g74
g75
ssg63
g2957
sg56
(lp2964
S'wsgi.errors'
p2965
asbag49
(g70
g51
NtRp2966
(dp2967
g54
(dp2968
g81
g82
ssg63
g2957
sg56
(lp2969
S':'
asbag49
(g70
g51
NtRp2970
(dp2971
g54
(dp2972
sg63
g2957
sg56
(lp2973
g49
(g50
g51
NtRp2974
(dp2975
g54
(dp2976
g62
I3
ssg63
g2970
sg56
(lp2977
S"<open file '<stderr>', mode 'w' at 0x660b0>"
p2978
asbasbasbag49
(g65
g51
NtRp2979
(dp2980
g54
(dp2981
sg63
g2554
sg56
(lp2982
g49
(g70
g51
NtRp2983
(dp2984
g54
(dp2985
g74
g75
ssg63
g2979
sg56
(lp2986
S'wsgi.file_wrapper'
p2987
asbag49
(g70
g51
NtRp2988
(dp2989
g54
(dp2990
g81
g82
ssg63
g2979
sg56
(lp2991
S':'
asbag49
(g70
g51
NtRp2992
(dp2993
g54
(dp2994
sg63
g2979
sg56
(lp2995
g49
(g50
g51
NtRp2996
(dp2997
g54
(dp2998
g62
I3
ssg63
g2992
sg56
(lp2999
S'<class wsgiref.util.FileWrapper at 0x452d060>'
p3000
asbasbasbag49
(g65
g51
NtRp3001
(dp3002
g54
(dp3003
sg63
g2554
sg56
(lp3004
g49
(g70
g51
NtRp3005
(dp3006
g54
(dp3007
g74
g75
ssg63
g3001
sg56
(lp3008
S'wsgi.input'
p3009
asbag49
(g70
g51
NtRp3010
(dp3011
g54
(dp3012
g81
g82
ssg63
g3001
sg56
(lp3013
S':'
asbag49
(g70
g51
NtRp3014
(dp3015
g54
(dp3016
sg63
g3001
sg56
(lp3017
g49
(g50
g51
NtRp3018
(dp3019
g54
(dp3020
g62
I3
ssg63
g3014
sg56
(lp3021
S'<cStringIO.StringO object at 0x8eeb6e0>'
p3022
asbasbasbag49
(g65
g51
NtRp3023
(dp3024
g54
(dp3025
sg63
g2554
sg56
(lp3026
g49
(g70
g51
NtRp3027
(dp3028
g54
(dp3029
g74
g75
ssg63
g3023
sg56
(lp3030
S'wsgi.multiprocess'
p3031
asbag49
(g70
g51
NtRp3032
(dp3033
g54
(dp3034
g81
g82
ssg63
g3023
sg56
(lp3035
S':'
asbag49
(g70
g51
NtRp3036
(dp3037
g54
(dp3038
sg63
g3023
sg56
(lp3039
g49
(g50
g51
NtRp3040
(dp3041
g54
(dp3042
g62
I3
ssg63
g3036
sg56
(lp3043
g92
asbasbasbag49
(g65
g51
NtRp3044
(dp3045
g54
(dp3046
sg63
g2554
sg56
(lp3047
g49
(g70
g51
NtRp3048
(dp3049
g54
(dp3050
g74
g75
ssg63
g3044
sg56
(lp3051
S'wsgi.multithread'
p3052
asbag49
(g70
g51
NtRp3053
(dp3054
g54
(dp3055
g81
g82
ssg63
g3044
sg56
(lp3056
S':'
asbag49
(g70
g51
NtRp3057
(dp3058
g54
(dp3059
sg63
g3044
sg56
(lp3060
g49
(g50
g51
NtRp3061
(dp3062
g54
(dp3063
g62
I3
ssg63
g3057
sg56
(lp3064
g916
asbasbasbag49
(g65
g51
NtRp3065
(dp3066
g54
(dp3067
sg63
g2554
sg56
(lp3068
g49
(g70
g51
NtRp3069
(dp3070
g54
(dp3071
g74
g75
ssg63
g3065
sg56
(lp3072
S'wsgi.run_once'
p3073
asbag49
(g70
g51
NtRp3074
(dp3075
g54
(dp3076
g81
g82
ssg63
g3065
sg56
(lp3077
S':'
asbag49
(g70
g51
NtRp3078
(dp3079
g54
(dp3080
sg63
g3065
sg56
(lp3081
g49
(g50
g51
NtRp3082
(dp3083
g54
(dp3084
g62
I3
ssg63
g3078
sg56
(lp3085
g92
asbasbasbag49
(g65
g51
NtRp3086
(dp3087
g54
(dp3088
sg63
g2554
sg56
(lp3089
g49
(g70
g51
NtRp3090
(dp3091
g54
(dp3092
g74
g75
ssg63
g3086
sg56
(lp3093
S'wsgi.url_scheme'
p3094
asbag49
(g70
g51
NtRp3095
(dp3096
g54
(dp3097
g81
g82
ssg63
g3086
sg56
(lp3098
S':'
asbag49
(g70
g51
NtRp3099
(dp3100
g54
(dp3101
sg63
g3086
sg56
(lp3102
g49
(g50
g51
NtRp3103
(dp3104
g54
(dp3105
g62
I3
ssg63
g3099
sg56
(lp3106
g1743
asbasbasbag49
(g65
g51
NtRp3107
(dp3108
g54
(dp3109
sg63
g2554
sg56
(lp3110
g49
(g70
g51
NtRp3111
(dp3112
g54
(dp3113
g74
g75
ssg63
g3107
sg56
(lp3114
S'wsgi.version'
p3115
asbag49
(g70
g51
NtRp3116
(dp3117
g54
(dp3118
g81
g82
ssg63
g3107
sg56
(lp3119
S':'
asbag49
(g70
g51
NtRp3120
(dp3121
g54
(dp3122
sg63
g3107
sg56
(lp3123
g49
(g50
g51
NtRp3124
(dp3125
g54
(dp3126
g62
I3
ssg63
g3120
sg56
(lp3127
S'1'
asbasbasbasbasbasbasbasbasbasbasbasbasbsS'frames'
p3128
(lp3129
(dp3130
S'file'
p3131
S'/home/mdipierro/web2py/gluon/restricted.py'
p3132
sS'dump'
p3133
(dp3134
sS'lnum'
p3135
I212
sS'lines'
p3136
(dp3137
sS'call'
p3138
S"(code='# -*- coding: utf-8 -*-\\n# this file is released ...nse._vars=response._caller(mobile_user_register)\\n', environment={'A': <class 'gluon.html.A'>, 'Auth': <class 'gluon.tools.Auth'>, 'B': <class 'gluon.html.B'>, 'BEAUTIFY': <class 'gluon.html.BEAUTIFY'>, 'BODY': <class 'gluon.html.BODY'>, 'BR': <class 'gluon.html.BR'>, 'BUTTON': <class 'gluon.html.BUTTON'>, 'CAT': <class 'gluon.html.CAT'>, 'CENTER': <class 'gluon.html.CENTER'>, 'CLEANUP': <class 'gluon.validators.CLEANUP'>, ...}, layer='/Applications/web2py.app/Contents/Resources/applications/MR/controllers/default.py')"
p3139
sS'func'
p3140
S'restricted'
p3141
sa(dp3142
g3131
S'/Applications/web2py.app/Contents/Resources/applications/MR/controllers/default.py'
p3143
sg3133
(dp3144
sg3135
I93
sg3136
(dp3145
I82
S'    http://..../[app]/default/data/update/[table]/[id]'
p3146
sI83
S'    http://..../[app]/default/data/delete/[table]/[id]'
p3147
sI84
S'    http://..../[app]/default/data/select/[table]'
p3148
sI85
S'    http://..../[app]/default/data/search/[table]'
p3149
sI86
S'    but URLs must be signed, i.e. linked with'
p3150
sI87
S"      A('table',_href=URL('data/tables',user_signature=True))"
p3151
sI88
S'    or with the signed load operator'
p3152
sI89
S"      LOAD('default','data.load',args='tables',ajax=True,user_signature=True)"
p3153
sI90
S'    """'
p3154
sI91
S'    return dict(form=crud())'
p3155
ssg3138
S'()'
p3156
sg3140
S'<module>'
p3157
sa(dp3158
g3131
S'/home/mdipierro/web2py/gluon/globals.py'
p3159
sg3133
(dp3160
sg3135
I193
sg3136
(dp3161
sg3138
S'(f=<function mobile_user_register at 0x7e16fb0>)'
p3162
sg3140
S'<lambda>'
p3163
sa(dp3164
g3131
S'/Applications/web2py.app/Contents/Resources/applications/MR/controllers/default.py'
p3165
sg3133
(dp3166
sg3135
I58
sg3136
(dp3167
I53
S'    password = request.vars.password'
p3168
sI54
S'    firstname = request.vars.firstname'
p3169
sI55
S'    lastname = request.vars.lastname'
p3170
sI56
S'    country = request.vars.country'
p3171
sI57
S'    rows = db(db.mobile_user.email==email).select()'
p3172
sI58
S'    if count(rows) != 0:'
p3173
sI59
S"        return {'status': 'exist'}"
p3174
sI60
S''
sI61
S'    result = md5_hash(password)'
p3175
sI62
S'    ret = db.mobile_user.validate_and_insert(email=email, password=password, first_name=firstname, last_name=lastname, md5=result, country=country)'
p3176
ssg3138
S'()'
p3177
sg3140
S'mobile_user_register'
p3178
sasS'pyver'
p3179
S'Python 2.5.1: /Applications/web2py.app/Contents/MacOS/python'
p3180
sS'session'
p3181
g49
(g50
g51
NtRp3182
(dp3183
g54
(dp3184
sg56
(lp3185
g49
(g58
g51
NtRp3186
(dp3187
g54
(dp3188
g62
I5
ssg63
Nsg56
(lp3189
g49
(g65
g51
NtRp3190
(dp3191
g54
(dp3192
sg63
g3186
sg56
(lp3193
g49
(g70
g51
NtRp3194
(dp3195
g54
(dp3196
g74
g75
ssg63
g3190
sg56
(lp3197
S'last_orderby'
p3198
asbag49
(g70
g51
NtRp3199
(dp3200
g54
(dp3201
g81
g82
ssg63
g3190
sg56
(lp3202
S':'
asbag49
(g70
g51
NtRp3203
(dp3204
g54
(dp3205
sg63
g3190
sg56
(lp3206
g49
(g50
g51
NtRp3207
(dp3208
g54
(dp3209
g62
I5
ssg63
g3203
sg56
(lp3210
S'None'
p3211
asbasbasbag49
(g65
g51
NtRp3212
(dp3213
g54
(dp3214
sg63
g3186
sg56
(lp3215
g49
(g70
g51
NtRp3216
(dp3217
g54
(dp3218
g74
g75
ssg63
g3212
sg56
(lp3219
S'last_query'
p3220
asbag49
(g70
g51
NtRp3221
(dp3222
g54
(dp3223
g81
g82
ssg63
g3212
sg56
(lp3224
S':'
asbag49
(g70
g51
NtRp3225
(dp3226
g54
(dp3227
sg63
g3212
sg56
(lp3228
g49
(g50
g51
NtRp3229
(dp3230
g54
(dp3231
g62
I5
ssg63
g3225
sg56
(lp3232
S'db.auth_user.id>0'
p3233
asbasbasbasbasbsS'etype'
p3234
S"<type 'exceptions.NameError'>"
p3235
sS'date'
p3236
S'Mon Apr 15 17:35:07 2013'
p3237
sS'response'
p3238
g49
(g50
g51
NtRp3239
(dp3240
g54
(dp3241
sg56
(lp3242
g49
(g58
g51
NtRp3243
(dp3244
g54
(dp3245
g62
I5
ssg63
Nsg56
(lp3246
g49
(g65
g51
NtRp3247
(dp3248
g54
(dp3249
sg63
g3243
sg56
(lp3250
g49
(g70
g51
NtRp3251
(dp3252
g54
(dp3253
g74
g75
ssg63
g3247
sg56
(lp3254
g147
asbag49
(g70
g51
NtRp3255
(dp3256
g54
(dp3257
g81
g82
ssg63
g3247
sg56
(lp3258
S':'
asbag49
(g70
g51
NtRp3259
(dp3260
g54
(dp3261
sg63
g3247
sg56
(lp3262
g49
(g50
g51
NtRp3263
(dp3264
g54
(dp3265
g62
I5
ssg63
g3259
sg56
(lp3266
S'<cStringIO.StringO object at 0x8eebcc0>'
p3267
asbasbasbag49
(g65
g51
NtRp3268
(dp3269
g54
(dp3270
sg63
g3243
sg56
(lp3271
g49
(g70
g51
NtRp3272
(dp3273
g54
(dp3274
g74
g75
ssg63
g3268
sg56
(lp3275
g235
asbag49
(g70
g51
NtRp3276
(dp3277
g54
(dp3278
g81
g82
ssg63
g3268
sg56
(lp3279
S':'
asbag49
(g70
g51
NtRp3280
(dp3281
g54
(dp3282
sg63
g3268
sg56
(lp3283
g49
(g50
g51
NtRp3284
(dp3285
g54
(dp3286
g62
I5
ssg63
g3280
sg56
(lp3287
g49
(g58
g51
NtRp3288
(dp3289
g54
(dp3290
g62
I4
ssg63
Nsg56
(lp3291
g49
(g65
g51
NtRp3292
(dp3293
g54
(dp3294
sg63
g3288
sg56
(lp3295
g49
(g70
g51
NtRp3296
(dp3297
g54
(dp3298
g74
g75
ssg63
g3292
sg56
(lp3299
S'session_id_mr'
p3300
asbag49
(g70
g51
NtRp3301
(dp3302
g54
(dp3303
g81
g82
ssg63
g3292
sg56
(lp3304
S':'
asbag49
(g70
g51
NtRp3305
(dp3306
g54
(dp3307
sg63
g3292
sg56
(lp3308
g49
(g50
g51
NtRp3309
(dp3310
g54
(dp3311
g62
I4
ssg63
g3305
sg56
(lp3312
g446
ag49
(g58
g51
NtRp3313
(dp3314
g54
(dp3315
g62
I3
ssg63
Nsg56
(lp3316
g49
(g65
g51
NtRp3317
(dp3318
g54
(dp3319
sg63
g3313
sg56
(lp3320
g49
(g70
g51
NtRp3321
(dp3322
g54
(dp3323
g74
g75
ssg63
g3317
sg56
(lp3324
g286
asbag49
(g70
g51
NtRp3325
(dp3326
g54
(dp3327
g81
g82
ssg63
g3317
sg56
(lp3328
S':'
asbag49
(g70
g51
NtRp3329
(dp3330
g54
(dp3331
sg63
g3317
sg56
(lp3332
g49
(g50
g51
NtRp3333
(dp3334
g54
(dp3335
g62
I3
ssg63
g3329
sg56
(lp3336
S''
asbasbasbag49
(g65
g51
NtRp3337
(dp3338
g54
(dp3339
sg63
g3313
sg56
(lp3340
g49
(g70
g51
NtRp3341
(dp3342
g54
(dp3343
g74
g75
ssg63
g3337
sg56
(lp3344
g307
asbag49
(g70
g51
NtRp3345
(dp3346
g54
(dp3347
g81
g82
ssg63
g3337
sg56
(lp3348
S':'
asbag49
(g70
g51
NtRp3349
(dp3350
g54
(dp3351
sg63
g3337
sg56
(lp3352
g49
(g50
g51
NtRp3353
(dp3354
g54
(dp3355
g62
I3
ssg63
g3349
sg56
(lp3356
S''
asbasbasbag49
(g65
g51
NtRp3357
(dp3358
g54
(dp3359
sg63
g3313
sg56
(lp3360
g49
(g70
g51
NtRp3361
(dp3362
g54
(dp3363
g74
g75
ssg63
g3357
sg56
(lp3364
g328
asbag49
(g70
g51
NtRp3365
(dp3366
g54
(dp3367
g81
g82
ssg63
g3357
sg56
(lp3368
S':'
asbag49
(g70
g51
NtRp3369
(dp3370
g54
(dp3371
sg63
g3357
sg56
(lp3372
g49
(g50
g51
NtRp3373
(dp3374
g54
(dp3375
g62
I3
ssg63
g3369
sg56
(lp3376
S''
asbasbasbag49
(g65
g51
NtRp3377
(dp3378
g54
(dp3379
sg63
g3313
sg56
(lp3380
g49
(g70
g51
NtRp3381
(dp3382
g54
(dp3383
g74
g75
ssg63
g3377
sg56
(lp3384
g349
asbag49
(g70
g51
NtRp3385
(dp3386
g54
(dp3387
g81
g82
ssg63
g3377
sg56
(lp3388
S':'
asbag49
(g70
g51
NtRp3389
(dp3390
g54
(dp3391
sg63
g3377
sg56
(lp3392
g49
(g50
g51
NtRp3393
(dp3394
g54
(dp3395
g62
I3
ssg63
g3389
sg56
(lp3396
S''
asbasbasbag49
(g65
g51
NtRp3397
(dp3398
g54
(dp3399
sg63
g3313
sg56
(lp3400
g49
(g70
g51
NtRp3401
(dp3402
g54
(dp3403
g74
g75
ssg63
g3397
sg56
(lp3404
g370
asbag49
(g70
g51
NtRp3405
(dp3406
g54
(dp3407
g81
g82
ssg63
g3397
sg56
(lp3408
S':'
asbag49
(g70
g51
NtRp3409
(dp3410
g54
(dp3411
sg63
g3397
sg56
(lp3412
g49
(g50
g51
NtRp3413
(dp3414
g54
(dp3415
g62
I3
ssg63
g3409
sg56
(lp3416
S'/'
asbasbasbag49
(g65
g51
NtRp3417
(dp3418
g54
(dp3419
sg63
g3313
sg56
(lp3420
g49
(g70
g51
NtRp3421
(dp3422
g54
(dp3423
g74
g75
ssg63
g3417
sg56
(lp3424
g391
asbag49
(g70
g51
NtRp3425
(dp3426
g54
(dp3427
g81
g82
ssg63
g3417
sg56
(lp3428
S':'
asbag49
(g70
g51
NtRp3429
(dp3430
g54
(dp3431
sg63
g3417
sg56
(lp3432
g49
(g50
g51
NtRp3433
(dp3434
g54
(dp3435
g62
I3
ssg63
g3429
sg56
(lp3436
S''
asbasbasbag49
(g65
g51
NtRp3437
(dp3438
g54
(dp3439
sg63
g3313
sg56
(lp3440
g49
(g70
g51
NtRp3441
(dp3442
g54
(dp3443
g74
g75
ssg63
g3437
sg56
(lp3444
g412
asbag49
(g70
g51
NtRp3445
(dp3446
g54
(dp3447
g81
g82
ssg63
g3437
sg56
(lp3448
S':'
asbag49
(g70
g51
NtRp3449
(dp3450
g54
(dp3451
sg63
g3437
sg56
(lp3452
g49
(g50
g51
NtRp3453
(dp3454
g54
(dp3455
g62
I3
ssg63
g3449
sg56
(lp3456
S''
asbasbasbasbasbasbasbasbasbasbasbag49
(g65
g51
NtRp3457
(dp3458
g54
(dp3459
sg63
g3243
sg56
(lp3460
g49
(g70
g51
NtRp3461
(dp3462
g54
(dp3463
g74
g75
ssg63
g3457
sg56
(lp3464
S'delimiters'
p3465
asbag49
(g70
g51
NtRp3466
(dp3467
g54
(dp3468
g81
g82
ssg63
g3457
sg56
(lp3469
S':'
asbag49
(g70
g51
NtRp3470
(dp3471
g54
(dp3472
sg63
g3457
sg56
(lp3473
g49
(g50
g51
NtRp3474
(dp3475
g54
(dp3476
g62
I5
ssg63
g3470
sg56
(lp3477
g49
(g58
g51
NtRp3478
(dp3479
g54
(dp3480
g62
I4
ssg63
Nsg56
(lp3481
g49
(g65
g51
NtRp3482
(dp3483
g54
(dp3484
sg63
g3478
sg56
(lp3485
g49
(g70
g51
NtRp3486
(dp3487
g54
(dp3488
sg63
g3482
sg56
(lp3489
g49
(g50
g51
NtRp3490
(dp3491
g54
(dp3492
g62
I4
ssg63
g3486
sg56
(lp3493
S'{{'
p3494
asbasbasbag49
(g65
g51
NtRp3495
(dp3496
g54
(dp3497
sg63
g3478
sg56
(lp3498
g49
(g70
g51
NtRp3499
(dp3500
g54
(dp3501
sg63
g3495
sg56
(lp3502
g49
(g50
g51
NtRp3503
(dp3504
g54
(dp3505
g62
I4
ssg63
g3499
sg56
(lp3506
S'}}'
p3507
asbasbasbasbasbasbasbag49
(g65
g51
NtRp3508
(dp3509
g54
(dp3510
sg63
g3243
sg56
(lp3511
g49
(g70
g51
NtRp3512
(dp3513
g54
(dp3514
g74
g75
ssg63
g3508
sg56
(lp3515
S'files'
p3516
asbag49
(g70
g51
NtRp3517
(dp3518
g54
(dp3519
g81
g82
ssg63
g3508
sg56
(lp3520
S':'
asbag49
(g70
g51
NtRp3521
(dp3522
g54
(dp3523
sg63
g3508
sg56
(lp3524
g49
(g50
g51
NtRp3525
(dp3526
g54
(dp3527
g62
I5
ssg63
g3521
sg56
(lp3528
g49
(g58
g51
NtRp3529
(dp3530
g54
(dp3531
g62
I4
ssg63
Nsg56
(lp3532
sbasbasbasbag49
(g65
g51
NtRp3533
(dp3534
g54
(dp3535
sg63
g3243
sg56
(lp3536
g49
(g70
g51
NtRp3537
(dp3538
g54
(dp3539
g74
g75
ssg63
g3533
sg56
(lp3540
S'flash'
p3541
asbag49
(g70
g51
NtRp3542
(dp3543
g54
(dp3544
g81
g82
ssg63
g3533
sg56
(lp3545
S':'
asbag49
(g70
g51
NtRp3546
(dp3547
g54
(dp3548
sg63
g3533
sg56
(lp3549
g49
(g50
g51
NtRp3550
(dp3551
g54
(dp3552
g62
I5
ssg63
g3546
sg56
(lp3553
S''
asbasbasbag49
(g65
g51
NtRp3554
(dp3555
g54
(dp3556
sg63
g3243
sg56
(lp3557
g49
(g70
g51
NtRp3558
(dp3559
g54
(dp3560
g74
g75
ssg63
g3554
sg56
(lp3561
S'generic_patterns'
p3562
asbag49
(g70
g51
NtRp3563
(dp3564
g54
(dp3565
g81
g82
ssg63
g3554
sg56
(lp3566
S':'
asbag49
(g70
g51
NtRp3567
(dp3568
g54
(dp3569
sg63
g3554
sg56
(lp3570
g49
(g50
g51
NtRp3571
(dp3572
g54
(dp3573
g62
I5
ssg63
g3567
sg56
(lp3574
g49
(g58
g51
NtRp3575
(dp3576
g54
(dp3577
g62
I4
ssg63
Nsg56
(lp3578
g49
(g65
g51
NtRp3579
(dp3580
g54
(dp3581
sg63
g3575
sg56
(lp3582
g49
(g70
g51
NtRp3583
(dp3584
g54
(dp3585
sg63
g3579
sg56
(lp3586
g49
(g50
g51
NtRp3587
(dp3588
g54
(dp3589
g62
I4
ssg63
g3583
sg56
(lp3590
S'*'
asbasbasbasbasbasbasbag49
(g65
g51
NtRp3591
(dp3592
g54
(dp3593
sg63
g3243
sg56
(lp3594
g49
(g70
g51
NtRp3595
(dp3596
g54
(dp3597
g74
g75
ssg63
g3591
sg56
(lp3598
S'google_analytics_id'
p3599
asbag49
(g70
g51
NtRp3600
(dp3601
g54
(dp3602
g81
g82
ssg63
g3591
sg56
(lp3603
S':'
asbag49
(g70
g51
NtRp3604
(dp3605
g54
(dp3606
sg63
g3591
sg56
(lp3607
g49
(g50
g51
NtRp3608
(dp3609
g54
(dp3610
g62
I5
ssg63
g3604
sg56
(lp3611
S'None'
p3612
asbasbasbag49
(g65
g51
NtRp3613
(dp3614
g54
(dp3615
sg63
g3243
sg56
(lp3616
g49
(g70
g51
NtRp3617
(dp3618
g54
(dp3619
g74
g75
ssg63
g3613
sg56
(lp3620
S'headers'
p3621
asbag49
(g70
g51
NtRp3622
(dp3623
g54
(dp3624
g81
g82
ssg63
g3613
sg56
(lp3625
S':'
asbag49
(g70
g51
NtRp3626
(dp3627
g54
(dp3628
sg63
g3613
sg56
(lp3629
g49
(g50
g51
NtRp3630
(dp3631
g54
(dp3632
g62
I5
ssg63
g3626
sg56
(lp3633
g49
(g58
g51
NtRp3634
(dp3635
g54
(dp3636
g62
I4
ssg63
Nsg56
(lp3637
g49
(g65
g51
NtRp3638
(dp3639
g54
(dp3640
sg63
g3634
sg56
(lp3641
g49
(g70
g51
NtRp3642
(dp3643
g54
(dp3644
g74
g75
ssg63
g3638
sg56
(lp3645
S'X-Powered-By'
p3646
asbag49
(g70
g51
NtRp3647
(dp3648
g54
(dp3649
g81
g82
ssg63
g3638
sg56
(lp3650
S':'
asbag49
(g70
g51
NtRp3651
(dp3652
g54
(dp3653
sg63
g3638
sg56
(lp3654
g49
(g50
g51
NtRp3655
(dp3656
g54
(dp3657
g62
I4
ssg63
g3651
sg56
(lp3658
S'web2py'
p3659
asbasbasbasbasbasbasbag49
(g65
g51
NtRp3660
(dp3661
g54
(dp3662
sg63
g3243
sg56
(lp3663
g49
(g70
g51
NtRp3664
(dp3665
g54
(dp3666
g74
g75
ssg63
g3660
sg56
(lp3667
S'logo'
p3668
asbag49
(g70
g51
NtRp3669
(dp3670
g54
(dp3671
g81
g82
ssg63
g3660
sg56
(lp3672
S':'
asbag49
(g70
g51
NtRp3673
(dp3674
g54
(dp3675
sg63
g3660
sg56
(lp3676
g49
(g50
g51
NtRp3677
(dp3678
g54
(dp3679
g62
I5
ssg63
g3673
sg56
(lp3680
g49
(cgluon.html
A
p3681
g51
NtRp3682
(dp3683
g54
(dp3684
S'_class'
p3685
S'brand'
p3686
sS'_href'
p3687
S'http://www.web2py.com/'
p3688
ssg63
Nsg56
(lp3689
g49
(cgluon.html
B
p3690
g51
NtRp3691
(dp3692
g54
(dp3693
sg63
g3682
sg56
(lp3694
S'web'
p3695
ag49
(cgluon.html
SPAN
p3696
g51
NtRp3697
(dp3698
g54
(dp3699
sg63
g3691
sg56
(lp3700
I2
asbaS'py'
p3701
asbacgluon.html
XML_unpickle
p3702
(S's\r\x00\x00\x00&trade;&nbsp;'
tRp3703
asbasbasbasbag49
(g65
g51
NtRp3704
(dp3705
g54
(dp3706
sg63
g3243
sg56
(lp3707
g49
(g70
g51
NtRp3708
(dp3709
g54
(dp3710
g74
g75
ssg63
g3704
sg56
(lp3711
S'menu'
p3712
asbag49
(g70
g51
NtRp3713
(dp3714
g54
(dp3715
g81
g82
ssg63
g3704
sg56
(lp3716
S':'
asbag49
(g70
g51
NtRp3717
(dp3718
g54
(dp3719
sg63
g3704
sg56
(lp3720
g49
(g50
g51
NtRp3721
(dp3722
g54
(dp3723
g62
I5
ssg63
g3717
sg56
(lp3724
g49
(g58
g51
NtRp3725
(dp3726
g54
(dp3727
g62
I4
ssg63
Nsg56
(lp3728
g49
(g65
g51
NtRp3729
(dp3730
g54
(dp3731
sg63
g3725
sg56
(lp3732
g49
(g70
g51
NtRp3733
(dp3734
g54
(dp3735
sg63
g3729
sg56
(lp3736
g49
(g50
g51
NtRp3737
(dp3738
g54
(dp3739
g62
I4
ssg63
g3733
sg56
(lp3740
g49
(g58
g51
NtRp3741
(dp3742
g54
(dp3743
g62
I3
ssg63
Nsg56
(lp3744
g49
(g65
g51
NtRp3745
(dp3746
g54
(dp3747
sg63
g3741
sg56
(lp3748
g49
(g70
g51
NtRp3749
(dp3750
g54
(dp3751
sg63
g3745
sg56
(lp3752
g49
(g50
g51
NtRp3753
(dp3754
g54
(dp3755
g62
I3
ssg63
g3749
sg56
(lp3756
cgluon.languages
lazyT_unpickle
p3757
(S't\x04\x00\x00\x00Home'
tRp3758
asbasbasbag49
(g65
g51
NtRp3759
(dp3760
g54
(dp3761
sg63
g3741
sg56
(lp3762
g49
(g70
g51
NtRp3763
(dp3764
g54
(dp3765
sg63
g3759
sg56
(lp3766
g49
(g50
g51
NtRp3767
(dp3768
g54
(dp3769
g62
I3
ssg63
g3763
sg56
(lp3770
g92
asbasbasbag49
(g65
g51
NtRp3771
(dp3772
g54
(dp3773
sg63
g3741
sg56
(lp3774
g49
(g70
g51
NtRp3775
(dp3776
g54
(dp3777
sg63
g3771
sg56
(lp3778
g49
(g50
g51
NtRp3779
(dp3780
g54
(dp3781
g62
I3
ssg63
g3775
sg56
(lp3782
S'/MR/default/index'
p3783
asbasbasbag49
(g65
g51
NtRp3784
(dp3785
g54
(dp3786
sg63
g3741
sg56
(lp3787
g49
(g70
g51
NtRp3788
(dp3789
g54
(dp3790
sg63
g3784
sg56
(lp3791
g49
(g50
g51
NtRp3792
(dp3793
g54
(dp3794
g62
I3
ssg63
g3788
sg56
(lp3795
g49
(g58
g51
NtRp3796
(dp3797
g54
(dp3798
g62
I2
ssg63
Nsg56
(lp3799
sbasbasbasbasbasbasbasbag49
(g65
g51
NtRp3800
(dp3801
g54
(dp3802
sg63
g3725
sg56
(lp3803
g49
(g70
g51
NtRp3804
(dp3805
g54
(dp3806
sg63
g3800
sg56
(lp3807
g49
(g50
g51
NtRp3808
(dp3809
g54
(dp3810
g62
I4
ssg63
g3804
sg56
(lp3811
g49
(g58
g51
NtRp3812
(dp3813
g54
(dp3814
g62
I3
ssg63
Nsg56
(lp3815
g49
(g65
g51
NtRp3816
(dp3817
g54
(dp3818
sg63
g3812
sg56
(lp3819
g49
(g70
g51
NtRp3820
(dp3821
g54
(dp3822
sg63
g3816
sg56
(lp3823
g49
(g50
g51
NtRp3824
(dp3825
g54
(dp3826
g62
I3
ssg63
g3820
sg56
(lp3827
g49
(g3696
g51
NtRp3828
(dp3829
g54
(dp3830
g3685
S'highlighted'
p3831
ssg63
Nsg56
(lp3832
g3659
asbasbasbasbag49
(g65
g51
NtRp3833
(dp3834
g54
(dp3835
sg63
g3812
sg56
(lp3836
g49
(g70
g51
NtRp3837
(dp3838
g54
(dp3839
sg63
g3833
sg56
(lp3840
g49
(g50
g51
NtRp3841
(dp3842
g54
(dp3843
g62
I3
ssg63
g3837
sg56
(lp3844
g92
asbasbasbag49
(g65
g51
NtRp3845
(dp3846
g54
(dp3847
sg63
g3812
sg56
(lp3848
g49
(g70
g51
NtRp3849
(dp3850
g54
(dp3851
sg63
g3845
sg56
(lp3852
g49
(g50
g51
NtRp3853
(dp3854
g54
(dp3855
g62
I3
ssg63
g3849
sg56
(lp3856
S'http://web2py.com'
p3857
asbasbasbag49
(g65
g51
NtRp3858
(dp3859
g54
(dp3860
sg63
g3812
sg56
(lp3861
g49
(g70
g51
NtRp3862
(dp3863
g54
(dp3864
sg63
g3858
sg56
(lp3865
g49
(g50
g51
NtRp3866
(dp3867
g54
(dp3868
g62
I3
ssg63
g3862
sg56
(lp3869
g49
(g58
g51
NtRp3870
(dp3871
g54
(dp3872
g62
I2
ssg63
Nsg56
(lp3873
g49
(g65
g51
NtRp3874
(dp3875
g54
(dp3876
sg63
g3870
sg56
(lp3877
g49
(g70
g51
NtRp3878
(dp3879
g54
(dp3880
sg63
g3874
sg56
(lp3881
g49
(g50
g51
NtRp3882
(dp3883
g54
(dp3884
g62
I2
ssg63
g3878
sg56
(lp3885
g49
(g58
g51
NtRp3886
(dp3887
g54
(dp3888
g62
I1
ssg63
Nsg56
(lp3889
g49
(g65
g51
NtRp3890
(dp3891
g54
(dp3892
sg63
g3886
sg56
(lp3893
g49
(g70
g51
NtRp3894
(dp3895
g54
(dp3896
sg63
g3890
sg56
(lp3897
g49
(g50
g51
NtRp3898
(dp3899
g54
(dp3900
g62
I1
ssg63
g3894
sg56
(lp3901
g3757
(S's\x08\x00\x00\x00My Sites'
tRp3902
asbasbasbag49
(g65
g51
NtRp3903
(dp3904
g54
(dp3905
sg63
g3886
sg56
(lp3906
g49
(g70
g51
NtRp3907
(dp3908
g54
(dp3909
sg63
g3903
sg56
(lp3910
g49
(g50
g51
NtRp3911
(dp3912
g54
(dp3913
g62
I1
ssg63
g3907
sg56
(lp3914
I00
asbasbasbag49
(g65
g51
NtRp3915
(dp3916
g54
(dp3917
sg63
g3886
sg56
(lp3918
g49
(g70
g51
NtRp3919
(dp3920
g54
(dp3921
sg63
g3915
sg56
(lp3922
g49
(g50
g51
NtRp3923
(dp3924
g54
(dp3925
g62
I1
ssg63
g3919
sg56
(lp3926
S'/admin/default/site'
p3927
asbasbasbasbasbasbasbag49
(g65
g51
NtRp3928
(dp3929
g54
(dp3930
sg63
g3870
sg56
(lp3931
g49
(g70
g51
NtRp3932
(dp3933
g54
(dp3934
sg63
g3928
sg56
(lp3935
g49
(g50
g51
NtRp3936
(dp3937
g54
(dp3938
g62
I2
ssg63
g3932
sg56
(lp3939
g49
(g58
g51
NtRp3940
(dp3941
g54
(dp3942
g62
I1
ssg63
Nsg56
(lp3943
g49
(g65
g51
NtRp3944
(dp3945
g54
(dp3946
sg63
g3940
sg56
(lp3947
g49
(g70
g51
NtRp3948
(dp3949
g54
(dp3950
sg63
g3944
sg56
(lp3951
g49
(g50
g51
NtRp3952
(dp3953
g54
(dp3954
g62
I1
ssg63
g3948
sg56
(lp3955
g3757
(S's\x08\x00\x00\x00This App'
tRp3956
asbasbasbag49
(g65
g51
NtRp3957
(dp3958
g54
(dp3959
sg63
g3940
sg56
(lp3960
g49
(g70
g51
NtRp3961
(dp3962
g54
(dp3963
sg63
g3957
sg56
(lp3964
g49
(g50
g51
NtRp3965
(dp3966
g54
(dp3967
g62
I1
ssg63
g3961
sg56
(lp3968
I00
asbasbasbag49
(g65
g51
NtRp3969
(dp3970
g54
(dp3971
sg63
g3940
sg56
(lp3972
g49
(g70
g51
NtRp3973
(dp3974
g54
(dp3975
sg63
g3969
sg56
(lp3976
g49
(g50
g51
NtRp3977
(dp3978
g54
(dp3979
g62
I1
ssg63
g3973
sg56
(lp3980
S'/admin/default/design/MR'
p3981
asbasbasbag49
(g65
g51
NtRp3982
(dp3983
g54
(dp3984
sg63
g3940
sg56
(lp3985
g49
(g70
g51
NtRp3986
(dp3987
g54
(dp3988
sg63
g3982
sg56
(lp3989
g49
(g50
g51
NtRp3990
(dp3991
g54
(dp3992
g62
I1
ssg63
g3986
sg56
(lp3993
(lp3994
(g3757
(S's\x06\x00\x00\x00\xe6\x8e\xa7\xe4\xbb\xb6'
tRp3995
I00
S'/admin/default/edit/MR/controllers/default.py'
tp3996
a(g3757
(S's\x06\x00\x00\x00\xe8\xa6\x96\xe5\x9c\x96'
tRp3997
I00
S'/admin/default/edit/MR/views/default/mobile_user_register.html'
tp3998
a(g3757
(S's\x0c\x00\x00\x00\xe7\xb6\xb2\xe9\xa0\x81\xe9\x85\x8d\xe7\xbd\xae'
tRp3999
I00
S'/admin/default/edit/MR/views/layout.html'
tp4000
a(g3757
(S's\x0f\x00\x00\x00\xe7\xb6\xb2\xe9\xa0\x81\xe9\xa2\xa8\xe6\xa0\xbc\xe6\xaa\x94'
tRp4001
I00
S'/admin/default/edit/MR/static/css/web2py.css'
tp4002
a(g3757
(S's\x0f\x00\x00\x00\xe8\xb3\x87\xe6\x96\x99\xe5\xba\xab\xe6\xa8\xa1\xe7\xb5\x84'
tRp4003
I00
S'/admin/default/edit/MR/models/db.py'
tp4004
a(g3757
(S's\x12\x00\x00\x00\xe9\x81\xb8\xe5\x96\xae\xe6\xa8\xa1\xe7\xb5\x84(menu)'
tRp4005
I00
S'/admin/default/edit/MR/models/menu.py'
tp4006
a(g3757
(S's\t\x00\x00\x00\xe8\xb3\x87\xe6\x96\x99\xe5\xba\xab'
tRp4007
I00
S'/MR/appadmin/index'
tp4008
a(g3757
(S't\x06\x00\x00\x00Errors'
tRp4009
I00
S'/admin/default/errors/MR'
tp4010
a(g3757
(S's\x06\x00\x00\x00\xe9\x97\x9c\xe6\x96\xbc'
tRp4011
I00
S'/admin/default/about/MR'
tp4012
aasbasbasbasbasbasbasbag49
(g65
g51
NtRp4013
(dp4014
g54
(dp4015
sg63
g3870
sg56
(lp4016
g49
(g70
g51
NtRp4017
(dp4018
g54
(dp4019
sg63
g4013
sg56
(lp4020
g49
(g50
g51
NtRp4021
(dp4022
g54
(dp4023
g62
I2
ssg63
g4017
sg56
(lp4024
g49
(g58
g51
NtRp4025
(dp4026
g54
(dp4027
g62
I1
ssg63
Nsg56
(lp4028
g49
(g65
g51
NtRp4029
(dp4030
g54
(dp4031
sg63
g4025
sg56
(lp4032
g49
(g70
g51
NtRp4033
(dp4034
g54
(dp4035
sg63
g4029
sg56
(lp4036
g49
(g50
g51
NtRp4037
(dp4038
g54
(dp4039
g62
I1
ssg63
g4033
sg56
(lp4040
S'web2py.com'
p4041
asbasbasbag49
(g65
g51
NtRp4042
(dp4043
g54
(dp4044
sg63
g4025
sg56
(lp4045
g49
(g70
g51
NtRp4046
(dp4047
g54
(dp4048
sg63
g4042
sg56
(lp4049
g49
(g50
g51
NtRp4050
(dp4051
g54
(dp4052
g62
I1
ssg63
g4046
sg56
(lp4053
I00
asbasbasbag49
(g65
g51
NtRp4054
(dp4055
g54
(dp4056
sg63
g4025
sg56
(lp4057
g49
(g70
g51
NtRp4058
(dp4059
g54
(dp4060
sg63
g4054
sg56
(lp4061
g49
(g50
g51
NtRp4062
(dp4063
g54
(dp4064
g62
I1
ssg63
g4058
sg56
(lp4065
S'http://www.web2py.com'
p4066
asbasbasbag49
(g65
g51
NtRp4067
(dp4068
g54
(dp4069
sg63
g4025
sg56
(lp4070
g49
(g70
g51
NtRp4071
(dp4072
g54
(dp4073
sg63
g4067
sg56
(lp4074
g49
(g50
g51
NtRp4075
(dp4076
g54
(dp4077
g62
I1
ssg63
g4071
sg56
(lp4078
(lp4079
(g3757
(S't\x08\x00\x00\x00Download'
tRp4080
I00
S'http://www.web2py.com/examples/default/download'
p4081
tp4082
a(g3757
(S't\x07\x00\x00\x00Support'
tRp4083
I00
S'http://www.web2py.com/examples/default/support'
p4084
tp4085
a(g3757
(S't\x04\x00\x00\x00Demo'
tRp4086
I00
S'http://web2py.com/demo_admin'
p4087
tp4088
a(g3757
(S's\x0e\x00\x00\x00Quick Examples'
tRp4089
I00
S'http://web2py.com/examples/default/examples'
p4090
tp4091
a(g3757
(S't\x03\x00\x00\x00FAQ'
tRp4092
I00
S'http://web2py.com/AlterEgo'
p4093
tp4094
a(g3757
(S't\x06\x00\x00\x00Videos'
tRp4095
I00
S'http://www.web2py.com/examples/default/videos/'
p4096
tp4097
a(g3757
(S's\x11\x00\x00\x00Free Applications'
tRp4098
I00
S'http://web2py.com/appliances'
p4099
tp4100
a(g3757
(S't\x07\x00\x00\x00Plugins'
tRp4101
I00
S'http://web2py.com/plugins'
p4102
tp4103
a(g3757
(S't\x07\x00\x00\x00Layouts'
tRp4104
I00
S'http://web2py.com/layouts'
p4105
tp4106
a(g3757
(S't\x07\x00\x00\x00Recipes'
tRp4107
I00
S'http://web2pyslices.com/'
p4108
tp4109
a(g3757
(S't\x08\x00\x00\x00Semantic'
tRp4110
I00
S'http://web2py.com/semantic'
p4111
tp4112
aasbasbasbasbasbasbasbag49
(g65
g51
NtRp4113
(dp4114
g54
(dp4115
sg63
g3870
sg56
(lp4116
g49
(g70
g51
NtRp4117
(dp4118
g54
(dp4119
sg63
g4113
sg56
(lp4120
g49
(g50
g51
NtRp4121
(dp4122
g54
(dp4123
g62
I2
ssg63
g4117
sg56
(lp4124
g49
(g58
g51
NtRp4125
(dp4126
g54
(dp4127
g62
I1
ssg63
Nsg56
(lp4128
g49
(g65
g51
NtRp4129
(dp4130
g54
(dp4131
sg63
g4125
sg56
(lp4132
g49
(g70
g51
NtRp4133
(dp4134
g54
(dp4135
sg63
g4129
sg56
(lp4136
g49
(g50
g51
NtRp4137
(dp4138
g54
(dp4139
g62
I1
ssg63
g4133
sg56
(lp4140
g3757
(S't\r\x00\x00\x00Documentation'
tRp4141
asbasbasbag49
(g65
g51
NtRp4142
(dp4143
g54
(dp4144
sg63
g4125
sg56
(lp4145
g49
(g70
g51
NtRp4146
(dp4147
g54
(dp4148
sg63
g4142
sg56
(lp4149
g49
(g50
g51
NtRp4150
(dp4151
g54
(dp4152
g62
I1
ssg63
g4146
sg56
(lp4153
I00
asbasbasbag49
(g65
g51
NtRp4154
(dp4155
g54
(dp4156
sg63
g4125
sg56
(lp4157
g49
(g70
g51
NtRp4158
(dp4159
g54
(dp4160
sg63
g4154
sg56
(lp4161
g49
(g50
g51
NtRp4162
(dp4163
g54
(dp4164
g62
I1
ssg63
g4158
sg56
(lp4165
S'http://www.web2py.com/book'
p4166
asbasbasbag49
(g65
g51
NtRp4167
(dp4168
g54
(dp4169
sg63
g4125
sg56
(lp4170
g49
(g70
g51
NtRp4171
(dp4172
g54
(dp4173
sg63
g4167
sg56
(lp4174
g49
(g50
g51
NtRp4175
(dp4176
g54
(dp4177
g62
I1
ssg63
g4171
sg56
(lp4178
(lp4179
(g3757
(S't\x07\x00\x00\x00Preface'
tRp4180
I00
S'http://www.web2py.com/book/default/chapter/00'
p4181
tp4182
a(g3757
(S't\x0c\x00\x00\x00Introduction'
tRp4183
I00
S'http://www.web2py.com/book/default/chapter/01'
p4184
tp4185
a(g3757
(S't\x06\x00\x00\x00Python'
tRp4186
I00
S'http://www.web2py.com/book/default/chapter/02'
p4187
tp4188
a(g3757
(S't\x08\x00\x00\x00Overview'
tRp4189
I00
S'http://www.web2py.com/book/default/chapter/03'
p4190
tp4191
a(g3757
(S's\x08\x00\x00\x00The Core'
tRp4192
I00
S'http://www.web2py.com/book/default/chapter/04'
p4193
tp4194
a(g3757
(S's\t\x00\x00\x00The Views'
tRp4195
I00
S'http://www.web2py.com/book/default/chapter/05'
p4196
tp4197
a(g3757
(S's\t\x00\x00\x00\xe8\xb3\x87\xe6\x96\x99\xe5\xba\xab'
tRp4198
I00
S'http://www.web2py.com/book/default/chapter/06'
p4199
tp4200
a(g3757
(S's\x14\x00\x00\x00Forms and Validators'
tRp4201
I00
S'http://www.web2py.com/book/default/chapter/07'
p4202
tp4203
a(g3757
(S's\r\x00\x00\x00Email and SMS'
tRp4204
I00
S'http://www.web2py.com/book/default/chapter/08'
p4205
tp4206
a(g3757
(S's\x0e\x00\x00\x00Access Control'
tRp4207
I00
S'http://www.web2py.com/book/default/chapter/09'
p4208
tp4209
a(g3757
(S't\x08\x00\x00\x00Services'
tRp4210
I00
S'http://www.web2py.com/book/default/chapter/10'
p4211
tp4212
a(g3757
(S's\x0c\x00\x00\x00Ajax Recipes'
tRp4213
I00
S'http://www.web2py.com/book/default/chapter/11'
p4214
tp4215
a(g3757
(S's\x16\x00\x00\x00Components and Plugins'
tRp4216
I00
S'http://www.web2py.com/book/default/chapter/12'
p4217
tp4218
a(g3757
(S's\x12\x00\x00\x00Deployment Recipes'
tRp4219
I00
S'http://www.web2py.com/book/default/chapter/13'
p4220
tp4221
a(g3757
(S's\r\x00\x00\x00Other Recipes'
tRp4222
I00
S'http://www.web2py.com/book/default/chapter/14'
p4223
tp4224
a(g3757
(S's\r\x00\x00\x00Buy this book'
tRp4225
I00
S'http://stores.lulu.com/web2py'
p4226
tp4227
aasbasbasbasbasbasbasbag49
(g65
g51
NtRp4228
(dp4229
g54
(dp4230
sg63
g3870
sg56
(lp4231
g49
(g70
g51
NtRp4232
(dp4233
g54
(dp4234
sg63
g4228
sg56
(lp4235
g49
(g50
g51
NtRp4236
(dp4237
g54
(dp4238
g62
I2
ssg63
g4232
sg56
(lp4239
g49
(g58
g51
NtRp4240
(dp4241
g54
(dp4242
g62
I1
ssg63
Nsg56
(lp4243
g49
(g65
g51
NtRp4244
(dp4245
g54
(dp4246
sg63
g4240
sg56
(lp4247
g49
(g70
g51
NtRp4248
(dp4249
g54
(dp4250
sg63
g4244
sg56
(lp4251
g49
(g50
g51
NtRp4252
(dp4253
g54
(dp4254
g62
I1
ssg63
g4248
sg56
(lp4255
g3757
(S't\t\x00\x00\x00Community'
tRp4256
asbasbasbag49
(g65
g51
NtRp4257
(dp4258
g54
(dp4259
sg63
g4240
sg56
(lp4260
g49
(g70
g51
NtRp4261
(dp4262
g54
(dp4263
sg63
g4257
sg56
(lp4264
g49
(g50
g51
NtRp4265
(dp4266
g54
(dp4267
g62
I1
ssg63
g4261
sg56
(lp4268
I00
asbasbasbag49
(g65
g51
NtRp4269
(dp4270
g54
(dp4271
sg63
g4240
sg56
(lp4272
g49
(g70
g51
NtRp4273
(dp4274
g54
(dp4275
sg63
g4269
sg56
(lp4276
g49
(g50
g51
NtRp4277
(dp4278
g54
(dp4279
g62
I1
ssg63
g4273
sg56
(lp4280
Nasbasbasbag49
(g65
g51
NtRp4281
(dp4282
g54
(dp4283
sg63
g4240
sg56
(lp4284
g49
(g70
g51
NtRp4285
(dp4286
g54
(dp4287
sg63
g4281
sg56
(lp4288
g49
(g50
g51
NtRp4289
(dp4290
g54
(dp4291
g62
I1
ssg63
g4285
sg56
(lp4292
(lp4293
(g3757
(S't\x06\x00\x00\x00Groups'
tRp4294
I00
S'http://www.web2py.com/examples/default/usergroups'
p4295
tp4296
a(g3757
(S't\x07\x00\x00\x00Twitter'
tRp4297
I00
S'http://twitter.com/web2py'
p4298
tp4299
a(g3757
(S's\t\x00\x00\x00Live Chat'
tRp4300
I00
S'http://webchat.freenode.net/?channels=web2py'
p4301
tp4302
aasbasbasbasbasbasbasbag49
(g65
g51
NtRp4303
(dp4304
g54
(dp4305
sg63
g3870
sg56
(lp4306
g49
(g70
g51
NtRp4307
(dp4308
g54
(dp4309
sg63
g4303
sg56
(lp4310
g49
(g50
g51
NtRp4311
(dp4312
g54
(dp4313
g62
I2
ssg63
g4307
sg56
(lp4314
g49
(g58
g51
NtRp4315
(dp4316
g54
(dp4317
g62
I1
ssg63
Nsg56
(lp4318
g49
(g65
g51
NtRp4319
(dp4320
g54
(dp4321
sg63
g4315
sg56
(lp4322
g49
(g70
g51
NtRp4323
(dp4324
g54
(dp4325
sg63
g4319
sg56
(lp4326
g49
(g50
g51
NtRp4327
(dp4328
g54
(dp4329
g62
I1
ssg63
g4323
sg56
(lp4330
g3757
(S't\x07\x00\x00\x00Plugins'
tRp4331
asbasbasbag49
(g65
g51
NtRp4332
(dp4333
g54
(dp4334
sg63
g4315
sg56
(lp4335
g49
(g70
g51
NtRp4336
(dp4337
g54
(dp4338
sg63
g4332
sg56
(lp4339
g49
(g50
g51
NtRp4340
(dp4341
g54
(dp4342
g62
I1
ssg63
g4336
sg56
(lp4343
I00
asbasbasbag49
(g65
g51
NtRp4344
(dp4345
g54
(dp4346
sg63
g4315
sg56
(lp4347
g49
(g70
g51
NtRp4348
(dp4349
g54
(dp4350
sg63
g4344
sg56
(lp4351
g49
(g50
g51
NtRp4352
(dp4353
g54
(dp4354
g62
I1
ssg63
g4348
sg56
(lp4355
Nasbasbasbag49
(g65
g51
NtRp4356
(dp4357
g54
(dp4358
sg63
g4315
sg56
(lp4359
g49
(g70
g51
NtRp4360
(dp4361
g54
(dp4362
sg63
g4356
sg56
(lp4363
g49
(g50
g51
NtRp4364
(dp4365
g54
(dp4366
g62
I1
ssg63
g4360
sg56
(lp4367
(lp4368
(S'plugin_wiki'
p4369
I00
S'http://web2py.com/examples/default/download'
p4370
tp4371
a(g3757
(S's\r\x00\x00\x00Other Plugins'
tRp4372
I00
g4102
tp4373
a(g3757
(S's\x0e\x00\x00\x00Layout Plugins'
tRp4374
I00
g4105
tp4375
aasbasbasbasbasbasbasbasbasbasbasbasbasbasbasbasbasbasbasbag49
(g65
g51
NtRp4376
(dp4377
g54
(dp4378
sg63
g3243
sg56
(lp4379
g49
(g70
g51
NtRp4380
(dp4381
g54
(dp4382
g74
g75
ssg63
g4376
sg56
(lp4383
S'meta'
p4384
asbag49
(g70
g51
NtRp4385
(dp4386
g54
(dp4387
g81
g82
ssg63
g4376
sg56
(lp4388
S':'
asbag49
(g70
g51
NtRp4389
(dp4390
g54
(dp4391
sg63
g4376
sg56
(lp4392
g49
(g50
g51
NtRp4393
(dp4394
g54
(dp4395
g62
I5
ssg63
g4389
sg56
(lp4396
g49
(g58
g51
NtRp4397
(dp4398
g54
(dp4399
g62
I4
ssg63
Nsg56
(lp4400
g49
(g65
g51
NtRp4401
(dp4402
g54
(dp4403
sg63
g4397
sg56
(lp4404
g49
(g70
g51
NtRp4405
(dp4406
g54
(dp4407
g74
g75
ssg63
g4401
sg56
(lp4408
S'author'
p4409
asbag49
(g70
g51
NtRp4410
(dp4411
g54
(dp4412
g81
g82
ssg63
g4401
sg56
(lp4413
S':'
asbag49
(g70
g51
NtRp4414
(dp4415
g54
(dp4416
sg63
g4401
sg56
(lp4417
g49
(g50
g51
NtRp4418
(dp4419
g54
(dp4420
g62
I4
ssg63
g4414
sg56
(lp4421
S'Your Name <you@example.com>'
p4422
asbasbasbag49
(g65
g51
NtRp4423
(dp4424
g54
(dp4425
sg63
g4397
sg56
(lp4426
g49
(g70
g51
NtRp4427
(dp4428
g54
(dp4429
g74
g75
ssg63
g4423
sg56
(lp4430
S'description'
p4431
asbag49
(g70
g51
NtRp4432
(dp4433
g54
(dp4434
g81
g82
ssg63
g4423
sg56
(lp4435
S':'
asbag49
(g70
g51
NtRp4436
(dp4437
g54
(dp4438
sg63
g4423
sg56
(lp4439
g49
(g50
g51
NtRp4440
(dp4441
g54
(dp4442
g62
I4
ssg63
g4436
sg56
(lp4443
S'a cool new app'
p4444
asbasbasbag49
(g65
g51
NtRp4445
(dp4446
g54
(dp4447
sg63
g4397
sg56
(lp4448
g49
(g70
g51
NtRp4449
(dp4450
g54
(dp4451
g74
g75
ssg63
g4445
sg56
(lp4452
S'generator'
p4453
asbag49
(g70
g51
NtRp4454
(dp4455
g54
(dp4456
g81
g82
ssg63
g4445
sg56
(lp4457
S':'
asbag49
(g70
g51
NtRp4458
(dp4459
g54
(dp4460
sg63
g4445
sg56
(lp4461
g49
(g50
g51
NtRp4462
(dp4463
g54
(dp4464
g62
I4
ssg63
g4458
sg56
(lp4465
S'Web2py Web Framework'
p4466
asbasbasbag49
(g65
g51
NtRp4467
(dp4468
g54
(dp4469
sg63
g4397
sg56
(lp4470
g49
(g70
g51
NtRp4471
(dp4472
g54
(dp4473
g74
g75
ssg63
g4467
sg56
(lp4474
S'keywords'
p4475
asbag49
(g70
g51
NtRp4476
(dp4477
g54
(dp4478
g81
g82
ssg63
g4467
sg56
(lp4479
S':'
asbag49
(g70
g51
NtRp4480
(dp4481
g54
(dp4482
sg63
g4467
sg56
(lp4483
g49
(g50
g51
NtRp4484
(dp4485
g54
(dp4486
g62
I4
ssg63
g4480
sg56
(lp4487
S'web2py, python, framework'
p4488
asbasbasbasbasbasbasbag49
(g65
g51
NtRp4489
(dp4490
g54
(dp4491
sg63
g3243
sg56
(lp4492
g49
(g70
g51
NtRp4493
(dp4494
g54
(dp4495
g74
g75
ssg63
g4489
sg56
(lp4496
S'models_to_run'
p4497
asbag49
(g70
g51
NtRp4498
(dp4499
g54
(dp4500
g81
g82
ssg63
g4489
sg56
(lp4501
S':'
asbag49
(g70
g51
NtRp4502
(dp4503
g54
(dp4504
sg63
g4489
sg56
(lp4505
g49
(g50
g51
NtRp4506
(dp4507
g54
(dp4508
g62
I5
ssg63
g4502
sg56
(lp4509
g49
(g58
g51
NtRp4510
(dp4511
g54
(dp4512
g62
I4
ssg63
Nsg56
(lp4513
g49
(g65
g51
NtRp4514
(dp4515
g54
(dp4516
sg63
g4510
sg56
(lp4517
g49
(g70
g51
NtRp4518
(dp4519
g54
(dp4520
sg63
g4514
sg56
(lp4521
g49
(g50
g51
NtRp4522
(dp4523
g54
(dp4524
g62
I4
ssg63
g4518
sg56
(lp4525
S'^\\w+\\.py$'
p4526
asbasbasbag49
(g65
g51
NtRp4527
(dp4528
g54
(dp4529
sg63
g4510
sg56
(lp4530
g49
(g70
g51
NtRp4531
(dp4532
g54
(dp4533
sg63
g4527
sg56
(lp4534
g49
(g50
g51
NtRp4535
(dp4536
g54
(dp4537
g62
I4
ssg63
g4531
sg56
(lp4538
S'^default/\\w+\\.py$'
p4539
asbasbasbag49
(g65
g51
NtRp4540
(dp4541
g54
(dp4542
sg63
g4510
sg56
(lp4543
g49
(g70
g51
NtRp4544
(dp4545
g54
(dp4546
sg63
g4540
sg56
(lp4547
g49
(g50
g51
NtRp4548
(dp4549
g54
(dp4550
g62
I4
ssg63
g4544
sg56
(lp4551
S'^default/mobile_user_register/\\w+\\.py$'
p4552
asbasbasbasbasbasbasbag49
(g65
g51
NtRp4553
(dp4554
g54
(dp4555
sg63
g3243
sg56
(lp4556
g49
(g70
g51
NtRp4557
(dp4558
g54
(dp4559
g74
g75
ssg63
g4553
sg56
(lp4560
S'postprocessing'
p4561
asbag49
(g70
g51
NtRp4562
(dp4563
g54
(dp4564
g81
g82
ssg63
g4553
sg56
(lp4565
S':'
asbag49
(g70
g51
NtRp4566
(dp4567
g54
(dp4568
sg63
g4553
sg56
(lp4569
g49
(g50
g51
NtRp4570
(dp4571
g54
(dp4572
g62
I5
ssg63
g4566
sg56
(lp4573
g49
(g58
g51
NtRp4574
(dp4575
g54
(dp4576
g62
I4
ssg63
Nsg56
(lp4577
sbasbasbasbag49
(g65
g51
NtRp4578
(dp4579
g54
(dp4580
sg63
g3243
sg56
(lp4581
g49
(g70
g51
NtRp4582
(dp4583
g54
(dp4584
g74
g75
ssg63
g4578
sg56
(lp4585
S'session_cookie_expires'
p4586
asbag49
(g70
g51
NtRp4587
(dp4588
g54
(dp4589
g81
g82
ssg63
g4578
sg56
(lp4590
S':'
asbag49
(g70
g51
NtRp4591
(dp4592
g54
(dp4593
sg63
g4578
sg56
(lp4594
g49
(g50
g51
NtRp4595
(dp4596
g54
(dp4597
g62
I5
ssg63
g4591
sg56
(lp4598
S'None'
p4599
asbasbasbag49
(g65
g51
NtRp4600
(dp4601
g54
(dp4602
sg63
g3243
sg56
(lp4603
g49
(g70
g51
NtRp4604
(dp4605
g54
(dp4606
g74
g75
ssg63
g4600
sg56
(lp4607
S'session_data_name'
p4608
asbag49
(g70
g51
NtRp4609
(dp4610
g54
(dp4611
g81
g82
ssg63
g4600
sg56
(lp4612
S':'
asbag49
(g70
g51
NtRp4613
(dp4614
g54
(dp4615
sg63
g4600
sg56
(lp4616
g49
(g50
g51
NtRp4617
(dp4618
g54
(dp4619
g62
I5
ssg63
g4613
sg56
(lp4620
S'session_data_mr'
p4621
asbasbasbag49
(g65
g51
NtRp4622
(dp4623
g54
(dp4624
sg63
g3243
sg56
(lp4625
g49
(g70
g51
NtRp4626
(dp4627
g54
(dp4628
g74
g75
ssg63
g4622
sg56
(lp4629
S'session_file'
p4630
asbag49
(g70
g51
NtRp4631
(dp4632
g54
(dp4633
g81
g82
ssg63
g4622
sg56
(lp4634
S':'
asbag49
(g70
g51
NtRp4635
(dp4636
g54
(dp4637
sg63
g4622
sg56
(lp4638
g49
(g50
g51
NtRp4639
(dp4640
g54
(dp4641
g62
I5
ssg63
g4635
sg56
(lp4642
S"<open file '/Applications/web2py.app/Contents/Resources/applications/MR/sessions/127.0.0.1-56f6c833-4495-4158-afa1-0ddb41c94ce0', mode 'rb+' at 0x7e01650>"
p4643
asbasbasbag49
(g65
g51
NtRp4644
(dp4645
g54
(dp4646
sg63
g3243
sg56
(lp4647
g49
(g70
g51
NtRp4648
(dp4649
g54
(dp4650
g74
g75
ssg63
g4644
sg56
(lp4651
S'session_filename'
p4652
asbag49
(g70
g51
NtRp4653
(dp4654
g54
(dp4655
g81
g82
ssg63
g4644
sg56
(lp4656
S':'
asbag49
(g70
g51
NtRp4657
(dp4658
g54
(dp4659
sg63
g4644
sg56
(lp4660
g49
(g50
g51
NtRp4661
(dp4662
g54
(dp4663
g62
I5
ssg63
g4657
sg56
(lp4664
S'/Applications/web2py.app/Contents/Resources/applications/MR/sessions/127.0.0.1-56f6c833-4495-4158-afa1-0ddb41c94ce0'
p4665
asbasbasbag49
(g65
g51
NtRp4666
(dp4667
g54
(dp4668
sg63
g3243
sg56
(lp4669
g49
(g70
g51
NtRp4670
(dp4671
g54
(dp4672
g74
g75
ssg63
g4666
sg56
(lp4673
S'session_id'
p4674
asbag49
(g70
g51
NtRp4675
(dp4676
g54
(dp4677
g81
g82
ssg63
g4666
sg56
(lp4678
S':'
asbag49
(g70
g51
NtRp4679
(dp4680
g54
(dp4681
sg63
g4666
sg56
(lp4682
g49
(g50
g51
NtRp4683
(dp4684
g54
(dp4685
g62
I5
ssg63
g4679
sg56
(lp4686
g446
asbasbasbag49
(g65
g51
NtRp4687
(dp4688
g54
(dp4689
sg63
g3243
sg56
(lp4690
g49
(g70
g51
NtRp4691
(dp4692
g54
(dp4693
g74
g75
ssg63
g4687
sg56
(lp4694
S'session_id_name'
p4695
asbag49
(g70
g51
NtRp4696
(dp4697
g54
(dp4698
g81
g82
ssg63
g4687
sg56
(lp4699
S':'
asbag49
(g70
g51
NtRp4700
(dp4701
g54
(dp4702
sg63
g4687
sg56
(lp4703
g49
(g50
g51
NtRp4704
(dp4705
g54
(dp4706
g62
I5
ssg63
g4700
sg56
(lp4707
g3300
asbasbasbag49
(g65
g51
NtRp4708
(dp4709
g54
(dp4710
sg63
g3243
sg56
(lp4711
g49
(g70
g51
NtRp4712
(dp4713
g54
(dp4714
g74
g75
ssg63
g4708
sg56
(lp4715
S'session_locked'
p4716
asbag49
(g70
g51
NtRp4717
(dp4718
g54
(dp4719
g81
g82
ssg63
g4708
sg56
(lp4720
S':'
asbag49
(g70
g51
NtRp4721
(dp4722
g54
(dp4723
sg63
g4708
sg56
(lp4724
g49
(g50
g51
NtRp4725
(dp4726
g54
(dp4727
g62
I5
ssg63
g4721
sg56
(lp4728
g916
asbasbasbag49
(g65
g51
NtRp4729
(dp4730
g54
(dp4731
sg63
g3243
sg56
(lp4732
g49
(g70
g51
NtRp4733
(dp4734
g54
(dp4735
g74
g75
ssg63
g4729
sg56
(lp4736
S'session_new'
p4737
asbag49
(g70
g51
NtRp4738
(dp4739
g54
(dp4740
g81
g82
ssg63
g4729
sg56
(lp4741
S':'
asbag49
(g70
g51
NtRp4742
(dp4743
g54
(dp4744
sg63
g4729
sg56
(lp4745
g49
(g50
g51
NtRp4746
(dp4747
g54
(dp4748
g62
I5
ssg63
g4742
sg56
(lp4749
g92
asbasbasbag49
(g65
g51
NtRp4750
(dp4751
g54
(dp4752
sg63
g3243
sg56
(lp4753
g49
(g70
g51
NtRp4754
(dp4755
g54
(dp4756
g74
g75
ssg63
g4750
sg56
(lp4757
S'session_storage_type'
p4758
asbag49
(g70
g51
NtRp4759
(dp4760
g54
(dp4761
g81
g82
ssg63
g4750
sg56
(lp4762
S':'
asbag49
(g70
g51
NtRp4763
(dp4764
g54
(dp4765
sg63
g4750
sg56
(lp4766
g49
(g50
g51
NtRp4767
(dp4768
g54
(dp4769
g62
I5
ssg63
g4763
sg56
(lp4770
g3131
asbasbasbag49
(g65
g51
NtRp4771
(dp4772
g54
(dp4773
sg63
g3243
sg56
(lp4774
g49
(g70
g51
NtRp4775
(dp4776
g54
(dp4777
g74
g75
ssg63
g4771
sg56
(lp4778
S'status'
p4779
asbag49
(g70
g51
NtRp4780
(dp4781
g54
(dp4782
g81
g82
ssg63
g4771
sg56
(lp4783
S':'
asbag49
(g70
g51
NtRp4784
(dp4785
g54
(dp4786
sg63
g4771
sg56
(lp4787
g49
(g50
g51
NtRp4788
(dp4789
g54
(dp4790
g62
I5
ssg63
g4784
sg56
(lp4791
S'200'
p4792
asbasbasbag49
(g65
g51
NtRp4793
(dp4794
g54
(dp4795
sg63
g3243
sg56
(lp4796
g49
(g70
g51
NtRp4797
(dp4798
g54
(dp4799
g74
g75
ssg63
g4793
sg56
(lp4800
S'subtitle'
p4801
asbag49
(g70
g51
NtRp4802
(dp4803
g54
(dp4804
g81
g82
ssg63
g4793
sg56
(lp4805
S':'
asbag49
(g70
g51
NtRp4806
(dp4807
g54
(dp4808
sg63
g4793
sg56
(lp4809
g49
(g50
g51
NtRp4810
(dp4811
g54
(dp4812
g62
I5
ssg63
g4806
sg56
(lp4813
g3757
(S's\r\x00\x00\x00\xe8\xab\x8b\xe8\xaa\xbf\xe6\x95\xb4\xe6\x88\x91!'
tRp4814
asbasbasbag49
(g65
g51
NtRp4815
(dp4816
g54
(dp4817
sg63
g3243
sg56
(lp4818
g49
(g70
g51
NtRp4819
(dp4820
g54
(dp4821
g74
g75
ssg63
g4815
sg56
(lp4822
S'title'
p4823
asbag49
(g70
g51
NtRp4824
(dp4825
g54
(dp4826
g81
g82
ssg63
g4815
sg56
(lp4827
S':'
asbag49
(g70
g51
NtRp4828
(dp4829
g54
(dp4830
sg63
g4815
sg56
(lp4831
g49
(g50
g51
NtRp4832
(dp4833
g54
(dp4834
g62
I5
ssg63
g4828
sg56
(lp4835
S'Mr'
p4836
asbasbasbag49
(g65
g51
NtRp4837
(dp4838
g54
(dp4839
sg63
g3243
sg56
(lp4840
g49
(g70
g51
NtRp4841
(dp4842
g54
(dp4843
g74
g75
ssg63
g4837
sg56
(lp4844
S'view'
p4845
asbag49
(g70
g51
NtRp4846
(dp4847
g54
(dp4848
g81
g82
ssg63
g4837
sg56
(lp4849
S':'
asbag49
(g70
g51
NtRp4850
(dp4851
g54
(dp4852
sg63
g4837
sg56
(lp4853
g49
(g50
g51
NtRp4854
(dp4855
g54
(dp4856
g62
I5
ssg63
g4850
sg56
(lp4857
S'default/mobile_user_register.html'
p4858
asbasbasbasbasbsS'locals'
p4859
(dp4860
S'rows'
p4861
S'<Rows (0)>'
p4862
sS'firstname'
p4863
S'None'
p4864
sS'lastname'
p4865
S'None'
p4866
sS'country'
p4867
S'None'
p4868
sS'password'
p4869
S'None'
p4870
sS'email'
p4871
S'None'
p4872
sssS'traceback'
p4873
S'Traceback (most recent call last):\n  File "/home/mdipierro/web2py/gluon/restricted.py", line 212, in restricted\n  File "/Applications/web2py.app/Contents/Resources/applications/MR/controllers/default.py", line 93, in <module>\n  File "/home/mdipierro/web2py/gluon/globals.py", line 193, in <lambda>\n  File "/Applications/web2py.app/Contents/Resources/applications/MR/controllers/default.py", line 58, in mobile_user_register\nNameError: global name \'count\' is not defined\n'
p4874
s.