(dp1
S'output'
p2
S"<type 'exceptions.NameError'> global name 'status' is not defined"
p3
sS'layer'
p4
S'/Applications/web2py.app/Contents/Resources/applications/MR/controllers/default.py'
p5
sS'code'
p6
S'# -*- coding: utf-8 -*-\n# this file is released under public domain and you can use without limitations\n\n#########################################################################\n## This is a samples controller\n## - index is the default action of any application\n## - user is required for authentication and authorization\n## - download is for downloading files uploaded in the db (does streaming)\n## - call exposes all registered services (none by default)\n#########################################################################\nimport gluon.utils as TT\n\ndef index():\n    # return dict(message=T(\'Hello World\'))\n    return "index"\n\ndef user():\n    """\n    exposes:\n    http://..../[app]/default/user/login\n    http://..../[app]/default/user/logout\n    http://..../[app]/default/user/register\n    http://..../[app]/default/user/profile\n    http://..../[app]/default/user/retrieve_password\n    http://..../[app]/default/user/change_password\n    use @auth.requires_login()\n        @auth.requires_membership(\'group name\')\n        @auth.requires_permission(\'read\',\'table name\',record_id)\n    to decorate functions that need access control\n    """\n    return dict(form=auth())\n\ndef download():\n    """\n    allows downloading of uploaded files\n    http://..../[app]/default/download/[filename]\n    """\n    return response.download(request, db)\n\n\ndef call():\n    """\n    exposes services. for example:\n    http://..../[app]/default/call/jsonrpc\n    decorate with @services.jsonrpc the functions to expose\n    supports xml, json, xmlrpc, jsonrpc, amfrpc, rss, csv\n    """\n    return service()\n\ndef mobile_user_register():\n    email = request.vars.email\n    password = request.vars.password\n    firstname = request.vars.firstname\n    lastname = request.vars.lastname\n    country = request.vars.country\n    rows = db(db.mobile_user.email==email).select()\n    result = []\n    \n    if len(rows) != 0:\n        result[status] = "exist"\n        return response.json(result)\n    \n    result = TT.md5_hash(password)\n    ret = db.mobile_user.validate_and_insert(email=email, password=password, first_name=firstname, last_name=lastname, md5=result, country=country)\n    if ret.errors:\n        result[status] = "ERROR"\n        return response.json(result)        \n    \n    result[status] = "success"\n    result[result] = result   \n    return response.json(result)\n    \n#@service.jsonrpc\ndef mobile_user_login(email, password):\n    rows = db(db.mobile_user.email==email).select()\n    if len(rows) != 1:\n        return {\'status\': \'ERROR\'}\n    user = rows[0]\n    return {\'status\':\'success\', \'result\': user.md5}\n\n@auth.requires_signature()\ndef data():\n    """\n    http://..../[app]/default/data/tables\n    http://..../[app]/default/data/create/[table]\n    http://..../[app]/default/data/read/[table]/[id]\n    http://..../[app]/default/data/update/[table]/[id]\n    http://..../[app]/default/data/delete/[table]/[id]\n    http://..../[app]/default/data/select/[table]\n    http://..../[app]/default/data/search/[table]\n    but URLs must be signed, i.e. linked with\n      A(\'table\',_href=URL(\'data/tables\',user_signature=True))\n    or with the signed load operator\n      LOAD(\'default\',\'data.load\',args=\'tables\',ajax=True,user_signature=True)\n    """\n    return dict(form=crud())\n\nresponse._vars=response._caller(mobile_user_register)\n'
p7
sS'snapshot'
p8
(dp9
S'exception'
p10
(dp11
S'__hash__'
p12
S"<method-wrapper '__hash__' of exceptions.NameError object at 0x8a61d00>"
p13
sS'__setattr__'
p14
S"<method-wrapper '__setattr__' of exceptions.NameError object at 0x8a61d00>"
p15
sS'__reduce_ex__'
p16
S'<built-in method __reduce_ex__ of exceptions.NameError object at 0x8a61d00>'
p17
sS'__getslice__'
p18
S"<method-wrapper '__getslice__' of exceptions.NameError object at 0x8a61d00>"
p19
sS'__getitem__'
p20
S"<method-wrapper '__getitem__' of exceptions.NameError object at 0x8a61d00>"
p21
sS'__setstate__'
p22
S'<built-in method __setstate__ of exceptions.NameError object at 0x8a61d00>'
p23
sS'__reduce__'
p24
S'<built-in method __reduce__ of exceptions.NameError object at 0x8a61d00>'
p25
sS'__str__'
p26
S"<method-wrapper '__str__' of exceptions.NameError object at 0x8a61d00>"
p27
sS'args'
p28
S'("global name \'status\' is not defined",)'
p29
sS'__getattribute__'
p30
S"<method-wrapper '__getattribute__' of exceptions.NameError object at 0x8a61d00>"
p31
sS'__class__'
p32
S"<type 'exceptions.NameError'>"
p33
sS'__delattr__'
p34
S"<method-wrapper '__delattr__' of exceptions.NameError object at 0x8a61d00>"
p35
sS'__repr__'
p36
S"<method-wrapper '__repr__' of exceptions.NameError object at 0x8a61d00>"
p37
sS'__dict__'
p38
S'{}'
p39
sS'__doc__'
p40
S"'Name not found globally.'"
p41
sS'__init__'
p42
S"<method-wrapper '__init__' of exceptions.NameError object at 0x8a61d00>"
p43
sS'__new__'
p44
S'<built-in method __new__ of type object at 0x5f9640>'
p45
ssS'evalue'
p46
S"global name 'status' is not defined"
p47
sS'request'
p48
ccopy_reg
_reconstructor
p49
(cgluon.html
BEAUTIFY
p50
c__builtin__
object
p51
NtRp52
(dp53
S'attributes'
p54
(dp55
sS'components'
p56
(lp57
g49
(cgluon.html
TABLE
p58
g51
NtRp59
(dp60
g54
(dp61
S'level'
p62
I5
ssS'parent'
p63
Nsg56
(lp64
g49
(cgluon.html
TR
p65
g51
NtRp66
(dp67
g54
(dp68
sg63
g59
sg56
(lp69
g49
(cgluon.html
TD
p70
g51
NtRp71
(dp72
g54
(dp73
S'_style'
p74
S'font-weight:bold;vertical-align:top'
p75
ssg63
g66
sg56
(lp76
S'ajax'
p77
asbag49
(g70
g51
NtRp78
(dp79
g54
(dp80
S'_valign'
p81
S'top'
p82
ssg63
g66
sg56
(lp83
S':'
asbag49
(g70
g51
NtRp84
(dp85
g54
(dp86
sg63
g66
sg56
(lp87
g49
(g50
g51
NtRp88
(dp89
g54
(dp90
g62
I5
ssg63
g84
sg56
(lp91
S'False'
p92
asbasbasbag49
(g65
g51
NtRp93
(dp94
g54
(dp95
sg63
g59
sg56
(lp96
g49
(g70
g51
NtRp97
(dp98
g54
(dp99
g74
g75
ssg63
g93
sg56
(lp100
S'application'
p101
asbag49
(g70
g51
NtRp102
(dp103
g54
(dp104
g81
g82
ssg63
g93
sg56
(lp105
S':'
asbag49
(g70
g51
NtRp106
(dp107
g54
(dp108
sg63
g93
sg56
(lp109
g49
(g50
g51
NtRp110
(dp111
g54
(dp112
g62
I5
ssg63
g106
sg56
(lp113
S'MR'
p114
asbasbasbag49
(g65
g51
NtRp115
(dp116
g54
(dp117
sg63
g59
sg56
(lp118
g49
(g70
g51
NtRp119
(dp120
g54
(dp121
g74
g75
ssg63
g115
sg56
(lp122
g28
asbag49
(g70
g51
NtRp123
(dp124
g54
(dp125
g81
g82
ssg63
g115
sg56
(lp126
S':'
asbag49
(g70
g51
NtRp127
(dp128
g54
(dp129
sg63
g115
sg56
(lp130
g49
(g50
g51
NtRp131
(dp132
g54
(dp133
g62
I5
ssg63
g127
sg56
(lp134
g49
(g58
g51
NtRp135
(dp136
g54
(dp137
g62
I4
ssg63
Nsg56
(lp138
sbasbasbasbag49
(g65
g51
NtRp139
(dp140
g54
(dp141
sg63
g59
sg56
(lp142
g49
(g70
g51
NtRp143
(dp144
g54
(dp145
g74
g75
ssg63
g139
sg56
(lp146
S'body'
p147
asbag49
(g70
g51
NtRp148
(dp149
g54
(dp150
g81
g82
ssg63
g139
sg56
(lp151
S':'
asbag49
(g70
g51
NtRp152
(dp153
g54
(dp154
sg63
g139
sg56
(lp155
g49
(g50
g51
NtRp156
(dp157
g54
(dp158
g62
I5
ssg63
g152
sg56
(lp159
S'<cStringIO.StringO object at 0x907b6e0>'
p160
asbasbasbag49
(g65
g51
NtRp161
(dp162
g54
(dp163
sg63
g59
sg56
(lp164
g49
(g70
g51
NtRp165
(dp166
g54
(dp167
g74
g75
ssg63
g161
sg56
(lp168
S'cid'
p169
asbag49
(g70
g51
NtRp170
(dp171
g54
(dp172
g81
g82
ssg63
g161
sg56
(lp173
S':'
asbag49
(g70
g51
NtRp174
(dp175
g54
(dp176
sg63
g161
sg56
(lp177
g49
(g50
g51
NtRp178
(dp179
g54
(dp180
g62
I5
ssg63
g174
sg56
(lp181
S'None'
p182
asbasbasbag49
(g65
g51
NtRp183
(dp184
g54
(dp185
sg63
g59
sg56
(lp186
g49
(g70
g51
NtRp187
(dp188
g54
(dp189
g74
g75
ssg63
g183
sg56
(lp190
S'client'
p191
asbag49
(g70
g51
NtRp192
(dp193
g54
(dp194
g81
g82
ssg63
g183
sg56
(lp195
S':'
asbag49
(g70
g51
NtRp196
(dp197
g54
(dp198
sg63
g183
sg56
(lp199
g49
(g50
g51
NtRp200
(dp201
g54
(dp202
g62
I5
ssg63
g196
sg56
(lp203
S'127.0.0.1'
p204
asbasbasbag49
(g65
g51
NtRp205
(dp206
g54
(dp207
sg63
g59
sg56
(lp208
g49
(g70
g51
NtRp209
(dp210
g54
(dp211
g74
g75
ssg63
g205
sg56
(lp212
S'controller'
p213
asbag49
(g70
g51
NtRp214
(dp215
g54
(dp216
g81
g82
ssg63
g205
sg56
(lp217
S':'
asbag49
(g70
g51
NtRp218
(dp219
g54
(dp220
sg63
g205
sg56
(lp221
g49
(g50
g51
NtRp222
(dp223
g54
(dp224
g62
I5
ssg63
g218
sg56
(lp225
S'default'
p226
asbasbasbag49
(g65
g51
NtRp227
(dp228
g54
(dp229
sg63
g59
sg56
(lp230
g49
(g70
g51
NtRp231
(dp232
g54
(dp233
g74
g75
ssg63
g227
sg56
(lp234
S'cookies'
p235
asbag49
(g70
g51
NtRp236
(dp237
g54
(dp238
g81
g82
ssg63
g227
sg56
(lp239
S':'
asbag49
(g70
g51
NtRp240
(dp241
g54
(dp242
sg63
g227
sg56
(lp243
g49
(g50
g51
NtRp244
(dp245
g54
(dp246
g62
I5
ssg63
g240
sg56
(lp247
g49
(g58
g51
NtRp248
(dp249
g54
(dp250
g62
I4
ssg63
Nsg56
(lp251
g49
(g65
g51
NtRp252
(dp253
g54
(dp254
sg63
g248
sg56
(lp255
g49
(g70
g51
NtRp256
(dp257
g54
(dp258
g74
g75
ssg63
g252
sg56
(lp259
S'session_id_admin'
p260
asbag49
(g70
g51
NtRp261
(dp262
g54
(dp263
g81
g82
ssg63
g252
sg56
(lp264
S':'
asbag49
(g70
g51
NtRp265
(dp266
g54
(dp267
sg63
g252
sg56
(lp268
g49
(g50
g51
NtRp269
(dp270
g54
(dp271
g62
I4
ssg63
g265
sg56
(lp272
S'127.0.0.1-b7ab76a0-45ac-4b6b-8f97-61c071e8ddc3'
p273
ag49
(g58
g51
NtRp274
(dp275
g54
(dp276
g62
I3
ssg63
Nsg56
(lp277
g49
(g65
g51
NtRp278
(dp279
g54
(dp280
sg63
g274
sg56
(lp281
g49
(g70
g51
NtRp282
(dp283
g54
(dp284
g74
g75
ssg63
g278
sg56
(lp285
S'comment'
p286
asbag49
(g70
g51
NtRp287
(dp288
g54
(dp289
g81
g82
ssg63
g278
sg56
(lp290
S':'
asbag49
(g70
g51
NtRp291
(dp292
g54
(dp293
sg63
g278
sg56
(lp294
g49
(g50
g51
NtRp295
(dp296
g54
(dp297
g62
I3
ssg63
g291
sg56
(lp298
S''
asbasbasbag49
(g65
g51
NtRp299
(dp300
g54
(dp301
sg63
g274
sg56
(lp302
g49
(g70
g51
NtRp303
(dp304
g54
(dp305
g74
g75
ssg63
g299
sg56
(lp306
S'domain'
p307
asbag49
(g70
g51
NtRp308
(dp309
g54
(dp310
g81
g82
ssg63
g299
sg56
(lp311
S':'
asbag49
(g70
g51
NtRp312
(dp313
g54
(dp314
sg63
g299
sg56
(lp315
g49
(g50
g51
NtRp316
(dp317
g54
(dp318
g62
I3
ssg63
g312
sg56
(lp319
S''
asbasbasbag49
(g65
g51
NtRp320
(dp321
g54
(dp322
sg63
g274
sg56
(lp323
g49
(g70
g51
NtRp324
(dp325
g54
(dp326
g74
g75
ssg63
g320
sg56
(lp327
S'expires'
p328
asbag49
(g70
g51
NtRp329
(dp330
g54
(dp331
g81
g82
ssg63
g320
sg56
(lp332
S':'
asbag49
(g70
g51
NtRp333
(dp334
g54
(dp335
sg63
g320
sg56
(lp336
g49
(g50
g51
NtRp337
(dp338
g54
(dp339
g62
I3
ssg63
g333
sg56
(lp340
S''
asbasbasbag49
(g65
g51
NtRp341
(dp342
g54
(dp343
sg63
g274
sg56
(lp344
g49
(g70
g51
NtRp345
(dp346
g54
(dp347
g74
g75
ssg63
g341
sg56
(lp348
S'max-age'
p349
asbag49
(g70
g51
NtRp350
(dp351
g54
(dp352
g81
g82
ssg63
g341
sg56
(lp353
S':'
asbag49
(g70
g51
NtRp354
(dp355
g54
(dp356
sg63
g341
sg56
(lp357
g49
(g50
g51
NtRp358
(dp359
g54
(dp360
g62
I3
ssg63
g354
sg56
(lp361
S''
asbasbasbag49
(g65
g51
NtRp362
(dp363
g54
(dp364
sg63
g274
sg56
(lp365
g49
(g70
g51
NtRp366
(dp367
g54
(dp368
g74
g75
ssg63
g362
sg56
(lp369
S'path'
p370
asbag49
(g70
g51
NtRp371
(dp372
g54
(dp373
g81
g82
ssg63
g362
sg56
(lp374
S':'
asbag49
(g70
g51
NtRp375
(dp376
g54
(dp377
sg63
g362
sg56
(lp378
g49
(g50
g51
NtRp379
(dp380
g54
(dp381
g62
I3
ssg63
g375
sg56
(lp382
S''
asbasbasbag49
(g65
g51
NtRp383
(dp384
g54
(dp385
sg63
g274
sg56
(lp386
g49
(g70
g51
NtRp387
(dp388
g54
(dp389
g74
g75
ssg63
g383
sg56
(lp390
S'secure'
p391
asbag49
(g70
g51
NtRp392
(dp393
g54
(dp394
g81
g82
ssg63
g383
sg56
(lp395
S':'
asbag49
(g70
g51
NtRp396
(dp397
g54
(dp398
sg63
g383
sg56
(lp399
g49
(g50
g51
NtRp400
(dp401
g54
(dp402
g62
I3
ssg63
g396
sg56
(lp403
S''
asbasbasbag49
(g65
g51
NtRp404
(dp405
g54
(dp406
sg63
g274
sg56
(lp407
g49
(g70
g51
NtRp408
(dp409
g54
(dp410
g74
g75
ssg63
g404
sg56
(lp411
S'version'
p412
asbag49
(g70
g51
NtRp413
(dp414
g54
(dp415
g81
g82
ssg63
g404
sg56
(lp416
S':'
asbag49
(g70
g51
NtRp417
(dp418
g54
(dp419
sg63
g404
sg56
(lp420
g49
(g50
g51
NtRp421
(dp422
g54
(dp423
g62
I3
ssg63
g417
sg56
(lp424
S''
asbasbasbasbasbasbasbag49
(g65
g51
NtRp425
(dp426
g54
(dp427
sg63
g248
sg56
(lp428
g49
(g70
g51
NtRp429
(dp430
g54
(dp431
g74
g75
ssg63
g425
sg56
(lp432
S'session_id_mr'
p433
asbag49
(g70
g51
NtRp434
(dp435
g54
(dp436
g81
g82
ssg63
g425
sg56
(lp437
S':'
asbag49
(g70
g51
NtRp438
(dp439
g54
(dp440
sg63
g425
sg56
(lp441
g49
(g50
g51
NtRp442
(dp443
g54
(dp444
g62
I4
ssg63
g438
sg56
(lp445
S'127.0.0.1-01c54a64-3e63-47a8-a67b-a7e1fee963a1'
p446
ag49
(g58
g51
NtRp447
(dp448
g54
(dp449
g62
I3
ssg63
Nsg56
(lp450
g49
(g65
g51
NtRp451
(dp452
g54
(dp453
sg63
g447
sg56
(lp454
g49
(g70
g51
NtRp455
(dp456
g54
(dp457
g74
g75
ssg63
g451
sg56
(lp458
g286
asbag49
(g70
g51
NtRp459
(dp460
g54
(dp461
g81
g82
ssg63
g451
sg56
(lp462
S':'
asbag49
(g70
g51
NtRp463
(dp464
g54
(dp465
sg63
g451
sg56
(lp466
g49
(g50
g51
NtRp467
(dp468
g54
(dp469
g62
I3
ssg63
g463
sg56
(lp470
S''
asbasbasbag49
(g65
g51
NtRp471
(dp472
g54
(dp473
sg63
g447
sg56
(lp474
g49
(g70
g51
NtRp475
(dp476
g54
(dp477
g74
g75
ssg63
g471
sg56
(lp478
g307
asbag49
(g70
g51
NtRp479
(dp480
g54
(dp481
g81
g82
ssg63
g471
sg56
(lp482
S':'
asbag49
(g70
g51
NtRp483
(dp484
g54
(dp485
sg63
g471
sg56
(lp486
g49
(g50
g51
NtRp487
(dp488
g54
(dp489
g62
I3
ssg63
g483
sg56
(lp490
S''
asbasbasbag49
(g65
g51
NtRp491
(dp492
g54
(dp493
sg63
g447
sg56
(lp494
g49
(g70
g51
NtRp495
(dp496
g54
(dp497
g74
g75
ssg63
g491
sg56
(lp498
g328
asbag49
(g70
g51
NtRp499
(dp500
g54
(dp501
g81
g82
ssg63
g491
sg56
(lp502
S':'
asbag49
(g70
g51
NtRp503
(dp504
g54
(dp505
sg63
g491
sg56
(lp506
g49
(g50
g51
NtRp507
(dp508
g54
(dp509
g62
I3
ssg63
g503
sg56
(lp510
S''
asbasbasbag49
(g65
g51
NtRp511
(dp512
g54
(dp513
sg63
g447
sg56
(lp514
g49
(g70
g51
NtRp515
(dp516
g54
(dp517
g74
g75
ssg63
g511
sg56
(lp518
g349
asbag49
(g70
g51
NtRp519
(dp520
g54
(dp521
g81
g82
ssg63
g511
sg56
(lp522
S':'
asbag49
(g70
g51
NtRp523
(dp524
g54
(dp525
sg63
g511
sg56
(lp526
g49
(g50
g51
NtRp527
(dp528
g54
(dp529
g62
I3
ssg63
g523
sg56
(lp530
S''
asbasbasbag49
(g65
g51
NtRp531
(dp532
g54
(dp533
sg63
g447
sg56
(lp534
g49
(g70
g51
NtRp535
(dp536
g54
(dp537
g74
g75
ssg63
g531
sg56
(lp538
g370
asbag49
(g70
g51
NtRp539
(dp540
g54
(dp541
g81
g82
ssg63
g531
sg56
(lp542
S':'
asbag49
(g70
g51
NtRp543
(dp544
g54
(dp545
sg63
g531
sg56
(lp546
g49
(g50
g51
NtRp547
(dp548
g54
(dp549
g62
I3
ssg63
g543
sg56
(lp550
S''
asbasbasbag49
(g65
g51
NtRp551
(dp552
g54
(dp553
sg63
g447
sg56
(lp554
g49
(g70
g51
NtRp555
(dp556
g54
(dp557
g74
g75
ssg63
g551
sg56
(lp558
g391
asbag49
(g70
g51
NtRp559
(dp560
g54
(dp561
g81
g82
ssg63
g551
sg56
(lp562
S':'
asbag49
(g70
g51
NtRp563
(dp564
g54
(dp565
sg63
g551
sg56
(lp566
g49
(g50
g51
NtRp567
(dp568
g54
(dp569
g62
I3
ssg63
g563
sg56
(lp570
S''
asbasbasbag49
(g65
g51
NtRp571
(dp572
g54
(dp573
sg63
g447
sg56
(lp574
g49
(g70
g51
NtRp575
(dp576
g54
(dp577
g74
g75
ssg63
g571
sg56
(lp578
g412
asbag49
(g70
g51
NtRp579
(dp580
g54
(dp581
g81
g82
ssg63
g571
sg56
(lp582
S':'
asbag49
(g70
g51
NtRp583
(dp584
g54
(dp585
sg63
g571
sg56
(lp586
g49
(g50
g51
NtRp587
(dp588
g54
(dp589
g62
I3
ssg63
g583
sg56
(lp590
S''
asbasbasbasbasbasbasbag49
(g65
g51
NtRp591
(dp592
g54
(dp593
sg63
g248
sg56
(lp594
g49
(g70
g51
NtRp595
(dp596
g54
(dp597
g74
g75
ssg63
g591
sg56
(lp598
S'session_id_welcome'
p599
asbag49
(g70
g51
NtRp600
(dp601
g54
(dp602
g81
g82
ssg63
g591
sg56
(lp603
S':'
asbag49
(g70
g51
NtRp604
(dp605
g54
(dp606
sg63
g591
sg56
(lp607
g49
(g50
g51
NtRp608
(dp609
g54
(dp610
g62
I4
ssg63
g604
sg56
(lp611
S'127.0.0.1-a778279e-f52c-445d-8f7c-e233402a4664'
p612
ag49
(g58
g51
NtRp613
(dp614
g54
(dp615
g62
I3
ssg63
Nsg56
(lp616
g49
(g65
g51
NtRp617
(dp618
g54
(dp619
sg63
g613
sg56
(lp620
g49
(g70
g51
NtRp621
(dp622
g54
(dp623
g74
g75
ssg63
g617
sg56
(lp624
g286
asbag49
(g70
g51
NtRp625
(dp626
g54
(dp627
g81
g82
ssg63
g617
sg56
(lp628
S':'
asbag49
(g70
g51
NtRp629
(dp630
g54
(dp631
sg63
g617
sg56
(lp632
g49
(g50
g51
NtRp633
(dp634
g54
(dp635
g62
I3
ssg63
g629
sg56
(lp636
S''
asbasbasbag49
(g65
g51
NtRp637
(dp638
g54
(dp639
sg63
g613
sg56
(lp640
g49
(g70
g51
NtRp641
(dp642
g54
(dp643
g74
g75
ssg63
g637
sg56
(lp644
g307
asbag49
(g70
g51
NtRp645
(dp646
g54
(dp647
g81
g82
ssg63
g637
sg56
(lp648
S':'
asbag49
(g70
g51
NtRp649
(dp650
g54
(dp651
sg63
g637
sg56
(lp652
g49
(g50
g51
NtRp653
(dp654
g54
(dp655
g62
I3
ssg63
g649
sg56
(lp656
S''
asbasbasbag49
(g65
g51
NtRp657
(dp658
g54
(dp659
sg63
g613
sg56
(lp660
g49
(g70
g51
NtRp661
(dp662
g54
(dp663
g74
g75
ssg63
g657
sg56
(lp664
g328
asbag49
(g70
g51
NtRp665
(dp666
g54
(dp667
g81
g82
ssg63
g657
sg56
(lp668
S':'
asbag49
(g70
g51
NtRp669
(dp670
g54
(dp671
sg63
g657
sg56
(lp672
g49
(g50
g51
NtRp673
(dp674
g54
(dp675
g62
I3
ssg63
g669
sg56
(lp676
S''
asbasbasbag49
(g65
g51
NtRp677
(dp678
g54
(dp679
sg63
g613
sg56
(lp680
g49
(g70
g51
NtRp681
(dp682
g54
(dp683
g74
g75
ssg63
g677
sg56
(lp684
g349
asbag49
(g70
g51
NtRp685
(dp686
g54
(dp687
g81
g82
ssg63
g677
sg56
(lp688
S':'
asbag49
(g70
g51
NtRp689
(dp690
g54
(dp691
sg63
g677
sg56
(lp692
g49
(g50
g51
NtRp693
(dp694
g54
(dp695
g62
I3
ssg63
g689
sg56
(lp696
S''
asbasbasbag49
(g65
g51
NtRp697
(dp698
g54
(dp699
sg63
g613
sg56
(lp700
g49
(g70
g51
NtRp701
(dp702
g54
(dp703
g74
g75
ssg63
g697
sg56
(lp704
g370
asbag49
(g70
g51
NtRp705
(dp706
g54
(dp707
g81
g82
ssg63
g697
sg56
(lp708
S':'
asbag49
(g70
g51
NtRp709
(dp710
g54
(dp711
sg63
g697
sg56
(lp712
g49
(g50
g51
NtRp713
(dp714
g54
(dp715
g62
I3
ssg63
g709
sg56
(lp716
S''
asbasbasbag49
(g65
g51
NtRp717
(dp718
g54
(dp719
sg63
g613
sg56
(lp720
g49
(g70
g51
NtRp721
(dp722
g54
(dp723
g74
g75
ssg63
g717
sg56
(lp724
g391
asbag49
(g70
g51
NtRp725
(dp726
g54
(dp727
g81
g82
ssg63
g717
sg56
(lp728
S':'
asbag49
(g70
g51
NtRp729
(dp730
g54
(dp731
sg63
g717
sg56
(lp732
g49
(g50
g51
NtRp733
(dp734
g54
(dp735
g62
I3
ssg63
g729
sg56
(lp736
S''
asbasbasbag49
(g65
g51
NtRp737
(dp738
g54
(dp739
sg63
g613
sg56
(lp740
g49
(g70
g51
NtRp741
(dp742
g54
(dp743
g74
g75
ssg63
g737
sg56
(lp744
g412
asbag49
(g70
g51
NtRp745
(dp746
g54
(dp747
g81
g82
ssg63
g737
sg56
(lp748
S':'
asbag49
(g70
g51
NtRp749
(dp750
g54
(dp751
sg63
g737
sg56
(lp752
g49
(g50
g51
NtRp753
(dp754
g54
(dp755
g62
I3
ssg63
g749
sg56
(lp756
S''
asbasbasbasbasbasbasbasbasbasbasbag49
(g65
g51
NtRp757
(dp758
g54
(dp759
sg63
g59
sg56
(lp760
g49
(g70
g51
NtRp761
(dp762
g54
(dp763
g74
g75
ssg63
g757
sg56
(lp764
S'env'
p765
asbag49
(g70
g51
NtRp766
(dp767
g54
(dp768
g81
g82
ssg63
g757
sg56
(lp769
S':'
asbag49
(g70
g51
NtRp770
(dp771
g54
(dp772
sg63
g757
sg56
(lp773
g49
(g50
g51
NtRp774
(dp775
g54
(dp776
g62
I5
ssg63
g770
sg56
(lp777
g49
(g58
g51
NtRp778
(dp779
g54
(dp780
g62
I4
ssg63
Nsg56
(lp781
g49
(g65
g51
NtRp782
(dp783
g54
(dp784
sg63
g778
sg56
(lp785
g49
(g70
g51
NtRp786
(dp787
g54
(dp788
g74
g75
ssg63
g782
sg56
(lp789
S'app_folders'
p790
asbag49
(g70
g51
NtRp791
(dp792
g54
(dp793
g81
g82
ssg63
g782
sg56
(lp794
S':'
asbag49
(g70
g51
NtRp795
(dp796
g54
(dp797
sg63
g782
sg56
(lp798
g49
(g50
g51
NtRp799
(dp800
g54
(dp801
g62
I4
ssg63
g795
sg56
(lp802
S"set(['/Applications/web2py.app/Contents/Resources/applications/admin/', '/Applications/web2py.app/Contents/Resources/applications/welcome/', '/Applications/web2py.app/Contents/Resources/applications/MR/'])"
p803
asbasbasbag49
(g65
g51
NtRp804
(dp805
g54
(dp806
sg63
g778
sg56
(lp807
g49
(g70
g51
NtRp808
(dp809
g54
(dp810
g74
g75
ssg63
g804
sg56
(lp811
S'applications_parent'
p812
asbag49
(g70
g51
NtRp813
(dp814
g54
(dp815
g81
g82
ssg63
g804
sg56
(lp816
S':'
asbag49
(g70
g51
NtRp817
(dp818
g54
(dp819
sg63
g804
sg56
(lp820
g49
(g50
g51
NtRp821
(dp822
g54
(dp823
g62
I4
ssg63
g817
sg56
(lp824
S'/Applications/web2py.app/Contents/Resources'
p825
asbasbasbag49
(g65
g51
NtRp826
(dp827
g54
(dp828
sg63
g778
sg56
(lp829
g49
(g70
g51
NtRp830
(dp831
g54
(dp832
g74
g75
ssg63
g826
sg56
(lp833
S'cmd_args'
p834
asbag49
(g70
g51
NtRp835
(dp836
g54
(dp837
g81
g82
ssg63
g826
sg56
(lp838
S':'
asbag49
(g70
g51
NtRp839
(dp840
g54
(dp841
sg63
g826
sg56
(lp842
g49
(g50
g51
NtRp843
(dp844
g54
(dp845
g62
I4
ssg63
g839
sg56
(lp846
g49
(g58
g51
NtRp847
(dp848
g54
(dp849
g62
I3
ssg63
Nsg56
(lp850
sbasbasbasbag49
(g65
g51
NtRp851
(dp852
g54
(dp853
sg63
g778
sg56
(lp854
g49
(g70
g51
NtRp855
(dp856
g54
(dp857
g74
g75
ssg63
g851
sg56
(lp858
S'cmd_options'
p859
asbag49
(g70
g51
NtRp860
(dp861
g54
(dp862
g81
g82
ssg63
g851
sg56
(lp863
S':'
asbag49
(g70
g51
NtRp864
(dp865
g54
(dp866
sg63
g851
sg56
(lp867
g49
(g50
g51
NtRp868
(dp869
g54
(dp870
g62
I4
ssg63
g864
sg56
(lp871
S"<Values at 0x4596f58: {'verbose': False, 'ip': '127.0.0.1', 'with_scheduler': False, 'ips': ['140.142.222.54'], 'shutdown_timeout': 5, 'taskbar': False, 'port': 8000, 'maxthreads': None, 'softcron': False, 'server_name': 'd-140-142-222-54.dhcp4.washington.edu', 'bpython': False, 'nogui': False, 'pid_filename': 'httpserver.pid', 'extcron': False, 'runcron': False, 'run_system_tests': False, 'test': None, 'folder': '/Applications/web2py.app/Contents/Resources', 'config': '', 'import_models': False, 'winservice': '', 'shell': None, 'run': '', 'log_filename': 'httpserver.log', 'debuglevel': 30, 'args': [''], 'socket_timeout': 5, 'ssl_ca_certificate': None, 'scheduler': None, 'profiler_filename': None, 'ssl_private_key': '', 'scheduler_groups': None, 'password': '<ask>', 'request_queue_size': 5, 'ssl_certificate': '', 'cronjob': False, 'numthreads': None, 'quiet': False, 'interfaces': None, 'minthreads': None, 'timeout': 10, 'plain': False, 'nobanner': False}>"
p872
asbasbasbag49
(g65
g51
NtRp873
(dp874
g54
(dp875
sg63
g778
sg56
(lp876
g49
(g70
g51
NtRp877
(dp878
g54
(dp879
g74
g75
ssg63
g873
sg56
(lp880
S'db_sessions'
p881
asbag49
(g70
g51
NtRp882
(dp883
g54
(dp884
g81
g82
ssg63
g873
sg56
(lp885
S':'
asbag49
(g70
g51
NtRp886
(dp887
g54
(dp888
sg63
g873
sg56
(lp889
g49
(g50
g51
NtRp890
(dp891
g54
(dp892
g62
I4
ssg63
g886
sg56
(lp893
S'set([])'
p894
asbasbasbag49
(g65
g51
NtRp895
(dp896
g54
(dp897
sg63
g778
sg56
(lp898
g49
(g70
g51
NtRp899
(dp900
g54
(dp901
g74
g75
ssg63
g895
sg56
(lp902
S'debugging'
p903
asbag49
(g70
g51
NtRp904
(dp905
g54
(dp906
g81
g82
ssg63
g895
sg56
(lp907
S':'
asbag49
(g70
g51
NtRp908
(dp909
g54
(dp910
sg63
g895
sg56
(lp911
g49
(g50
g51
NtRp912
(dp913
g54
(dp914
g62
I4
ssg63
g908
sg56
(lp915
S'True'
p916
asbasbasbag49
(g65
g51
NtRp917
(dp918
g54
(dp919
sg63
g778
sg56
(lp920
g49
(g70
g51
NtRp921
(dp922
g54
(dp923
g74
g75
ssg63
g917
sg56
(lp924
S'gluon_parent'
p925
asbag49
(g70
g51
NtRp926
(dp927
g54
(dp928
g81
g82
ssg63
g917
sg56
(lp929
S':'
asbag49
(g70
g51
NtRp930
(dp931
g54
(dp932
sg63
g917
sg56
(lp933
g49
(g50
g51
NtRp934
(dp935
g54
(dp936
g62
I4
ssg63
g930
sg56
(lp937
S'/Applications/web2py.app/Contents/Resources'
p938
asbasbasbag49
(g65
g51
NtRp939
(dp940
g54
(dp941
sg63
g778
sg56
(lp942
g49
(g70
g51
NtRp943
(dp944
g54
(dp945
g74
g75
ssg63
g939
sg56
(lp946
S'http_accept'
p947
asbag49
(g70
g51
NtRp948
(dp949
g54
(dp950
g81
g82
ssg63
g939
sg56
(lp951
S':'
asbag49
(g70
g51
NtRp952
(dp953
g54
(dp954
sg63
g939
sg56
(lp955
g49
(g50
g51
NtRp956
(dp957
g54
(dp958
g62
I4
ssg63
g952
sg56
(lp959
S'text/html,application/xhtml+xml,application/xml;q=0.9,*/*;q=0.8'
p960
asbasbasbag49
(g65
g51
NtRp961
(dp962
g54
(dp963
sg63
g778
sg56
(lp964
g49
(g70
g51
NtRp965
(dp966
g54
(dp967
g74
g75
ssg63
g961
sg56
(lp968
S'http_accept_charset'
p969
asbag49
(g70
g51
NtRp970
(dp971
g54
(dp972
g81
g82
ssg63
g961
sg56
(lp973
S':'
asbag49
(g70
g51
NtRp974
(dp975
g54
(dp976
sg63
g961
sg56
(lp977
g49
(g50
g51
NtRp978
(dp979
g54
(dp980
g62
I4
ssg63
g974
sg56
(lp981
S'GBK,utf-8;q=0.7,*;q=0.3'
p982
asbasbasbag49
(g65
g51
NtRp983
(dp984
g54
(dp985
sg63
g778
sg56
(lp986
g49
(g70
g51
NtRp987
(dp988
g54
(dp989
g74
g75
ssg63
g983
sg56
(lp990
S'http_accept_encoding'
p991
asbag49
(g70
g51
NtRp992
(dp993
g54
(dp994
g81
g82
ssg63
g983
sg56
(lp995
S':'
asbag49
(g70
g51
NtRp996
(dp997
g54
(dp998
sg63
g983
sg56
(lp999
g49
(g50
g51
NtRp1000
(dp1001
g54
(dp1002
g62
I4
ssg63
g996
sg56
(lp1003
S'gzip,deflate,sdch'
p1004
asbasbasbag49
(g65
g51
NtRp1005
(dp1006
g54
(dp1007
sg63
g778
sg56
(lp1008
g49
(g70
g51
NtRp1009
(dp1010
g54
(dp1011
g74
g75
ssg63
g1005
sg56
(lp1012
S'http_accept_language'
p1013
asbag49
(g70
g51
NtRp1014
(dp1015
g54
(dp1016
g81
g82
ssg63
g1005
sg56
(lp1017
S':'
asbag49
(g70
g51
NtRp1018
(dp1019
g54
(dp1020
sg63
g1005
sg56
(lp1021
g49
(g50
g51
NtRp1022
(dp1023
g54
(dp1024
g62
I4
ssg63
g1018
sg56
(lp1025
S'zh-CN,zh;q=0.8'
p1026
asbasbasbag49
(g65
g51
NtRp1027
(dp1028
g54
(dp1029
sg63
g778
sg56
(lp1030
g49
(g70
g51
NtRp1031
(dp1032
g54
(dp1033
g74
g75
ssg63
g1027
sg56
(lp1034
S'http_connection'
p1035
asbag49
(g70
g51
NtRp1036
(dp1037
g54
(dp1038
g81
g82
ssg63
g1027
sg56
(lp1039
S':'
asbag49
(g70
g51
NtRp1040
(dp1041
g54
(dp1042
sg63
g1027
sg56
(lp1043
g49
(g50
g51
NtRp1044
(dp1045
g54
(dp1046
g62
I4
ssg63
g1040
sg56
(lp1047
S'keep-alive'
p1048
asbasbasbag49
(g65
g51
NtRp1049
(dp1050
g54
(dp1051
sg63
g778
sg56
(lp1052
g49
(g70
g51
NtRp1053
(dp1054
g54
(dp1055
g74
g75
ssg63
g1049
sg56
(lp1056
S'http_cookie'
p1057
asbag49
(g70
g51
NtRp1058
(dp1059
g54
(dp1060
g81
g82
ssg63
g1049
sg56
(lp1061
S':'
asbag49
(g70
g51
NtRp1062
(dp1063
g54
(dp1064
sg63
g1049
sg56
(lp1065
g49
(g50
g51
NtRp1066
(dp1067
g54
(dp1068
g62
I4
ssg63
g1062
sg56
(lp1069
S'session_id_welcome=127.0.0.1-a778279e-f52c-445d-8f7c-e233402a4664; session_id_mr=127.0.0.1-01c54a64-3e63-47a8-a67b-a7e1fee963a1; session_id_admin=127.0.0.1-b7ab76a0-45ac-4b6b-8f97-61c071e8ddc3'
p1070
asbasbasbag49
(g65
g51
NtRp1071
(dp1072
g54
(dp1073
sg63
g778
sg56
(lp1074
g49
(g70
g51
NtRp1075
(dp1076
g54
(dp1077
g74
g75
ssg63
g1071
sg56
(lp1078
S'http_host'
p1079
asbag49
(g70
g51
NtRp1080
(dp1081
g54
(dp1082
g81
g82
ssg63
g1071
sg56
(lp1083
S':'
asbag49
(g70
g51
NtRp1084
(dp1085
g54
(dp1086
sg63
g1071
sg56
(lp1087
g49
(g50
g51
NtRp1088
(dp1089
g54
(dp1090
g62
I4
ssg63
g1084
sg56
(lp1091
S'127.0.0.1:8000'
p1092
asbasbasbag49
(g65
g51
NtRp1093
(dp1094
g54
(dp1095
sg63
g778
sg56
(lp1096
g49
(g70
g51
NtRp1097
(dp1098
g54
(dp1099
g74
g75
ssg63
g1093
sg56
(lp1100
S'http_user_agent'
p1101
asbag49
(g70
g51
NtRp1102
(dp1103
g54
(dp1104
g81
g82
ssg63
g1093
sg56
(lp1105
S':'
asbag49
(g70
g51
NtRp1106
(dp1107
g54
(dp1108
sg63
g1093
sg56
(lp1109
g49
(g50
g51
NtRp1110
(dp1111
g54
(dp1112
g62
I4
ssg63
g1106
sg56
(lp1113
S'Mozilla/5.0 (Macintosh; Intel Mac OS X 10_8_3) AppleWebKit/537.31 (KHTML, like Gecko) Chrome/26.0.1410.65 Safari/537.31'
p1114
asbasbasbag49
(g65
g51
NtRp1115
(dp1116
g54
(dp1117
sg63
g778
sg56
(lp1118
g49
(g70
g51
NtRp1119
(dp1120
g54
(dp1121
g74
g75
ssg63
g1115
sg56
(lp1122
S'is_jython'
p1123
asbag49
(g70
g51
NtRp1124
(dp1125
g54
(dp1126
g81
g82
ssg63
g1115
sg56
(lp1127
S':'
asbag49
(g70
g51
NtRp1128
(dp1129
g54
(dp1130
sg63
g1115
sg56
(lp1131
g49
(g50
g51
NtRp1132
(dp1133
g54
(dp1134
g62
I4
ssg63
g1128
sg56
(lp1135
g92
asbasbasbag49
(g65
g51
NtRp1136
(dp1137
g54
(dp1138
sg63
g778
sg56
(lp1139
g49
(g70
g51
NtRp1140
(dp1141
g54
(dp1142
g74
g75
ssg63
g1136
sg56
(lp1143
S'is_pypy'
p1144
asbag49
(g70
g51
NtRp1145
(dp1146
g54
(dp1147
g81
g82
ssg63
g1136
sg56
(lp1148
S':'
asbag49
(g70
g51
NtRp1149
(dp1150
g54
(dp1151
sg63
g1136
sg56
(lp1152
g49
(g50
g51
NtRp1153
(dp1154
g54
(dp1155
g62
I4
ssg63
g1149
sg56
(lp1156
g92
asbasbasbag49
(g65
g51
NtRp1157
(dp1158
g54
(dp1159
sg63
g778
sg56
(lp1160
g49
(g70
g51
NtRp1161
(dp1162
g54
(dp1163
g74
g75
ssg63
g1157
sg56
(lp1164
S'local_hosts'
p1165
asbag49
(g70
g51
NtRp1166
(dp1167
g54
(dp1168
g81
g82
ssg63
g1157
sg56
(lp1169
S':'
asbag49
(g70
g51
NtRp1170
(dp1171
g54
(dp1172
sg63
g1157
sg56
(lp1173
g49
(g50
g51
NtRp1174
(dp1175
g54
(dp1176
g62
I4
ssg63
g1170
sg56
(lp1177
g49
(g58
g51
NtRp1178
(dp1179
g54
(dp1180
g62
I3
ssg63
Nsg56
(lp1181
g49
(g65
g51
NtRp1182
(dp1183
g54
(dp1184
sg63
g1178
sg56
(lp1185
g49
(g70
g51
NtRp1186
(dp1187
g54
(dp1188
sg63
g1182
sg56
(lp1189
g49
(g50
g51
NtRp1190
(dp1191
g54
(dp1192
g62
I3
ssg63
g1186
sg56
(lp1193
S'::1'
p1194
asbasbasbag49
(g65
g51
NtRp1195
(dp1196
g54
(dp1197
sg63
g1178
sg56
(lp1198
g49
(g70
g51
NtRp1199
(dp1200
g54
(dp1201
sg63
g1195
sg56
(lp1202
g49
(g50
g51
NtRp1203
(dp1204
g54
(dp1205
g62
I3
ssg63
g1199
sg56
(lp1206
S'140.142.222.54'
p1207
asbasbasbag49
(g65
g51
NtRp1208
(dp1209
g54
(dp1210
sg63
g1178
sg56
(lp1211
g49
(g70
g51
NtRp1212
(dp1213
g54
(dp1214
sg63
g1208
sg56
(lp1215
g49
(g50
g51
NtRp1216
(dp1217
g54
(dp1218
g62
I3
ssg63
g1212
sg56
(lp1219
S'::ffff:127.0.0.1'
p1220
asbasbasbag49
(g65
g51
NtRp1221
(dp1222
g54
(dp1223
sg63
g1178
sg56
(lp1224
g49
(g70
g51
NtRp1225
(dp1226
g54
(dp1227
sg63
g1221
sg56
(lp1228
g49
(g50
g51
NtRp1229
(dp1230
g54
(dp1231
g62
I3
ssg63
g1225
sg56
(lp1232
S'127.0.0.1'
p1233
asbasbasbag49
(g65
g51
NtRp1234
(dp1235
g54
(dp1236
sg63
g1178
sg56
(lp1237
g49
(g70
g51
NtRp1238
(dp1239
g54
(dp1240
sg63
g1234
sg56
(lp1241
g49
(g50
g51
NtRp1242
(dp1243
g54
(dp1244
g62
I3
ssg63
g1238
sg56
(lp1245
S'd-140-142-222-54.dhcp4.washington.edu'
p1246
asbasbasbasbasbasbasbag49
(g65
g51
NtRp1247
(dp1248
g54
(dp1249
sg63
g778
sg56
(lp1250
g49
(g70
g51
NtRp1251
(dp1252
g54
(dp1253
g74
g75
ssg63
g1247
sg56
(lp1254
S'path_info'
p1255
asbag49
(g70
g51
NtRp1256
(dp1257
g54
(dp1258
g81
g82
ssg63
g1247
sg56
(lp1259
S':'
asbag49
(g70
g51
NtRp1260
(dp1261
g54
(dp1262
sg63
g1247
sg56
(lp1263
g49
(g50
g51
NtRp1264
(dp1265
g54
(dp1266
g62
I4
ssg63
g1260
sg56
(lp1267
S'/MR/default/mobile_user_register'
p1268
asbasbasbag49
(g65
g51
NtRp1269
(dp1270
g54
(dp1271
sg63
g778
sg56
(lp1272
g49
(g70
g51
NtRp1273
(dp1274
g54
(dp1275
g74
g75
ssg63
g1269
sg56
(lp1276
S'query_string'
p1277
asbag49
(g70
g51
NtRp1278
(dp1279
g54
(dp1280
g81
g82
ssg63
g1269
sg56
(lp1281
S':'
asbag49
(g70
g51
NtRp1282
(dp1283
g54
(dp1284
sg63
g1269
sg56
(lp1285
g49
(g50
g51
NtRp1286
(dp1287
g54
(dp1288
g62
I4
ssg63
g1282
sg56
(lp1289
S'email=adsf&password=adsf&firstname=asdf&lastname=asdf&country='
p1290
asbasbasbag49
(g65
g51
NtRp1291
(dp1292
g54
(dp1293
sg63
g778
sg56
(lp1294
g49
(g70
g51
NtRp1295
(dp1296
g54
(dp1297
g74
g75
ssg63
g1291
sg56
(lp1298
S'remote_addr'
p1299
asbag49
(g70
g51
NtRp1300
(dp1301
g54
(dp1302
g81
g82
ssg63
g1291
sg56
(lp1303
S':'
asbag49
(g70
g51
NtRp1304
(dp1305
g54
(dp1306
sg63
g1291
sg56
(lp1307
g49
(g50
g51
NtRp1308
(dp1309
g54
(dp1310
g62
I4
ssg63
g1304
sg56
(lp1311
g204
asbasbasbag49
(g65
g51
NtRp1312
(dp1313
g54
(dp1314
sg63
g778
sg56
(lp1315
g49
(g70
g51
NtRp1316
(dp1317
g54
(dp1318
g74
g75
ssg63
g1312
sg56
(lp1319
S'remote_port'
p1320
asbag49
(g70
g51
NtRp1321
(dp1322
g54
(dp1323
g81
g82
ssg63
g1312
sg56
(lp1324
S':'
asbag49
(g70
g51
NtRp1325
(dp1326
g54
(dp1327
sg63
g1312
sg56
(lp1328
g49
(g50
g51
NtRp1329
(dp1330
g54
(dp1331
g62
I4
ssg63
g1325
sg56
(lp1332
S'51415'
p1333
asbasbasbag49
(g65
g51
NtRp1334
(dp1335
g54
(dp1336
sg63
g778
sg56
(lp1337
g49
(g70
g51
NtRp1338
(dp1339
g54
(dp1340
g74
g75
ssg63
g1334
sg56
(lp1341
S'request_method'
p1342
asbag49
(g70
g51
NtRp1343
(dp1344
g54
(dp1345
g81
g82
ssg63
g1334
sg56
(lp1346
S':'
asbag49
(g70
g51
NtRp1347
(dp1348
g54
(dp1349
sg63
g1334
sg56
(lp1350
g49
(g50
g51
NtRp1351
(dp1352
g54
(dp1353
g62
I4
ssg63
g1347
sg56
(lp1354
S'GET'
p1355
asbasbasbag49
(g65
g51
NtRp1356
(dp1357
g54
(dp1358
sg63
g778
sg56
(lp1359
g49
(g70
g51
NtRp1360
(dp1361
g54
(dp1362
g74
g75
ssg63
g1356
sg56
(lp1363
S'request_uri'
p1364
asbag49
(g70
g51
NtRp1365
(dp1366
g54
(dp1367
g81
g82
ssg63
g1356
sg56
(lp1368
S':'
asbag49
(g70
g51
NtRp1369
(dp1370
g54
(dp1371
sg63
g1356
sg56
(lp1372
g49
(g50
g51
NtRp1373
(dp1374
g54
(dp1375
g62
I4
ssg63
g1369
sg56
(lp1376
S'/MR/default/mobile_user_register?email=adsf&password=adsf&firstname=asdf&lastname=asdf&country='
p1377
asbasbasbag49
(g65
g51
NtRp1378
(dp1379
g54
(dp1380
sg63
g778
sg56
(lp1381
g49
(g70
g51
NtRp1382
(dp1383
g54
(dp1384
g74
g75
ssg63
g1378
sg56
(lp1385
S'script_name'
p1386
asbag49
(g70
g51
NtRp1387
(dp1388
g54
(dp1389
g81
g82
ssg63
g1378
sg56
(lp1390
S':'
asbag49
(g70
g51
NtRp1391
(dp1392
g54
(dp1393
sg63
g1378
sg56
(lp1394
g49
(g50
g51
NtRp1395
(dp1396
g54
(dp1397
g62
I4
ssg63
g1391
sg56
(lp1398
S''
asbasbasbag49
(g65
g51
NtRp1399
(dp1400
g54
(dp1401
sg63
g778
sg56
(lp1402
g49
(g70
g51
NtRp1403
(dp1404
g54
(dp1405
g74
g75
ssg63
g1399
sg56
(lp1406
S'server_name'
p1407
asbag49
(g70
g51
NtRp1408
(dp1409
g54
(dp1410
g81
g82
ssg63
g1399
sg56
(lp1411
S':'
asbag49
(g70
g51
NtRp1412
(dp1413
g54
(dp1414
sg63
g1399
sg56
(lp1415
g49
(g50
g51
NtRp1416
(dp1417
g54
(dp1418
g62
I4
ssg63
g1412
sg56
(lp1419
S'd-140-142-222-54.dhcp4.washington.edu'
p1420
asbasbasbag49
(g65
g51
NtRp1421
(dp1422
g54
(dp1423
sg63
g778
sg56
(lp1424
g49
(g70
g51
NtRp1425
(dp1426
g54
(dp1427
g74
g75
ssg63
g1421
sg56
(lp1428
S'server_port'
p1429
asbag49
(g70
g51
NtRp1430
(dp1431
g54
(dp1432
g81
g82
ssg63
g1421
sg56
(lp1433
S':'
asbag49
(g70
g51
NtRp1434
(dp1435
g54
(dp1436
sg63
g1421
sg56
(lp1437
g49
(g50
g51
NtRp1438
(dp1439
g54
(dp1440
g62
I4
ssg63
g1434
sg56
(lp1441
S'8000'
p1442
asbasbasbag49
(g65
g51
NtRp1443
(dp1444
g54
(dp1445
sg63
g778
sg56
(lp1446
g49
(g70
g51
NtRp1447
(dp1448
g54
(dp1449
g74
g75
ssg63
g1443
sg56
(lp1450
S'server_protocol'
p1451
asbag49
(g70
g51
NtRp1452
(dp1453
g54
(dp1454
g81
g82
ssg63
g1443
sg56
(lp1455
S':'
asbag49
(g70
g51
NtRp1456
(dp1457
g54
(dp1458
sg63
g1443
sg56
(lp1459
g49
(g50
g51
NtRp1460
(dp1461
g54
(dp1462
g62
I4
ssg63
g1456
sg56
(lp1463
S'HTTP/1.1'
p1464
asbasbasbag49
(g65
g51
NtRp1465
(dp1466
g54
(dp1467
sg63
g778
sg56
(lp1468
g49
(g70
g51
NtRp1469
(dp1470
g54
(dp1471
g74
g75
ssg63
g1465
sg56
(lp1472
S'server_software'
p1473
asbag49
(g70
g51
NtRp1474
(dp1475
g54
(dp1476
g81
g82
ssg63
g1465
sg56
(lp1477
S':'
asbag49
(g70
g51
NtRp1478
(dp1479
g54
(dp1480
sg63
g1465
sg56
(lp1481
g49
(g50
g51
NtRp1482
(dp1483
g54
(dp1484
g62
I4
ssg63
g1478
sg56
(lp1485
S'Rocket 1.2.6'
p1486
asbasbasbag49
(g65
g51
NtRp1487
(dp1488
g54
(dp1489
sg63
g778
sg56
(lp1490
g49
(g70
g51
NtRp1491
(dp1492
g54
(dp1493
g74
g75
ssg63
g1487
sg56
(lp1494
S'web2py_path'
p1495
asbag49
(g70
g51
NtRp1496
(dp1497
g54
(dp1498
g81
g82
ssg63
g1487
sg56
(lp1499
S':'
asbag49
(g70
g51
NtRp1500
(dp1501
g54
(dp1502
sg63
g1487
sg56
(lp1503
g49
(g50
g51
NtRp1504
(dp1505
g54
(dp1506
g62
I4
ssg63
g1500
sg56
(lp1507
g825
asbasbasbag49
(g65
g51
NtRp1508
(dp1509
g54
(dp1510
sg63
g778
sg56
(lp1511
g49
(g70
g51
NtRp1512
(dp1513
g54
(dp1514
g74
g75
ssg63
g1508
sg56
(lp1515
S'web2py_version'
p1516
asbag49
(g70
g51
NtRp1517
(dp1518
g54
(dp1519
g81
g82
ssg63
g1508
sg56
(lp1520
S':'
asbag49
(g70
g51
NtRp1521
(dp1522
g54
(dp1523
sg63
g1508
sg56
(lp1524
g49
(g50
g51
NtRp1525
(dp1526
g54
(dp1527
g62
I4
ssg63
g1521
sg56
(lp1528
g49
(g58
g51
NtRp1529
(dp1530
g54
(dp1531
g62
I3
ssg63
Nsg56
(lp1532
g49
(g65
g51
NtRp1533
(dp1534
g54
(dp1535
sg63
g1529
sg56
(lp1536
g49
(g70
g51
NtRp1537
(dp1538
g54
(dp1539
sg63
g1533
sg56
(lp1540
g49
(g50
g51
NtRp1541
(dp1542
g54
(dp1543
g62
I3
ssg63
g1537
sg56
(lp1544
S'2'
asbasbasbag49
(g65
g51
NtRp1545
(dp1546
g54
(dp1547
sg63
g1529
sg56
(lp1548
g49
(g70
g51
NtRp1549
(dp1550
g54
(dp1551
sg63
g1545
sg56
(lp1552
g49
(g50
g51
NtRp1553
(dp1554
g54
(dp1555
g62
I3
ssg63
g1549
sg56
(lp1556
S'4'
asbasbasbag49
(g65
g51
NtRp1557
(dp1558
g54
(dp1559
sg63
g1529
sg56
(lp1560
g49
(g70
g51
NtRp1561
(dp1562
g54
(dp1563
sg63
g1557
sg56
(lp1564
g49
(g50
g51
NtRp1565
(dp1566
g54
(dp1567
g62
I3
ssg63
g1561
sg56
(lp1568
S'5'
asbasbasbag49
(g65
g51
NtRp1569
(dp1570
g54
(dp1571
sg63
g1529
sg56
(lp1572
g49
(g70
g51
NtRp1573
(dp1574
g54
(dp1575
sg63
g1569
sg56
(lp1576
g49
(g50
g51
NtRp1577
(dp1578
g54
(dp1579
g62
I3
ssg63
g1573
sg56
(lp1580
S'stable'
p1581
asbasbasbag49
(g65
g51
NtRp1582
(dp1583
g54
(dp1584
sg63
g1529
sg56
(lp1585
g49
(g70
g51
NtRp1586
(dp1587
g54
(dp1588
sg63
g1582
sg56
(lp1589
g49
(g50
g51
NtRp1590
(dp1591
g54
(dp1592
g62
I3
ssg63
g1586
sg56
(lp1593
S'datetime.datetime(2013, 3, 18, 22, 46, 22)'
p1594
asbasbasbasbasbasbasbag49
(g65
g51
NtRp1595
(dp1596
g54
(dp1597
sg63
g778
sg56
(lp1598
g49
(g70
g51
NtRp1599
(dp1600
g54
(dp1601
g74
g75
ssg63
g1595
sg56
(lp1602
S'wsgi_errors'
p1603
asbag49
(g70
g51
NtRp1604
(dp1605
g54
(dp1606
g81
g82
ssg63
g1595
sg56
(lp1607
S':'
asbag49
(g70
g51
NtRp1608
(dp1609
g54
(dp1610
sg63
g1595
sg56
(lp1611
g49
(g50
g51
NtRp1612
(dp1613
g54
(dp1614
g62
I4
ssg63
g1608
sg56
(lp1615
S"<open file '<stderr>', mode 'w' at 0x660b0>"
p1616
asbasbasbag49
(g65
g51
NtRp1617
(dp1618
g54
(dp1619
sg63
g778
sg56
(lp1620
g49
(g70
g51
NtRp1621
(dp1622
g54
(dp1623
g74
g75
ssg63
g1617
sg56
(lp1624
S'wsgi_file_wrapper'
p1625
asbag49
(g70
g51
NtRp1626
(dp1627
g54
(dp1628
g81
g82
ssg63
g1617
sg56
(lp1629
S':'
asbag49
(g70
g51
NtRp1630
(dp1631
g54
(dp1632
sg63
g1617
sg56
(lp1633
g49
(g50
g51
NtRp1634
(dp1635
g54
(dp1636
g62
I4
ssg63
g1630
sg56
(lp1637
S'<class wsgiref.util.FileWrapper at 0x456f060>'
p1638
asbasbasbag49
(g65
g51
NtRp1639
(dp1640
g54
(dp1641
sg63
g778
sg56
(lp1642
g49
(g70
g51
NtRp1643
(dp1644
g54
(dp1645
g74
g75
ssg63
g1639
sg56
(lp1646
S'wsgi_input'
p1647
asbag49
(g70
g51
NtRp1648
(dp1649
g54
(dp1650
g81
g82
ssg63
g1639
sg56
(lp1651
S':'
asbag49
(g70
g51
NtRp1652
(dp1653
g54
(dp1654
sg63
g1639
sg56
(lp1655
g49
(g50
g51
NtRp1656
(dp1657
g54
(dp1658
g62
I4
ssg63
g1652
sg56
(lp1659
S'<socket._fileobject object at 0x3b7e1b0>'
p1660
asbasbasbag49
(g65
g51
NtRp1661
(dp1662
g54
(dp1663
sg63
g778
sg56
(lp1664
g49
(g70
g51
NtRp1665
(dp1666
g54
(dp1667
g74
g75
ssg63
g1661
sg56
(lp1668
S'wsgi_multiprocess'
p1669
asbag49
(g70
g51
NtRp1670
(dp1671
g54
(dp1672
g81
g82
ssg63
g1661
sg56
(lp1673
S':'
asbag49
(g70
g51
NtRp1674
(dp1675
g54
(dp1676
sg63
g1661
sg56
(lp1677
g49
(g50
g51
NtRp1678
(dp1679
g54
(dp1680
g62
I4
ssg63
g1674
sg56
(lp1681
g92
asbasbasbag49
(g65
g51
NtRp1682
(dp1683
g54
(dp1684
sg63
g778
sg56
(lp1685
g49
(g70
g51
NtRp1686
(dp1687
g54
(dp1688
g74
g75
ssg63
g1682
sg56
(lp1689
S'wsgi_multithread'
p1690
asbag49
(g70
g51
NtRp1691
(dp1692
g54
(dp1693
g81
g82
ssg63
g1682
sg56
(lp1694
S':'
asbag49
(g70
g51
NtRp1695
(dp1696
g54
(dp1697
sg63
g1682
sg56
(lp1698
g49
(g50
g51
NtRp1699
(dp1700
g54
(dp1701
g62
I4
ssg63
g1695
sg56
(lp1702
g916
asbasbasbag49
(g65
g51
NtRp1703
(dp1704
g54
(dp1705
sg63
g778
sg56
(lp1706
g49
(g70
g51
NtRp1707
(dp1708
g54
(dp1709
g74
g75
ssg63
g1703
sg56
(lp1710
S'wsgi_run_once'
p1711
asbag49
(g70
g51
NtRp1712
(dp1713
g54
(dp1714
g81
g82
ssg63
g1703
sg56
(lp1715
S':'
asbag49
(g70
g51
NtRp1716
(dp1717
g54
(dp1718
sg63
g1703
sg56
(lp1719
g49
(g50
g51
NtRp1720
(dp1721
g54
(dp1722
g62
I4
ssg63
g1716
sg56
(lp1723
g92
asbasbasbag49
(g65
g51
NtRp1724
(dp1725
g54
(dp1726
sg63
g778
sg56
(lp1727
g49
(g70
g51
NtRp1728
(dp1729
g54
(dp1730
g74
g75
ssg63
g1724
sg56
(lp1731
S'wsgi_url_scheme'
p1732
asbag49
(g70
g51
NtRp1733
(dp1734
g54
(dp1735
g81
g82
ssg63
g1724
sg56
(lp1736
S':'
asbag49
(g70
g51
NtRp1737
(dp1738
g54
(dp1739
sg63
g1724
sg56
(lp1740
g49
(g50
g51
NtRp1741
(dp1742
g54
(dp1743
g62
I4
ssg63
g1737
sg56
(lp1744
S'http'
p1745
asbasbasbag49
(g65
g51
NtRp1746
(dp1747
g54
(dp1748
sg63
g778
sg56
(lp1749
g49
(g70
g51
NtRp1750
(dp1751
g54
(dp1752
g74
g75
ssg63
g1746
sg56
(lp1753
S'wsgi_version'
p1754
asbag49
(g70
g51
NtRp1755
(dp1756
g54
(dp1757
g81
g82
ssg63
g1746
sg56
(lp1758
S':'
asbag49
(g70
g51
NtRp1759
(dp1760
g54
(dp1761
sg63
g1746
sg56
(lp1762
g49
(g50
g51
NtRp1763
(dp1764
g54
(dp1765
g62
I4
ssg63
g1759
sg56
(lp1766
g49
(g58
g51
NtRp1767
(dp1768
g54
(dp1769
g62
I3
ssg63
Nsg56
(lp1770
g49
(g65
g51
NtRp1771
(dp1772
g54
(dp1773
sg63
g1767
sg56
(lp1774
g49
(g70
g51
NtRp1775
(dp1776
g54
(dp1777
sg63
g1771
sg56
(lp1778
g49
(g50
g51
NtRp1779
(dp1780
g54
(dp1781
g62
I3
ssg63
g1775
sg56
(lp1782
S'1'
asbasbasbag49
(g65
g51
NtRp1783
(dp1784
g54
(dp1785
sg63
g1767
sg56
(lp1786
g49
(g70
g51
NtRp1787
(dp1788
g54
(dp1789
sg63
g1783
sg56
(lp1790
g49
(g50
g51
NtRp1791
(dp1792
g54
(dp1793
g62
I3
ssg63
g1787
sg56
(lp1794
S'0'
asbasbasbasbasbasbasbasbasbasbasbag49
(g65
g51
NtRp1795
(dp1796
g54
(dp1797
sg63
g59
sg56
(lp1798
g49
(g70
g51
NtRp1799
(dp1800
g54
(dp1801
g74
g75
ssg63
g1795
sg56
(lp1802
S'extension'
p1803
asbag49
(g70
g51
NtRp1804
(dp1805
g54
(dp1806
g81
g82
ssg63
g1795
sg56
(lp1807
S':'
asbag49
(g70
g51
NtRp1808
(dp1809
g54
(dp1810
sg63
g1795
sg56
(lp1811
g49
(g50
g51
NtRp1812
(dp1813
g54
(dp1814
g62
I5
ssg63
g1808
sg56
(lp1815
S'html'
p1816
asbasbasbag49
(g65
g51
NtRp1817
(dp1818
g54
(dp1819
sg63
g59
sg56
(lp1820
g49
(g70
g51
NtRp1821
(dp1822
g54
(dp1823
g74
g75
ssg63
g1817
sg56
(lp1824
S'folder'
p1825
asbag49
(g70
g51
NtRp1826
(dp1827
g54
(dp1828
g81
g82
ssg63
g1817
sg56
(lp1829
S':'
asbag49
(g70
g51
NtRp1830
(dp1831
g54
(dp1832
sg63
g1817
sg56
(lp1833
g49
(g50
g51
NtRp1834
(dp1835
g54
(dp1836
g62
I5
ssg63
g1830
sg56
(lp1837
S'/Applications/web2py.app/Contents/Resources/applications/MR/'
p1838
asbasbasbag49
(g65
g51
NtRp1839
(dp1840
g54
(dp1841
sg63
g59
sg56
(lp1842
g49
(g70
g51
NtRp1843
(dp1844
g54
(dp1845
g74
g75
ssg63
g1839
sg56
(lp1846
S'function'
p1847
asbag49
(g70
g51
NtRp1848
(dp1849
g54
(dp1850
g81
g82
ssg63
g1839
sg56
(lp1851
S':'
asbag49
(g70
g51
NtRp1852
(dp1853
g54
(dp1854
sg63
g1839
sg56
(lp1855
g49
(g50
g51
NtRp1856
(dp1857
g54
(dp1858
g62
I5
ssg63
g1852
sg56
(lp1859
S'mobile_user_register'
p1860
asbasbasbag49
(g65
g51
NtRp1861
(dp1862
g54
(dp1863
sg63
g59
sg56
(lp1864
g49
(g70
g51
NtRp1865
(dp1866
g54
(dp1867
g74
g75
ssg63
g1861
sg56
(lp1868
S'get_vars'
p1869
asbag49
(g70
g51
NtRp1870
(dp1871
g54
(dp1872
g81
g82
ssg63
g1861
sg56
(lp1873
S':'
asbag49
(g70
g51
NtRp1874
(dp1875
g54
(dp1876
sg63
g1861
sg56
(lp1877
g49
(g50
g51
NtRp1878
(dp1879
g54
(dp1880
g62
I5
ssg63
g1874
sg56
(lp1881
g49
(g58
g51
NtRp1882
(dp1883
g54
(dp1884
g62
I4
ssg63
Nsg56
(lp1885
g49
(g65
g51
NtRp1886
(dp1887
g54
(dp1888
sg63
g1882
sg56
(lp1889
g49
(g70
g51
NtRp1890
(dp1891
g54
(dp1892
g74
g75
ssg63
g1886
sg56
(lp1893
S'country'
p1894
asbag49
(g70
g51
NtRp1895
(dp1896
g54
(dp1897
g81
g82
ssg63
g1886
sg56
(lp1898
S':'
asbag49
(g70
g51
NtRp1899
(dp1900
g54
(dp1901
sg63
g1886
sg56
(lp1902
g49
(g50
g51
NtRp1903
(dp1904
g54
(dp1905
g62
I4
ssg63
g1899
sg56
(lp1906
S''
asbasbasbag49
(g65
g51
NtRp1907
(dp1908
g54
(dp1909
sg63
g1882
sg56
(lp1910
g49
(g70
g51
NtRp1911
(dp1912
g54
(dp1913
g74
g75
ssg63
g1907
sg56
(lp1914
S'email'
p1915
asbag49
(g70
g51
NtRp1916
(dp1917
g54
(dp1918
g81
g82
ssg63
g1907
sg56
(lp1919
S':'
asbag49
(g70
g51
NtRp1920
(dp1921
g54
(dp1922
sg63
g1907
sg56
(lp1923
g49
(g50
g51
NtRp1924
(dp1925
g54
(dp1926
g62
I4
ssg63
g1920
sg56
(lp1927
S'adsf'
p1928
asbasbasbag49
(g65
g51
NtRp1929
(dp1930
g54
(dp1931
sg63
g1882
sg56
(lp1932
g49
(g70
g51
NtRp1933
(dp1934
g54
(dp1935
g74
g75
ssg63
g1929
sg56
(lp1936
S'firstname'
p1937
asbag49
(g70
g51
NtRp1938
(dp1939
g54
(dp1940
g81
g82
ssg63
g1929
sg56
(lp1941
S':'
asbag49
(g70
g51
NtRp1942
(dp1943
g54
(dp1944
sg63
g1929
sg56
(lp1945
g49
(g50
g51
NtRp1946
(dp1947
g54
(dp1948
g62
I4
ssg63
g1942
sg56
(lp1949
S'asdf'
p1950
asbasbasbag49
(g65
g51
NtRp1951
(dp1952
g54
(dp1953
sg63
g1882
sg56
(lp1954
g49
(g70
g51
NtRp1955
(dp1956
g54
(dp1957
g74
g75
ssg63
g1951
sg56
(lp1958
S'lastname'
p1959
asbag49
(g70
g51
NtRp1960
(dp1961
g54
(dp1962
g81
g82
ssg63
g1951
sg56
(lp1963
S':'
asbag49
(g70
g51
NtRp1964
(dp1965
g54
(dp1966
sg63
g1951
sg56
(lp1967
g49
(g50
g51
NtRp1968
(dp1969
g54
(dp1970
g62
I4
ssg63
g1964
sg56
(lp1971
S'asdf'
p1972
asbasbasbag49
(g65
g51
NtRp1973
(dp1974
g54
(dp1975
sg63
g1882
sg56
(lp1976
g49
(g70
g51
NtRp1977
(dp1978
g54
(dp1979
g74
g75
ssg63
g1973
sg56
(lp1980
S'password'
p1981
asbag49
(g70
g51
NtRp1982
(dp1983
g54
(dp1984
g81
g82
ssg63
g1973
sg56
(lp1985
S':'
asbag49
(g70
g51
NtRp1986
(dp1987
g54
(dp1988
sg63
g1973
sg56
(lp1989
g49
(g50
g51
NtRp1990
(dp1991
g54
(dp1992
g62
I4
ssg63
g1986
sg56
(lp1993
S'adsf'
p1994
asbasbasbasbasbasbasbag49
(g65
g51
NtRp1995
(dp1996
g54
(dp1997
sg63
g59
sg56
(lp1998
g49
(g70
g51
NtRp1999
(dp2000
g54
(dp2001
g74
g75
ssg63
g1995
sg56
(lp2002
S'global_settings'
p2003
asbag49
(g70
g51
NtRp2004
(dp2005
g54
(dp2006
g81
g82
ssg63
g1995
sg56
(lp2007
S':'
asbag49
(g70
g51
NtRp2008
(dp2009
g54
(dp2010
sg63
g1995
sg56
(lp2011
g49
(g50
g51
NtRp2012
(dp2013
g54
(dp2014
g62
I5
ssg63
g2008
sg56
(lp2015
g49
(g58
g51
NtRp2016
(dp2017
g54
(dp2018
g62
I4
ssg63
Nsg56
(lp2019
g49
(g65
g51
NtRp2020
(dp2021
g54
(dp2022
sg63
g2016
sg56
(lp2023
g49
(g70
g51
NtRp2024
(dp2025
g54
(dp2026
g74
g75
ssg63
g2020
sg56
(lp2027
g790
asbag49
(g70
g51
NtRp2028
(dp2029
g54
(dp2030
g81
g82
ssg63
g2020
sg56
(lp2031
S':'
asbag49
(g70
g51
NtRp2032
(dp2033
g54
(dp2034
sg63
g2020
sg56
(lp2035
g49
(g50
g51
NtRp2036
(dp2037
g54
(dp2038
g62
I4
ssg63
g2032
sg56
(lp2039
S"set(['/Applications/web2py.app/Contents/Resources/applications/admin/', '/Applications/web2py.app/Contents/Resources/applications/welcome/', '/Applications/web2py.app/Contents/Resources/applications/MR/'])"
p2040
asbasbasbag49
(g65
g51
NtRp2041
(dp2042
g54
(dp2043
sg63
g2016
sg56
(lp2044
g49
(g70
g51
NtRp2045
(dp2046
g54
(dp2047
g74
g75
ssg63
g2041
sg56
(lp2048
g812
asbag49
(g70
g51
NtRp2049
(dp2050
g54
(dp2051
g81
g82
ssg63
g2041
sg56
(lp2052
S':'
asbag49
(g70
g51
NtRp2053
(dp2054
g54
(dp2055
sg63
g2041
sg56
(lp2056
g49
(g50
g51
NtRp2057
(dp2058
g54
(dp2059
g62
I4
ssg63
g2053
sg56
(lp2060
g825
asbasbasbag49
(g65
g51
NtRp2061
(dp2062
g54
(dp2063
sg63
g2016
sg56
(lp2064
g49
(g70
g51
NtRp2065
(dp2066
g54
(dp2067
g74
g75
ssg63
g2061
sg56
(lp2068
g834
asbag49
(g70
g51
NtRp2069
(dp2070
g54
(dp2071
g81
g82
ssg63
g2061
sg56
(lp2072
S':'
asbag49
(g70
g51
NtRp2073
(dp2074
g54
(dp2075
sg63
g2061
sg56
(lp2076
g49
(g50
g51
NtRp2077
(dp2078
g54
(dp2079
g62
I4
ssg63
g2073
sg56
(lp2080
g49
(g58
g51
NtRp2081
(dp2082
g54
(dp2083
g62
I3
ssg63
Nsg56
(lp2084
sbasbasbasbag49
(g65
g51
NtRp2085
(dp2086
g54
(dp2087
sg63
g2016
sg56
(lp2088
g49
(g70
g51
NtRp2089
(dp2090
g54
(dp2091
g74
g75
ssg63
g2085
sg56
(lp2092
g859
asbag49
(g70
g51
NtRp2093
(dp2094
g54
(dp2095
g81
g82
ssg63
g2085
sg56
(lp2096
S':'
asbag49
(g70
g51
NtRp2097
(dp2098
g54
(dp2099
sg63
g2085
sg56
(lp2100
g49
(g50
g51
NtRp2101
(dp2102
g54
(dp2103
g62
I4
ssg63
g2097
sg56
(lp2104
S"<Values at 0x4596f58: {'verbose': False, 'ip': '127.0.0.1', 'with_scheduler': False, 'ips': ['140.142.222.54'], 'shutdown_timeout': 5, 'taskbar': False, 'port': 8000, 'maxthreads': None, 'softcron': False, 'server_name': 'd-140-142-222-54.dhcp4.washington.edu', 'bpython': False, 'nogui': False, 'pid_filename': 'httpserver.pid', 'extcron': False, 'runcron': False, 'run_system_tests': False, 'test': None, 'folder': '/Applications/web2py.app/Contents/Resources', 'config': '', 'import_models': False, 'winservice': '', 'shell': None, 'run': '', 'log_filename': 'httpserver.log', 'debuglevel': 30, 'args': [''], 'socket_timeout': 5, 'ssl_ca_certificate': None, 'scheduler': None, 'profiler_filename': None, 'ssl_private_key': '', 'scheduler_groups': None, 'password': '<ask>', 'request_queue_size': 5, 'ssl_certificate': '', 'cronjob': False, 'numthreads': None, 'quiet': False, 'interfaces': None, 'minthreads': None, 'timeout': 10, 'plain': False, 'nobanner': False}>"
p2105
asbasbasbag49
(g65
g51
NtRp2106
(dp2107
g54
(dp2108
sg63
g2016
sg56
(lp2109
g49
(g70
g51
NtRp2110
(dp2111
g54
(dp2112
g74
g75
ssg63
g2106
sg56
(lp2113
g881
asbag49
(g70
g51
NtRp2114
(dp2115
g54
(dp2116
g81
g82
ssg63
g2106
sg56
(lp2117
S':'
asbag49
(g70
g51
NtRp2118
(dp2119
g54
(dp2120
sg63
g2106
sg56
(lp2121
g49
(g50
g51
NtRp2122
(dp2123
g54
(dp2124
g62
I4
ssg63
g2118
sg56
(lp2125
S'set([])'
p2126
asbasbasbag49
(g65
g51
NtRp2127
(dp2128
g54
(dp2129
sg63
g2016
sg56
(lp2130
g49
(g70
g51
NtRp2131
(dp2132
g54
(dp2133
g74
g75
ssg63
g2127
sg56
(lp2134
g903
asbag49
(g70
g51
NtRp2135
(dp2136
g54
(dp2137
g81
g82
ssg63
g2127
sg56
(lp2138
S':'
asbag49
(g70
g51
NtRp2139
(dp2140
g54
(dp2141
sg63
g2127
sg56
(lp2142
g49
(g50
g51
NtRp2143
(dp2144
g54
(dp2145
g62
I4
ssg63
g2139
sg56
(lp2146
g916
asbasbasbag49
(g65
g51
NtRp2147
(dp2148
g54
(dp2149
sg63
g2016
sg56
(lp2150
g49
(g70
g51
NtRp2151
(dp2152
g54
(dp2153
g74
g75
ssg63
g2147
sg56
(lp2154
g925
asbag49
(g70
g51
NtRp2155
(dp2156
g54
(dp2157
g81
g82
ssg63
g2147
sg56
(lp2158
S':'
asbag49
(g70
g51
NtRp2159
(dp2160
g54
(dp2161
sg63
g2147
sg56
(lp2162
g49
(g50
g51
NtRp2163
(dp2164
g54
(dp2165
g62
I4
ssg63
g2159
sg56
(lp2166
g938
asbasbasbag49
(g65
g51
NtRp2167
(dp2168
g54
(dp2169
sg63
g2016
sg56
(lp2170
g49
(g70
g51
NtRp2171
(dp2172
g54
(dp2173
g74
g75
ssg63
g2167
sg56
(lp2174
g1123
asbag49
(g70
g51
NtRp2175
(dp2176
g54
(dp2177
g81
g82
ssg63
g2167
sg56
(lp2178
S':'
asbag49
(g70
g51
NtRp2179
(dp2180
g54
(dp2181
sg63
g2167
sg56
(lp2182
g49
(g50
g51
NtRp2183
(dp2184
g54
(dp2185
g62
I4
ssg63
g2179
sg56
(lp2186
g92
asbasbasbag49
(g65
g51
NtRp2187
(dp2188
g54
(dp2189
sg63
g2016
sg56
(lp2190
g49
(g70
g51
NtRp2191
(dp2192
g54
(dp2193
g74
g75
ssg63
g2187
sg56
(lp2194
g1144
asbag49
(g70
g51
NtRp2195
(dp2196
g54
(dp2197
g81
g82
ssg63
g2187
sg56
(lp2198
S':'
asbag49
(g70
g51
NtRp2199
(dp2200
g54
(dp2201
sg63
g2187
sg56
(lp2202
g49
(g50
g51
NtRp2203
(dp2204
g54
(dp2205
g62
I4
ssg63
g2199
sg56
(lp2206
g92
asbasbasbag49
(g65
g51
NtRp2207
(dp2208
g54
(dp2209
sg63
g2016
sg56
(lp2210
g49
(g70
g51
NtRp2211
(dp2212
g54
(dp2213
g74
g75
ssg63
g2207
sg56
(lp2214
g1165
asbag49
(g70
g51
NtRp2215
(dp2216
g54
(dp2217
g81
g82
ssg63
g2207
sg56
(lp2218
S':'
asbag49
(g70
g51
NtRp2219
(dp2220
g54
(dp2221
sg63
g2207
sg56
(lp2222
g49
(g50
g51
NtRp2223
(dp2224
g54
(dp2225
g62
I4
ssg63
g2219
sg56
(lp2226
g49
(g58
g51
NtRp2227
(dp2228
g54
(dp2229
g62
I3
ssg63
Nsg56
(lp2230
g49
(g65
g51
NtRp2231
(dp2232
g54
(dp2233
sg63
g2227
sg56
(lp2234
g49
(g70
g51
NtRp2235
(dp2236
g54
(dp2237
sg63
g2231
sg56
(lp2238
g49
(g50
g51
NtRp2239
(dp2240
g54
(dp2241
g62
I3
ssg63
g2235
sg56
(lp2242
g1194
asbasbasbag49
(g65
g51
NtRp2243
(dp2244
g54
(dp2245
sg63
g2227
sg56
(lp2246
g49
(g70
g51
NtRp2247
(dp2248
g54
(dp2249
sg63
g2243
sg56
(lp2250
g49
(g50
g51
NtRp2251
(dp2252
g54
(dp2253
g62
I3
ssg63
g2247
sg56
(lp2254
g1207
asbasbasbag49
(g65
g51
NtRp2255
(dp2256
g54
(dp2257
sg63
g2227
sg56
(lp2258
g49
(g70
g51
NtRp2259
(dp2260
g54
(dp2261
sg63
g2255
sg56
(lp2262
g49
(g50
g51
NtRp2263
(dp2264
g54
(dp2265
g62
I3
ssg63
g2259
sg56
(lp2266
g1220
asbasbasbag49
(g65
g51
NtRp2267
(dp2268
g54
(dp2269
sg63
g2227
sg56
(lp2270
g49
(g70
g51
NtRp2271
(dp2272
g54
(dp2273
sg63
g2267
sg56
(lp2274
g49
(g50
g51
NtRp2275
(dp2276
g54
(dp2277
g62
I3
ssg63
g2271
sg56
(lp2278
g1233
asbasbasbag49
(g65
g51
NtRp2279
(dp2280
g54
(dp2281
sg63
g2227
sg56
(lp2282
g49
(g70
g51
NtRp2283
(dp2284
g54
(dp2285
sg63
g2279
sg56
(lp2286
g49
(g50
g51
NtRp2287
(dp2288
g54
(dp2289
g62
I3
ssg63
g2283
sg56
(lp2290
g1246
asbasbasbasbasbasbasbag49
(g65
g51
NtRp2291
(dp2292
g54
(dp2293
sg63
g2016
sg56
(lp2294
g49
(g70
g51
NtRp2295
(dp2296
g54
(dp2297
g74
g75
ssg63
g2291
sg56
(lp2298
g1516
asbag49
(g70
g51
NtRp2299
(dp2300
g54
(dp2301
g81
g82
ssg63
g2291
sg56
(lp2302
S':'
asbag49
(g70
g51
NtRp2303
(dp2304
g54
(dp2305
sg63
g2291
sg56
(lp2306
g49
(g50
g51
NtRp2307
(dp2308
g54
(dp2309
g62
I4
ssg63
g2303
sg56
(lp2310
g49
(g58
g51
NtRp2311
(dp2312
g54
(dp2313
g62
I3
ssg63
Nsg56
(lp2314
g49
(g65
g51
NtRp2315
(dp2316
g54
(dp2317
sg63
g2311
sg56
(lp2318
g49
(g70
g51
NtRp2319
(dp2320
g54
(dp2321
sg63
g2315
sg56
(lp2322
g49
(g50
g51
NtRp2323
(dp2324
g54
(dp2325
g62
I3
ssg63
g2319
sg56
(lp2326
S'2'
asbasbasbag49
(g65
g51
NtRp2327
(dp2328
g54
(dp2329
sg63
g2311
sg56
(lp2330
g49
(g70
g51
NtRp2331
(dp2332
g54
(dp2333
sg63
g2327
sg56
(lp2334
g49
(g50
g51
NtRp2335
(dp2336
g54
(dp2337
g62
I3
ssg63
g2331
sg56
(lp2338
S'4'
asbasbasbag49
(g65
g51
NtRp2339
(dp2340
g54
(dp2341
sg63
g2311
sg56
(lp2342
g49
(g70
g51
NtRp2343
(dp2344
g54
(dp2345
sg63
g2339
sg56
(lp2346
g49
(g50
g51
NtRp2347
(dp2348
g54
(dp2349
g62
I3
ssg63
g2343
sg56
(lp2350
S'5'
asbasbasbag49
(g65
g51
NtRp2351
(dp2352
g54
(dp2353
sg63
g2311
sg56
(lp2354
g49
(g70
g51
NtRp2355
(dp2356
g54
(dp2357
sg63
g2351
sg56
(lp2358
g49
(g50
g51
NtRp2359
(dp2360
g54
(dp2361
g62
I3
ssg63
g2355
sg56
(lp2362
g1581
asbasbasbag49
(g65
g51
NtRp2363
(dp2364
g54
(dp2365
sg63
g2311
sg56
(lp2366
g49
(g70
g51
NtRp2367
(dp2368
g54
(dp2369
sg63
g2363
sg56
(lp2370
g49
(g50
g51
NtRp2371
(dp2372
g54
(dp2373
g62
I3
ssg63
g2367
sg56
(lp2374
S'datetime.datetime(2013, 3, 18, 22, 46, 22)'
p2375
asbasbasbasbasbasbasbasbasbasbasbag49
(g65
g51
NtRp2376
(dp2377
g54
(dp2378
sg63
g59
sg56
(lp2379
g49
(g70
g51
NtRp2380
(dp2381
g54
(dp2382
g74
g75
ssg63
g2376
sg56
(lp2383
S'is_https'
p2384
asbag49
(g70
g51
NtRp2385
(dp2386
g54
(dp2387
g81
g82
ssg63
g2376
sg56
(lp2388
S':'
asbag49
(g70
g51
NtRp2389
(dp2390
g54
(dp2391
sg63
g2376
sg56
(lp2392
g49
(g50
g51
NtRp2393
(dp2394
g54
(dp2395
g62
I5
ssg63
g2389
sg56
(lp2396
g92
asbasbasbag49
(g65
g51
NtRp2397
(dp2398
g54
(dp2399
sg63
g59
sg56
(lp2400
g49
(g70
g51
NtRp2401
(dp2402
g54
(dp2403
g74
g75
ssg63
g2397
sg56
(lp2404
S'is_local'
p2405
asbag49
(g70
g51
NtRp2406
(dp2407
g54
(dp2408
g81
g82
ssg63
g2397
sg56
(lp2409
S':'
asbag49
(g70
g51
NtRp2410
(dp2411
g54
(dp2412
sg63
g2397
sg56
(lp2413
g49
(g50
g51
NtRp2414
(dp2415
g54
(dp2416
g62
I5
ssg63
g2410
sg56
(lp2417
g916
asbasbasbag49
(g65
g51
NtRp2418
(dp2419
g54
(dp2420
sg63
g59
sg56
(lp2421
g49
(g70
g51
NtRp2422
(dp2423
g54
(dp2424
g74
g75
ssg63
g2418
sg56
(lp2425
S'is_restful'
p2426
asbag49
(g70
g51
NtRp2427
(dp2428
g54
(dp2429
g81
g82
ssg63
g2418
sg56
(lp2430
S':'
asbag49
(g70
g51
NtRp2431
(dp2432
g54
(dp2433
sg63
g2418
sg56
(lp2434
g49
(g50
g51
NtRp2435
(dp2436
g54
(dp2437
g62
I5
ssg63
g2431
sg56
(lp2438
g92
asbasbasbag49
(g65
g51
NtRp2439
(dp2440
g54
(dp2441
sg63
g59
sg56
(lp2442
g49
(g70
g51
NtRp2443
(dp2444
g54
(dp2445
g74
g75
ssg63
g2439
sg56
(lp2446
S'now'
p2447
asbag49
(g70
g51
NtRp2448
(dp2449
g54
(dp2450
g81
g82
ssg63
g2439
sg56
(lp2451
S':'
asbag49
(g70
g51
NtRp2452
(dp2453
g54
(dp2454
sg63
g2439
sg56
(lp2455
g49
(g50
g51
NtRp2456
(dp2457
g54
(dp2458
g62
I5
ssg63
g2452
sg56
(lp2459
S'datetime.datetime(2013, 4, 29, 17, 1, 18, 94314)'
p2460
asbasbasbag49
(g65
g51
NtRp2461
(dp2462
g54
(dp2463
sg63
g59
sg56
(lp2464
g49
(g70
g51
NtRp2465
(dp2466
g54
(dp2467
g74
g75
ssg63
g2461
sg56
(lp2468
S'post_vars'
p2469
asbag49
(g70
g51
NtRp2470
(dp2471
g54
(dp2472
g81
g82
ssg63
g2461
sg56
(lp2473
S':'
asbag49
(g70
g51
NtRp2474
(dp2475
g54
(dp2476
sg63
g2461
sg56
(lp2477
g49
(g50
g51
NtRp2478
(dp2479
g54
(dp2480
g62
I5
ssg63
g2474
sg56
(lp2481
g49
(g58
g51
NtRp2482
(dp2483
g54
(dp2484
g62
I4
ssg63
Nsg56
(lp2485
sbasbasbasbag49
(g65
g51
NtRp2486
(dp2487
g54
(dp2488
sg63
g59
sg56
(lp2489
g49
(g70
g51
NtRp2490
(dp2491
g54
(dp2492
g74
g75
ssg63
g2486
sg56
(lp2493
S'raw_args'
p2494
asbag49
(g70
g51
NtRp2495
(dp2496
g54
(dp2497
g81
g82
ssg63
g2486
sg56
(lp2498
S':'
asbag49
(g70
g51
NtRp2499
(dp2500
g54
(dp2501
sg63
g2486
sg56
(lp2502
g49
(g50
g51
NtRp2503
(dp2504
g54
(dp2505
g62
I5
ssg63
g2499
sg56
(lp2506
S''
asbasbasbag49
(g65
g51
NtRp2507
(dp2508
g54
(dp2509
sg63
g59
sg56
(lp2510
g49
(g70
g51
NtRp2511
(dp2512
g54
(dp2513
g74
g75
ssg63
g2507
sg56
(lp2514
S'raw_extension'
p2515
asbag49
(g70
g51
NtRp2516
(dp2517
g54
(dp2518
g81
g82
ssg63
g2507
sg56
(lp2519
S':'
asbag49
(g70
g51
NtRp2520
(dp2521
g54
(dp2522
sg63
g2507
sg56
(lp2523
g49
(g50
g51
NtRp2524
(dp2525
g54
(dp2526
g62
I5
ssg63
g2520
sg56
(lp2527
S'None'
p2528
asbasbasbag49
(g65
g51
NtRp2529
(dp2530
g54
(dp2531
sg63
g59
sg56
(lp2532
g49
(g70
g51
NtRp2533
(dp2534
g54
(dp2535
g74
g75
ssg63
g2529
sg56
(lp2536
S'url'
p2537
asbag49
(g70
g51
NtRp2538
(dp2539
g54
(dp2540
g81
g82
ssg63
g2529
sg56
(lp2541
S':'
asbag49
(g70
g51
NtRp2542
(dp2543
g54
(dp2544
sg63
g2529
sg56
(lp2545
g49
(g50
g51
NtRp2546
(dp2547
g54
(dp2548
g62
I5
ssg63
g2542
sg56
(lp2549
g1268
asbasbasbag49
(g65
g51
NtRp2550
(dp2551
g54
(dp2552
sg63
g59
sg56
(lp2553
g49
(g70
g51
NtRp2554
(dp2555
g54
(dp2556
g74
g75
ssg63
g2550
sg56
(lp2557
S'utcnow'
p2558
asbag49
(g70
g51
NtRp2559
(dp2560
g54
(dp2561
g81
g82
ssg63
g2550
sg56
(lp2562
S':'
asbag49
(g70
g51
NtRp2563
(dp2564
g54
(dp2565
sg63
g2550
sg56
(lp2566
g49
(g50
g51
NtRp2567
(dp2568
g54
(dp2569
g62
I5
ssg63
g2563
sg56
(lp2570
S'datetime.datetime(2013, 4, 30, 0, 1, 18, 94327)'
p2571
asbasbasbag49
(g65
g51
NtRp2572
(dp2573
g54
(dp2574
sg63
g59
sg56
(lp2575
g49
(g70
g51
NtRp2576
(dp2577
g54
(dp2578
g74
g75
ssg63
g2572
sg56
(lp2579
S'uuid'
p2580
asbag49
(g70
g51
NtRp2581
(dp2582
g54
(dp2583
g81
g82
ssg63
g2572
sg56
(lp2584
S':'
asbag49
(g70
g51
NtRp2585
(dp2586
g54
(dp2587
sg63
g2572
sg56
(lp2588
g49
(g50
g51
NtRp2589
(dp2590
g54
(dp2591
g62
I5
ssg63
g2585
sg56
(lp2592
S'MR/127.0.0.1.2013-04-29.17-01-18.71ed23fa-6fc5-4c11-bf6d-384b9430abf7'
p2593
asbasbasbag49
(g65
g51
NtRp2594
(dp2595
g54
(dp2596
sg63
g59
sg56
(lp2597
g49
(g70
g51
NtRp2598
(dp2599
g54
(dp2600
g74
g75
ssg63
g2594
sg56
(lp2601
S'vars'
p2602
asbag49
(g70
g51
NtRp2603
(dp2604
g54
(dp2605
g81
g82
ssg63
g2594
sg56
(lp2606
S':'
asbag49
(g70
g51
NtRp2607
(dp2608
g54
(dp2609
sg63
g2594
sg56
(lp2610
g49
(g50
g51
NtRp2611
(dp2612
g54
(dp2613
g62
I5
ssg63
g2607
sg56
(lp2614
g49
(g58
g51
NtRp2615
(dp2616
g54
(dp2617
g62
I4
ssg63
Nsg56
(lp2618
g49
(g65
g51
NtRp2619
(dp2620
g54
(dp2621
sg63
g2615
sg56
(lp2622
g49
(g70
g51
NtRp2623
(dp2624
g54
(dp2625
g74
g75
ssg63
g2619
sg56
(lp2626
g1894
asbag49
(g70
g51
NtRp2627
(dp2628
g54
(dp2629
g81
g82
ssg63
g2619
sg56
(lp2630
S':'
asbag49
(g70
g51
NtRp2631
(dp2632
g54
(dp2633
sg63
g2619
sg56
(lp2634
g49
(g50
g51
NtRp2635
(dp2636
g54
(dp2637
g62
I4
ssg63
g2631
sg56
(lp2638
S''
asbasbasbag49
(g65
g51
NtRp2639
(dp2640
g54
(dp2641
sg63
g2615
sg56
(lp2642
g49
(g70
g51
NtRp2643
(dp2644
g54
(dp2645
g74
g75
ssg63
g2639
sg56
(lp2646
g1915
asbag49
(g70
g51
NtRp2647
(dp2648
g54
(dp2649
g81
g82
ssg63
g2639
sg56
(lp2650
S':'
asbag49
(g70
g51
NtRp2651
(dp2652
g54
(dp2653
sg63
g2639
sg56
(lp2654
g49
(g50
g51
NtRp2655
(dp2656
g54
(dp2657
g62
I4
ssg63
g2651
sg56
(lp2658
g1928
asbasbasbag49
(g65
g51
NtRp2659
(dp2660
g54
(dp2661
sg63
g2615
sg56
(lp2662
g49
(g70
g51
NtRp2663
(dp2664
g54
(dp2665
g74
g75
ssg63
g2659
sg56
(lp2666
g1937
asbag49
(g70
g51
NtRp2667
(dp2668
g54
(dp2669
g81
g82
ssg63
g2659
sg56
(lp2670
S':'
asbag49
(g70
g51
NtRp2671
(dp2672
g54
(dp2673
sg63
g2659
sg56
(lp2674
g49
(g50
g51
NtRp2675
(dp2676
g54
(dp2677
g62
I4
ssg63
g2671
sg56
(lp2678
g1950
asbasbasbag49
(g65
g51
NtRp2679
(dp2680
g54
(dp2681
sg63
g2615
sg56
(lp2682
g49
(g70
g51
NtRp2683
(dp2684
g54
(dp2685
g74
g75
ssg63
g2679
sg56
(lp2686
g1959
asbag49
(g70
g51
NtRp2687
(dp2688
g54
(dp2689
g81
g82
ssg63
g2679
sg56
(lp2690
S':'
asbag49
(g70
g51
NtRp2691
(dp2692
g54
(dp2693
sg63
g2679
sg56
(lp2694
g49
(g50
g51
NtRp2695
(dp2696
g54
(dp2697
g62
I4
ssg63
g2691
sg56
(lp2698
g1972
asbasbasbag49
(g65
g51
NtRp2699
(dp2700
g54
(dp2701
sg63
g2615
sg56
(lp2702
g49
(g70
g51
NtRp2703
(dp2704
g54
(dp2705
g74
g75
ssg63
g2699
sg56
(lp2706
g1981
asbag49
(g70
g51
NtRp2707
(dp2708
g54
(dp2709
g81
g82
ssg63
g2699
sg56
(lp2710
S':'
asbag49
(g70
g51
NtRp2711
(dp2712
g54
(dp2713
sg63
g2699
sg56
(lp2714
g49
(g50
g51
NtRp2715
(dp2716
g54
(dp2717
g62
I4
ssg63
g2711
sg56
(lp2718
g1994
asbasbasbasbasbasbasbag49
(g65
g51
NtRp2719
(dp2720
g54
(dp2721
sg63
g59
sg56
(lp2722
g49
(g70
g51
NtRp2723
(dp2724
g54
(dp2725
g74
g75
ssg63
g2719
sg56
(lp2726
S'wsgi'
p2727
asbag49
(g70
g51
NtRp2728
(dp2729
g54
(dp2730
g81
g82
ssg63
g2719
sg56
(lp2731
S':'
asbag49
(g70
g51
NtRp2732
(dp2733
g54
(dp2734
sg63
g2719
sg56
(lp2735
g49
(g50
g51
NtRp2736
(dp2737
g54
(dp2738
g62
I5
ssg63
g2732
sg56
(lp2739
g49
(g58
g51
NtRp2740
(dp2741
g54
(dp2742
g62
I4
ssg63
Nsg56
(lp2743
g49
(g65
g51
NtRp2744
(dp2745
g54
(dp2746
sg63
g2740
sg56
(lp2747
g49
(g70
g51
NtRp2748
(dp2749
g54
(dp2750
g74
g75
ssg63
g2744
sg56
(lp2751
S'environ'
p2752
asbag49
(g70
g51
NtRp2753
(dp2754
g54
(dp2755
g81
g82
ssg63
g2744
sg56
(lp2756
S':'
asbag49
(g70
g51
NtRp2757
(dp2758
g54
(dp2759
sg63
g2744
sg56
(lp2760
g49
(g50
g51
NtRp2761
(dp2762
g54
(dp2763
g62
I4
ssg63
g2757
sg56
(lp2764
g49
(g58
g51
NtRp2765
(dp2766
g54
(dp2767
g62
I3
ssg63
Nsg56
(lp2768
g49
(g65
g51
NtRp2769
(dp2770
g54
(dp2771
sg63
g2765
sg56
(lp2772
g49
(g70
g51
NtRp2773
(dp2774
g54
(dp2775
g74
g75
ssg63
g2769
sg56
(lp2776
S'HTTP_ACCEPT'
p2777
asbag49
(g70
g51
NtRp2778
(dp2779
g54
(dp2780
g81
g82
ssg63
g2769
sg56
(lp2781
S':'
asbag49
(g70
g51
NtRp2782
(dp2783
g54
(dp2784
sg63
g2769
sg56
(lp2785
g49
(g50
g51
NtRp2786
(dp2787
g54
(dp2788
g62
I3
ssg63
g2782
sg56
(lp2789
g960
asbasbasbag49
(g65
g51
NtRp2790
(dp2791
g54
(dp2792
sg63
g2765
sg56
(lp2793
g49
(g70
g51
NtRp2794
(dp2795
g54
(dp2796
g74
g75
ssg63
g2790
sg56
(lp2797
S'HTTP_ACCEPT_CHARSET'
p2798
asbag49
(g70
g51
NtRp2799
(dp2800
g54
(dp2801
g81
g82
ssg63
g2790
sg56
(lp2802
S':'
asbag49
(g70
g51
NtRp2803
(dp2804
g54
(dp2805
sg63
g2790
sg56
(lp2806
g49
(g50
g51
NtRp2807
(dp2808
g54
(dp2809
g62
I3
ssg63
g2803
sg56
(lp2810
g982
asbasbasbag49
(g65
g51
NtRp2811
(dp2812
g54
(dp2813
sg63
g2765
sg56
(lp2814
g49
(g70
g51
NtRp2815
(dp2816
g54
(dp2817
g74
g75
ssg63
g2811
sg56
(lp2818
S'HTTP_ACCEPT_ENCODING'
p2819
asbag49
(g70
g51
NtRp2820
(dp2821
g54
(dp2822
g81
g82
ssg63
g2811
sg56
(lp2823
S':'
asbag49
(g70
g51
NtRp2824
(dp2825
g54
(dp2826
sg63
g2811
sg56
(lp2827
g49
(g50
g51
NtRp2828
(dp2829
g54
(dp2830
g62
I3
ssg63
g2824
sg56
(lp2831
g1004
asbasbasbag49
(g65
g51
NtRp2832
(dp2833
g54
(dp2834
sg63
g2765
sg56
(lp2835
g49
(g70
g51
NtRp2836
(dp2837
g54
(dp2838
g74
g75
ssg63
g2832
sg56
(lp2839
S'HTTP_ACCEPT_LANGUAGE'
p2840
asbag49
(g70
g51
NtRp2841
(dp2842
g54
(dp2843
g81
g82
ssg63
g2832
sg56
(lp2844
S':'
asbag49
(g70
g51
NtRp2845
(dp2846
g54
(dp2847
sg63
g2832
sg56
(lp2848
g49
(g50
g51
NtRp2849
(dp2850
g54
(dp2851
g62
I3
ssg63
g2845
sg56
(lp2852
g1026
asbasbasbag49
(g65
g51
NtRp2853
(dp2854
g54
(dp2855
sg63
g2765
sg56
(lp2856
g49
(g70
g51
NtRp2857
(dp2858
g54
(dp2859
g74
g75
ssg63
g2853
sg56
(lp2860
S'HTTP_CONNECTION'
p2861
asbag49
(g70
g51
NtRp2862
(dp2863
g54
(dp2864
g81
g82
ssg63
g2853
sg56
(lp2865
S':'
asbag49
(g70
g51
NtRp2866
(dp2867
g54
(dp2868
sg63
g2853
sg56
(lp2869
g49
(g50
g51
NtRp2870
(dp2871
g54
(dp2872
g62
I3
ssg63
g2866
sg56
(lp2873
g1048
asbasbasbag49
(g65
g51
NtRp2874
(dp2875
g54
(dp2876
sg63
g2765
sg56
(lp2877
g49
(g70
g51
NtRp2878
(dp2879
g54
(dp2880
g74
g75
ssg63
g2874
sg56
(lp2881
S'HTTP_COOKIE'
p2882
asbag49
(g70
g51
NtRp2883
(dp2884
g54
(dp2885
g81
g82
ssg63
g2874
sg56
(lp2886
S':'
asbag49
(g70
g51
NtRp2887
(dp2888
g54
(dp2889
sg63
g2874
sg56
(lp2890
g49
(g50
g51
NtRp2891
(dp2892
g54
(dp2893
g62
I3
ssg63
g2887
sg56
(lp2894
g1070
asbasbasbag49
(g65
g51
NtRp2895
(dp2896
g54
(dp2897
sg63
g2765
sg56
(lp2898
g49
(g70
g51
NtRp2899
(dp2900
g54
(dp2901
g74
g75
ssg63
g2895
sg56
(lp2902
S'HTTP_HOST'
p2903
asbag49
(g70
g51
NtRp2904
(dp2905
g54
(dp2906
g81
g82
ssg63
g2895
sg56
(lp2907
S':'
asbag49
(g70
g51
NtRp2908
(dp2909
g54
(dp2910
sg63
g2895
sg56
(lp2911
g49
(g50
g51
NtRp2912
(dp2913
g54
(dp2914
g62
I3
ssg63
g2908
sg56
(lp2915
g1092
asbasbasbag49
(g65
g51
NtRp2916
(dp2917
g54
(dp2918
sg63
g2765
sg56
(lp2919
g49
(g70
g51
NtRp2920
(dp2921
g54
(dp2922
g74
g75
ssg63
g2916
sg56
(lp2923
S'HTTP_USER_AGENT'
p2924
asbag49
(g70
g51
NtRp2925
(dp2926
g54
(dp2927
g81
g82
ssg63
g2916
sg56
(lp2928
S':'
asbag49
(g70
g51
NtRp2929
(dp2930
g54
(dp2931
sg63
g2916
sg56
(lp2932
g49
(g50
g51
NtRp2933
(dp2934
g54
(dp2935
g62
I3
ssg63
g2929
sg56
(lp2936
g1114
asbasbasbag49
(g65
g51
NtRp2937
(dp2938
g54
(dp2939
sg63
g2765
sg56
(lp2940
g49
(g70
g51
NtRp2941
(dp2942
g54
(dp2943
g74
g75
ssg63
g2937
sg56
(lp2944
S'PATH_INFO'
p2945
asbag49
(g70
g51
NtRp2946
(dp2947
g54
(dp2948
g81
g82
ssg63
g2937
sg56
(lp2949
S':'
asbag49
(g70
g51
NtRp2950
(dp2951
g54
(dp2952
sg63
g2937
sg56
(lp2953
g49
(g50
g51
NtRp2954
(dp2955
g54
(dp2956
g62
I3
ssg63
g2950
sg56
(lp2957
g1268
asbasbasbag49
(g65
g51
NtRp2958
(dp2959
g54
(dp2960
sg63
g2765
sg56
(lp2961
g49
(g70
g51
NtRp2962
(dp2963
g54
(dp2964
g74
g75
ssg63
g2958
sg56
(lp2965
S'QUERY_STRING'
p2966
asbag49
(g70
g51
NtRp2967
(dp2968
g54
(dp2969
g81
g82
ssg63
g2958
sg56
(lp2970
S':'
asbag49
(g70
g51
NtRp2971
(dp2972
g54
(dp2973
sg63
g2958
sg56
(lp2974
g49
(g50
g51
NtRp2975
(dp2976
g54
(dp2977
g62
I3
ssg63
g2971
sg56
(lp2978
g1290
asbasbasbag49
(g65
g51
NtRp2979
(dp2980
g54
(dp2981
sg63
g2765
sg56
(lp2982
g49
(g70
g51
NtRp2983
(dp2984
g54
(dp2985
g74
g75
ssg63
g2979
sg56
(lp2986
S'REMOTE_ADDR'
p2987
asbag49
(g70
g51
NtRp2988
(dp2989
g54
(dp2990
g81
g82
ssg63
g2979
sg56
(lp2991
S':'
asbag49
(g70
g51
NtRp2992
(dp2993
g54
(dp2994
sg63
g2979
sg56
(lp2995
g49
(g50
g51
NtRp2996
(dp2997
g54
(dp2998
g62
I3
ssg63
g2992
sg56
(lp2999
g204
asbasbasbag49
(g65
g51
NtRp3000
(dp3001
g54
(dp3002
sg63
g2765
sg56
(lp3003
g49
(g70
g51
NtRp3004
(dp3005
g54
(dp3006
g74
g75
ssg63
g3000
sg56
(lp3007
S'REMOTE_PORT'
p3008
asbag49
(g70
g51
NtRp3009
(dp3010
g54
(dp3011
g81
g82
ssg63
g3000
sg56
(lp3012
S':'
asbag49
(g70
g51
NtRp3013
(dp3014
g54
(dp3015
sg63
g3000
sg56
(lp3016
g49
(g50
g51
NtRp3017
(dp3018
g54
(dp3019
g62
I3
ssg63
g3013
sg56
(lp3020
g1333
asbasbasbag49
(g65
g51
NtRp3021
(dp3022
g54
(dp3023
sg63
g2765
sg56
(lp3024
g49
(g70
g51
NtRp3025
(dp3026
g54
(dp3027
g74
g75
ssg63
g3021
sg56
(lp3028
S'REQUEST_METHOD'
p3029
asbag49
(g70
g51
NtRp3030
(dp3031
g54
(dp3032
g81
g82
ssg63
g3021
sg56
(lp3033
S':'
asbag49
(g70
g51
NtRp3034
(dp3035
g54
(dp3036
sg63
g3021
sg56
(lp3037
g49
(g50
g51
NtRp3038
(dp3039
g54
(dp3040
g62
I3
ssg63
g3034
sg56
(lp3041
g1355
asbasbasbag49
(g65
g51
NtRp3042
(dp3043
g54
(dp3044
sg63
g2765
sg56
(lp3045
g49
(g70
g51
NtRp3046
(dp3047
g54
(dp3048
g74
g75
ssg63
g3042
sg56
(lp3049
S'REQUEST_URI'
p3050
asbag49
(g70
g51
NtRp3051
(dp3052
g54
(dp3053
g81
g82
ssg63
g3042
sg56
(lp3054
S':'
asbag49
(g70
g51
NtRp3055
(dp3056
g54
(dp3057
sg63
g3042
sg56
(lp3058
g49
(g50
g51
NtRp3059
(dp3060
g54
(dp3061
g62
I3
ssg63
g3055
sg56
(lp3062
g1377
asbasbasbag49
(g65
g51
NtRp3063
(dp3064
g54
(dp3065
sg63
g2765
sg56
(lp3066
g49
(g70
g51
NtRp3067
(dp3068
g54
(dp3069
g74
g75
ssg63
g3063
sg56
(lp3070
S'SCRIPT_NAME'
p3071
asbag49
(g70
g51
NtRp3072
(dp3073
g54
(dp3074
g81
g82
ssg63
g3063
sg56
(lp3075
S':'
asbag49
(g70
g51
NtRp3076
(dp3077
g54
(dp3078
sg63
g3063
sg56
(lp3079
g49
(g50
g51
NtRp3080
(dp3081
g54
(dp3082
g62
I3
ssg63
g3076
sg56
(lp3083
S''
asbasbasbag49
(g65
g51
NtRp3084
(dp3085
g54
(dp3086
sg63
g2765
sg56
(lp3087
g49
(g70
g51
NtRp3088
(dp3089
g54
(dp3090
g74
g75
ssg63
g3084
sg56
(lp3091
S'SERVER_NAME'
p3092
asbag49
(g70
g51
NtRp3093
(dp3094
g54
(dp3095
g81
g82
ssg63
g3084
sg56
(lp3096
S':'
asbag49
(g70
g51
NtRp3097
(dp3098
g54
(dp3099
sg63
g3084
sg56
(lp3100
g49
(g50
g51
NtRp3101
(dp3102
g54
(dp3103
g62
I3
ssg63
g3097
sg56
(lp3104
g1420
asbasbasbag49
(g65
g51
NtRp3105
(dp3106
g54
(dp3107
sg63
g2765
sg56
(lp3108
g49
(g70
g51
NtRp3109
(dp3110
g54
(dp3111
g74
g75
ssg63
g3105
sg56
(lp3112
S'SERVER_PORT'
p3113
asbag49
(g70
g51
NtRp3114
(dp3115
g54
(dp3116
g81
g82
ssg63
g3105
sg56
(lp3117
S':'
asbag49
(g70
g51
NtRp3118
(dp3119
g54
(dp3120
sg63
g3105
sg56
(lp3121
g49
(g50
g51
NtRp3122
(dp3123
g54
(dp3124
g62
I3
ssg63
g3118
sg56
(lp3125
g1442
asbasbasbag49
(g65
g51
NtRp3126
(dp3127
g54
(dp3128
sg63
g2765
sg56
(lp3129
g49
(g70
g51
NtRp3130
(dp3131
g54
(dp3132
g74
g75
ssg63
g3126
sg56
(lp3133
S'SERVER_PROTOCOL'
p3134
asbag49
(g70
g51
NtRp3135
(dp3136
g54
(dp3137
g81
g82
ssg63
g3126
sg56
(lp3138
S':'
asbag49
(g70
g51
NtRp3139
(dp3140
g54
(dp3141
sg63
g3126
sg56
(lp3142
g49
(g50
g51
NtRp3143
(dp3144
g54
(dp3145
g62
I3
ssg63
g3139
sg56
(lp3146
g1464
asbasbasbag49
(g65
g51
NtRp3147
(dp3148
g54
(dp3149
sg63
g2765
sg56
(lp3150
g49
(g70
g51
NtRp3151
(dp3152
g54
(dp3153
g74
g75
ssg63
g3147
sg56
(lp3154
S'SERVER_SOFTWARE'
p3155
asbag49
(g70
g51
NtRp3156
(dp3157
g54
(dp3158
g81
g82
ssg63
g3147
sg56
(lp3159
S':'
asbag49
(g70
g51
NtRp3160
(dp3161
g54
(dp3162
sg63
g3147
sg56
(lp3163
g49
(g50
g51
NtRp3164
(dp3165
g54
(dp3166
g62
I3
ssg63
g3160
sg56
(lp3167
g1486
asbasbasbag49
(g65
g51
NtRp3168
(dp3169
g54
(dp3170
sg63
g2765
sg56
(lp3171
g49
(g70
g51
NtRp3172
(dp3173
g54
(dp3174
g74
g75
ssg63
g3168
sg56
(lp3175
S'wsgi.errors'
p3176
asbag49
(g70
g51
NtRp3177
(dp3178
g54
(dp3179
g81
g82
ssg63
g3168
sg56
(lp3180
S':'
asbag49
(g70
g51
NtRp3181
(dp3182
g54
(dp3183
sg63
g3168
sg56
(lp3184
g49
(g50
g51
NtRp3185
(dp3186
g54
(dp3187
g62
I3
ssg63
g3181
sg56
(lp3188
S"<open file '<stderr>', mode 'w' at 0x660b0>"
p3189
asbasbasbag49
(g65
g51
NtRp3190
(dp3191
g54
(dp3192
sg63
g2765
sg56
(lp3193
g49
(g70
g51
NtRp3194
(dp3195
g54
(dp3196
g74
g75
ssg63
g3190
sg56
(lp3197
S'wsgi.file_wrapper'
p3198
asbag49
(g70
g51
NtRp3199
(dp3200
g54
(dp3201
g81
g82
ssg63
g3190
sg56
(lp3202
S':'
asbag49
(g70
g51
NtRp3203
(dp3204
g54
(dp3205
sg63
g3190
sg56
(lp3206
g49
(g50
g51
NtRp3207
(dp3208
g54
(dp3209
g62
I3
ssg63
g3203
sg56
(lp3210
S'<class wsgiref.util.FileWrapper at 0x456f060>'
p3211
asbasbasbag49
(g65
g51
NtRp3212
(dp3213
g54
(dp3214
sg63
g2765
sg56
(lp3215
g49
(g70
g51
NtRp3216
(dp3217
g54
(dp3218
g74
g75
ssg63
g3212
sg56
(lp3219
S'wsgi.input'
p3220
asbag49
(g70
g51
NtRp3221
(dp3222
g54
(dp3223
g81
g82
ssg63
g3212
sg56
(lp3224
S':'
asbag49
(g70
g51
NtRp3225
(dp3226
g54
(dp3227
sg63
g3212
sg56
(lp3228
g49
(g50
g51
NtRp3229
(dp3230
g54
(dp3231
g62
I3
ssg63
g3225
sg56
(lp3232
S'<cStringIO.StringO object at 0x907b6e0>'
p3233
asbasbasbag49
(g65
g51
NtRp3234
(dp3235
g54
(dp3236
sg63
g2765
sg56
(lp3237
g49
(g70
g51
NtRp3238
(dp3239
g54
(dp3240
g74
g75
ssg63
g3234
sg56
(lp3241
S'wsgi.multiprocess'
p3242
asbag49
(g70
g51
NtRp3243
(dp3244
g54
(dp3245
g81
g82
ssg63
g3234
sg56
(lp3246
S':'
asbag49
(g70
g51
NtRp3247
(dp3248
g54
(dp3249
sg63
g3234
sg56
(lp3250
g49
(g50
g51
NtRp3251
(dp3252
g54
(dp3253
g62
I3
ssg63
g3247
sg56
(lp3254
g92
asbasbasbag49
(g65
g51
NtRp3255
(dp3256
g54
(dp3257
sg63
g2765
sg56
(lp3258
g49
(g70
g51
NtRp3259
(dp3260
g54
(dp3261
g74
g75
ssg63
g3255
sg56
(lp3262
S'wsgi.multithread'
p3263
asbag49
(g70
g51
NtRp3264
(dp3265
g54
(dp3266
g81
g82
ssg63
g3255
sg56
(lp3267
S':'
asbag49
(g70
g51
NtRp3268
(dp3269
g54
(dp3270
sg63
g3255
sg56
(lp3271
g49
(g50
g51
NtRp3272
(dp3273
g54
(dp3274
g62
I3
ssg63
g3268
sg56
(lp3275
g916
asbasbasbag49
(g65
g51
NtRp3276
(dp3277
g54
(dp3278
sg63
g2765
sg56
(lp3279
g49
(g70
g51
NtRp3280
(dp3281
g54
(dp3282
g74
g75
ssg63
g3276
sg56
(lp3283
S'wsgi.run_once'
p3284
asbag49
(g70
g51
NtRp3285
(dp3286
g54
(dp3287
g81
g82
ssg63
g3276
sg56
(lp3288
S':'
asbag49
(g70
g51
NtRp3289
(dp3290
g54
(dp3291
sg63
g3276
sg56
(lp3292
g49
(g50
g51
NtRp3293
(dp3294
g54
(dp3295
g62
I3
ssg63
g3289
sg56
(lp3296
g92
asbasbasbag49
(g65
g51
NtRp3297
(dp3298
g54
(dp3299
sg63
g2765
sg56
(lp3300
g49
(g70
g51
NtRp3301
(dp3302
g54
(dp3303
g74
g75
ssg63
g3297
sg56
(lp3304
S'wsgi.url_scheme'
p3305
asbag49
(g70
g51
NtRp3306
(dp3307
g54
(dp3308
g81
g82
ssg63
g3297
sg56
(lp3309
S':'
asbag49
(g70
g51
NtRp3310
(dp3311
g54
(dp3312
sg63
g3297
sg56
(lp3313
g49
(g50
g51
NtRp3314
(dp3315
g54
(dp3316
g62
I3
ssg63
g3310
sg56
(lp3317
g1745
asbasbasbag49
(g65
g51
NtRp3318
(dp3319
g54
(dp3320
sg63
g2765
sg56
(lp3321
g49
(g70
g51
NtRp3322
(dp3323
g54
(dp3324
g74
g75
ssg63
g3318
sg56
(lp3325
S'wsgi.version'
p3326
asbag49
(g70
g51
NtRp3327
(dp3328
g54
(dp3329
g81
g82
ssg63
g3318
sg56
(lp3330
S':'
asbag49
(g70
g51
NtRp3331
(dp3332
g54
(dp3333
sg63
g3318
sg56
(lp3334
g49
(g50
g51
NtRp3335
(dp3336
g54
(dp3337
g62
I3
ssg63
g3331
sg56
(lp3338
S'1'
asbasbasbasbasbasbasbasbasbasbasbasbasbsS'frames'
p3339
(lp3340
(dp3341
S'file'
p3342
S'/home/mdipierro/web2py/gluon/restricted.py'
p3343
sS'dump'
p3344
(dp3345
sS'lnum'
p3346
I212
sS'lines'
p3347
(dp3348
sS'call'
p3349
S"(code='# -*- coding: utf-8 -*-\\n# this file is released ...nse._vars=response._caller(mobile_user_register)\\n', environment={'A': <class 'gluon.html.A'>, 'Auth': <class 'gluon.tools.Auth'>, 'B': <class 'gluon.html.B'>, 'BEAUTIFY': <class 'gluon.html.BEAUTIFY'>, 'BODY': <class 'gluon.html.BODY'>, 'BR': <class 'gluon.html.BR'>, 'BUTTON': <class 'gluon.html.BUTTON'>, 'CAT': <class 'gluon.html.CAT'>, 'CENTER': <class 'gluon.html.CENTER'>, 'CLEANUP': <class 'gluon.validators.CLEANUP'>, ...}, layer='/Applications/web2py.app/Contents/Resources/applications/MR/controllers/default.py')"
p3350
sS'func'
p3351
S'restricted'
p3352
sa(dp3353
g3342
S'/Applications/web2py.app/Contents/Resources/applications/MR/controllers/default.py'
p3354
sg3344
(dp3355
sg3346
I98
sg3347
(dp3356
I96
S'    return dict(form=crud())'
p3357
sI87
S'    http://..../[app]/default/data/update/[table]/[id]'
p3358
sI88
S'    http://..../[app]/default/data/delete/[table]/[id]'
p3359
sI89
S'    http://..../[app]/default/data/select/[table]'
p3360
sI90
S'    http://..../[app]/default/data/search/[table]'
p3361
sI91
S'    but URLs must be signed, i.e. linked with'
p3362
sI92
S"      A('table',_href=URL('data/tables',user_signature=True))"
p3363
sI93
S'    or with the signed load operator'
p3364
sI94
S"      LOAD('default','data.load',args='tables',ajax=True,user_signature=True)"
p3365
sI95
S'    """'
p3366
ssg3349
S'()'
p3367
sg3351
S'<module>'
p3368
sa(dp3369
g3342
S'/home/mdipierro/web2py/gluon/globals.py'
p3370
sg3344
(dp3371
sg3346
I193
sg3347
(dp3372
sg3349
S'(f=<function mobile_user_register at 0x8abed70>)'
p3373
sg3351
S'<lambda>'
p3374
sa(dp3375
g3342
S'/Applications/web2py.app/Contents/Resources/applications/MR/controllers/default.py'
p3376
sg3344
(dp3377
sg3346
I60
sg3347
(dp3378
I64
S'    ret = db.mobile_user.validate_and_insert(email=email, password=password, first_name=firstname, last_name=lastname, md5=result, country=country)'
p3379
sI55
S'    country = request.vars.country'
p3380
sI56
S'    rows = db(db.mobile_user.email==email).select()'
p3381
sI57
S'    result = []'
p3382
sI58
S''
sI59
S'    if len(rows) != 0:'
p3383
sI60
S'        result[status] = "exist"'
p3384
sI61
S'        return response.json(result)'
p3385
sI62
S''
sI63
S'    result = TT.md5_hash(password)'
p3386
ssg3349
S'()'
p3387
sg3351
S'mobile_user_register'
p3388
sasS'pyver'
p3389
S'Python 2.5.1: /Applications/web2py.app/Contents/MacOS/python'
p3390
sS'session'
p3391
g49
(g50
g51
NtRp3392
(dp3393
g54
(dp3394
sg56
(lp3395
g49
(g58
g51
NtRp3396
(dp3397
g54
(dp3398
g62
I5
ssg63
Nsg56
(lp3399
g49
(g65
g51
NtRp3400
(dp3401
g54
(dp3402
sg63
g3396
sg56
(lp3403
g49
(g70
g51
NtRp3404
(dp3405
g54
(dp3406
g74
g75
ssg63
g3400
sg56
(lp3407
S'last_orderby'
p3408
asbag49
(g70
g51
NtRp3409
(dp3410
g54
(dp3411
g81
g82
ssg63
g3400
sg56
(lp3412
S':'
asbag49
(g70
g51
NtRp3413
(dp3414
g54
(dp3415
sg63
g3400
sg56
(lp3416
g49
(g50
g51
NtRp3417
(dp3418
g54
(dp3419
g62
I5
ssg63
g3413
sg56
(lp3420
S'None'
p3421
asbasbasbag49
(g65
g51
NtRp3422
(dp3423
g54
(dp3424
sg63
g3396
sg56
(lp3425
g49
(g70
g51
NtRp3426
(dp3427
g54
(dp3428
g74
g75
ssg63
g3422
sg56
(lp3429
S'last_query'
p3430
asbag49
(g70
g51
NtRp3431
(dp3432
g54
(dp3433
g81
g82
ssg63
g3422
sg56
(lp3434
S':'
asbag49
(g70
g51
NtRp3435
(dp3436
g54
(dp3437
sg63
g3422
sg56
(lp3438
g49
(g50
g51
NtRp3439
(dp3440
g54
(dp3441
g62
I5
ssg63
g3435
sg56
(lp3442
S'db.mobile_user.id>0'
p3443
asbasbasbasbasbsS'etype'
p3444
S"<type 'exceptions.NameError'>"
p3445
sS'date'
p3446
S'Mon Apr 29 17:01:18 2013'
p3447
sS'response'
p3448
g49
(g50
g51
NtRp3449
(dp3450
g54
(dp3451
sg56
(lp3452
g49
(g58
g51
NtRp3453
(dp3454
g54
(dp3455
g62
I5
ssg63
Nsg56
(lp3456
g49
(g65
g51
NtRp3457
(dp3458
g54
(dp3459
sg63
g3453
sg56
(lp3460
g49
(g70
g51
NtRp3461
(dp3462
g54
(dp3463
g74
g75
ssg63
g3457
sg56
(lp3464
g147
asbag49
(g70
g51
NtRp3465
(dp3466
g54
(dp3467
g81
g82
ssg63
g3457
sg56
(lp3468
S':'
asbag49
(g70
g51
NtRp3469
(dp3470
g54
(dp3471
sg63
g3457
sg56
(lp3472
g49
(g50
g51
NtRp3473
(dp3474
g54
(dp3475
g62
I5
ssg63
g3469
sg56
(lp3476
S'<cStringIO.StringO object at 0x7764800>'
p3477
asbasbasbag49
(g65
g51
NtRp3478
(dp3479
g54
(dp3480
sg63
g3453
sg56
(lp3481
g49
(g70
g51
NtRp3482
(dp3483
g54
(dp3484
g74
g75
ssg63
g3478
sg56
(lp3485
g235
asbag49
(g70
g51
NtRp3486
(dp3487
g54
(dp3488
g81
g82
ssg63
g3478
sg56
(lp3489
S':'
asbag49
(g70
g51
NtRp3490
(dp3491
g54
(dp3492
sg63
g3478
sg56
(lp3493
g49
(g50
g51
NtRp3494
(dp3495
g54
(dp3496
g62
I5
ssg63
g3490
sg56
(lp3497
g49
(g58
g51
NtRp3498
(dp3499
g54
(dp3500
g62
I4
ssg63
Nsg56
(lp3501
g49
(g65
g51
NtRp3502
(dp3503
g54
(dp3504
sg63
g3498
sg56
(lp3505
g49
(g70
g51
NtRp3506
(dp3507
g54
(dp3508
g74
g75
ssg63
g3502
sg56
(lp3509
S'session_id_mr'
p3510
asbag49
(g70
g51
NtRp3511
(dp3512
g54
(dp3513
g81
g82
ssg63
g3502
sg56
(lp3514
S':'
asbag49
(g70
g51
NtRp3515
(dp3516
g54
(dp3517
sg63
g3502
sg56
(lp3518
g49
(g50
g51
NtRp3519
(dp3520
g54
(dp3521
g62
I4
ssg63
g3515
sg56
(lp3522
g446
ag49
(g58
g51
NtRp3523
(dp3524
g54
(dp3525
g62
I3
ssg63
Nsg56
(lp3526
g49
(g65
g51
NtRp3527
(dp3528
g54
(dp3529
sg63
g3523
sg56
(lp3530
g49
(g70
g51
NtRp3531
(dp3532
g54
(dp3533
g74
g75
ssg63
g3527
sg56
(lp3534
g286
asbag49
(g70
g51
NtRp3535
(dp3536
g54
(dp3537
g81
g82
ssg63
g3527
sg56
(lp3538
S':'
asbag49
(g70
g51
NtRp3539
(dp3540
g54
(dp3541
sg63
g3527
sg56
(lp3542
g49
(g50
g51
NtRp3543
(dp3544
g54
(dp3545
g62
I3
ssg63
g3539
sg56
(lp3546
S''
asbasbasbag49
(g65
g51
NtRp3547
(dp3548
g54
(dp3549
sg63
g3523
sg56
(lp3550
g49
(g70
g51
NtRp3551
(dp3552
g54
(dp3553
g74
g75
ssg63
g3547
sg56
(lp3554
g307
asbag49
(g70
g51
NtRp3555
(dp3556
g54
(dp3557
g81
g82
ssg63
g3547
sg56
(lp3558
S':'
asbag49
(g70
g51
NtRp3559
(dp3560
g54
(dp3561
sg63
g3547
sg56
(lp3562
g49
(g50
g51
NtRp3563
(dp3564
g54
(dp3565
g62
I3
ssg63
g3559
sg56
(lp3566
S''
asbasbasbag49
(g65
g51
NtRp3567
(dp3568
g54
(dp3569
sg63
g3523
sg56
(lp3570
g49
(g70
g51
NtRp3571
(dp3572
g54
(dp3573
g74
g75
ssg63
g3567
sg56
(lp3574
g328
asbag49
(g70
g51
NtRp3575
(dp3576
g54
(dp3577
g81
g82
ssg63
g3567
sg56
(lp3578
S':'
asbag49
(g70
g51
NtRp3579
(dp3580
g54
(dp3581
sg63
g3567
sg56
(lp3582
g49
(g50
g51
NtRp3583
(dp3584
g54
(dp3585
g62
I3
ssg63
g3579
sg56
(lp3586
S''
asbasbasbag49
(g65
g51
NtRp3587
(dp3588
g54
(dp3589
sg63
g3523
sg56
(lp3590
g49
(g70
g51
NtRp3591
(dp3592
g54
(dp3593
g74
g75
ssg63
g3587
sg56
(lp3594
g349
asbag49
(g70
g51
NtRp3595
(dp3596
g54
(dp3597
g81
g82
ssg63
g3587
sg56
(lp3598
S':'
asbag49
(g70
g51
NtRp3599
(dp3600
g54
(dp3601
sg63
g3587
sg56
(lp3602
g49
(g50
g51
NtRp3603
(dp3604
g54
(dp3605
g62
I3
ssg63
g3599
sg56
(lp3606
S''
asbasbasbag49
(g65
g51
NtRp3607
(dp3608
g54
(dp3609
sg63
g3523
sg56
(lp3610
g49
(g70
g51
NtRp3611
(dp3612
g54
(dp3613
g74
g75
ssg63
g3607
sg56
(lp3614
g370
asbag49
(g70
g51
NtRp3615
(dp3616
g54
(dp3617
g81
g82
ssg63
g3607
sg56
(lp3618
S':'
asbag49
(g70
g51
NtRp3619
(dp3620
g54
(dp3621
sg63
g3607
sg56
(lp3622
g49
(g50
g51
NtRp3623
(dp3624
g54
(dp3625
g62
I3
ssg63
g3619
sg56
(lp3626
S'/'
asbasbasbag49
(g65
g51
NtRp3627
(dp3628
g54
(dp3629
sg63
g3523
sg56
(lp3630
g49
(g70
g51
NtRp3631
(dp3632
g54
(dp3633
g74
g75
ssg63
g3627
sg56
(lp3634
g391
asbag49
(g70
g51
NtRp3635
(dp3636
g54
(dp3637
g81
g82
ssg63
g3627
sg56
(lp3638
S':'
asbag49
(g70
g51
NtRp3639
(dp3640
g54
(dp3641
sg63
g3627
sg56
(lp3642
g49
(g50
g51
NtRp3643
(dp3644
g54
(dp3645
g62
I3
ssg63
g3639
sg56
(lp3646
S''
asbasbasbag49
(g65
g51
NtRp3647
(dp3648
g54
(dp3649
sg63
g3523
sg56
(lp3650
g49
(g70
g51
NtRp3651
(dp3652
g54
(dp3653
g74
g75
ssg63
g3647
sg56
(lp3654
g412
asbag49
(g70
g51
NtRp3655
(dp3656
g54
(dp3657
g81
g82
ssg63
g3647
sg56
(lp3658
S':'
asbag49
(g70
g51
NtRp3659
(dp3660
g54
(dp3661
sg63
g3647
sg56
(lp3662
g49
(g50
g51
NtRp3663
(dp3664
g54
(dp3665
g62
I3
ssg63
g3659
sg56
(lp3666
S''
asbasbasbasbasbasbasbasbasbasbasbag49
(g65
g51
NtRp3667
(dp3668
g54
(dp3669
sg63
g3453
sg56
(lp3670
g49
(g70
g51
NtRp3671
(dp3672
g54
(dp3673
g74
g75
ssg63
g3667
sg56
(lp3674
S'delimiters'
p3675
asbag49
(g70
g51
NtRp3676
(dp3677
g54
(dp3678
g81
g82
ssg63
g3667
sg56
(lp3679
S':'
asbag49
(g70
g51
NtRp3680
(dp3681
g54
(dp3682
sg63
g3667
sg56
(lp3683
g49
(g50
g51
NtRp3684
(dp3685
g54
(dp3686
g62
I5
ssg63
g3680
sg56
(lp3687
g49
(g58
g51
NtRp3688
(dp3689
g54
(dp3690
g62
I4
ssg63
Nsg56
(lp3691
g49
(g65
g51
NtRp3692
(dp3693
g54
(dp3694
sg63
g3688
sg56
(lp3695
g49
(g70
g51
NtRp3696
(dp3697
g54
(dp3698
sg63
g3692
sg56
(lp3699
g49
(g50
g51
NtRp3700
(dp3701
g54
(dp3702
g62
I4
ssg63
g3696
sg56
(lp3703
S'{{'
p3704
asbasbasbag49
(g65
g51
NtRp3705
(dp3706
g54
(dp3707
sg63
g3688
sg56
(lp3708
g49
(g70
g51
NtRp3709
(dp3710
g54
(dp3711
sg63
g3705
sg56
(lp3712
g49
(g50
g51
NtRp3713
(dp3714
g54
(dp3715
g62
I4
ssg63
g3709
sg56
(lp3716
S'}}'
p3717
asbasbasbasbasbasbasbag49
(g65
g51
NtRp3718
(dp3719
g54
(dp3720
sg63
g3453
sg56
(lp3721
g49
(g70
g51
NtRp3722
(dp3723
g54
(dp3724
g74
g75
ssg63
g3718
sg56
(lp3725
S'files'
p3726
asbag49
(g70
g51
NtRp3727
(dp3728
g54
(dp3729
g81
g82
ssg63
g3718
sg56
(lp3730
S':'
asbag49
(g70
g51
NtRp3731
(dp3732
g54
(dp3733
sg63
g3718
sg56
(lp3734
g49
(g50
g51
NtRp3735
(dp3736
g54
(dp3737
g62
I5
ssg63
g3731
sg56
(lp3738
g49
(g58
g51
NtRp3739
(dp3740
g54
(dp3741
g62
I4
ssg63
Nsg56
(lp3742
sbasbasbasbag49
(g65
g51
NtRp3743
(dp3744
g54
(dp3745
sg63
g3453
sg56
(lp3746
g49
(g70
g51
NtRp3747
(dp3748
g54
(dp3749
g74
g75
ssg63
g3743
sg56
(lp3750
S'flash'
p3751
asbag49
(g70
g51
NtRp3752
(dp3753
g54
(dp3754
g81
g82
ssg63
g3743
sg56
(lp3755
S':'
asbag49
(g70
g51
NtRp3756
(dp3757
g54
(dp3758
sg63
g3743
sg56
(lp3759
g49
(g50
g51
NtRp3760
(dp3761
g54
(dp3762
g62
I5
ssg63
g3756
sg56
(lp3763
S''
asbasbasbag49
(g65
g51
NtRp3764
(dp3765
g54
(dp3766
sg63
g3453
sg56
(lp3767
g49
(g70
g51
NtRp3768
(dp3769
g54
(dp3770
g74
g75
ssg63
g3764
sg56
(lp3771
S'generic_patterns'
p3772
asbag49
(g70
g51
NtRp3773
(dp3774
g54
(dp3775
g81
g82
ssg63
g3764
sg56
(lp3776
S':'
asbag49
(g70
g51
NtRp3777
(dp3778
g54
(dp3779
sg63
g3764
sg56
(lp3780
g49
(g50
g51
NtRp3781
(dp3782
g54
(dp3783
g62
I5
ssg63
g3777
sg56
(lp3784
g49
(g58
g51
NtRp3785
(dp3786
g54
(dp3787
g62
I4
ssg63
Nsg56
(lp3788
g49
(g65
g51
NtRp3789
(dp3790
g54
(dp3791
sg63
g3785
sg56
(lp3792
g49
(g70
g51
NtRp3793
(dp3794
g54
(dp3795
sg63
g3789
sg56
(lp3796
g49
(g50
g51
NtRp3797
(dp3798
g54
(dp3799
g62
I4
ssg63
g3793
sg56
(lp3800
S'*'
asbasbasbasbasbasbasbag49
(g65
g51
NtRp3801
(dp3802
g54
(dp3803
sg63
g3453
sg56
(lp3804
g49
(g70
g51
NtRp3805
(dp3806
g54
(dp3807
g74
g75
ssg63
g3801
sg56
(lp3808
S'google_analytics_id'
p3809
asbag49
(g70
g51
NtRp3810
(dp3811
g54
(dp3812
g81
g82
ssg63
g3801
sg56
(lp3813
S':'
asbag49
(g70
g51
NtRp3814
(dp3815
g54
(dp3816
sg63
g3801
sg56
(lp3817
g49
(g50
g51
NtRp3818
(dp3819
g54
(dp3820
g62
I5
ssg63
g3814
sg56
(lp3821
S'None'
p3822
asbasbasbag49
(g65
g51
NtRp3823
(dp3824
g54
(dp3825
sg63
g3453
sg56
(lp3826
g49
(g70
g51
NtRp3827
(dp3828
g54
(dp3829
g74
g75
ssg63
g3823
sg56
(lp3830
S'headers'
p3831
asbag49
(g70
g51
NtRp3832
(dp3833
g54
(dp3834
g81
g82
ssg63
g3823
sg56
(lp3835
S':'
asbag49
(g70
g51
NtRp3836
(dp3837
g54
(dp3838
sg63
g3823
sg56
(lp3839
g49
(g50
g51
NtRp3840
(dp3841
g54
(dp3842
g62
I5
ssg63
g3836
sg56
(lp3843
g49
(g58
g51
NtRp3844
(dp3845
g54
(dp3846
g62
I4
ssg63
Nsg56
(lp3847
g49
(g65
g51
NtRp3848
(dp3849
g54
(dp3850
sg63
g3844
sg56
(lp3851
g49
(g70
g51
NtRp3852
(dp3853
g54
(dp3854
g74
g75
ssg63
g3848
sg56
(lp3855
S'X-Powered-By'
p3856
asbag49
(g70
g51
NtRp3857
(dp3858
g54
(dp3859
g81
g82
ssg63
g3848
sg56
(lp3860
S':'
asbag49
(g70
g51
NtRp3861
(dp3862
g54
(dp3863
sg63
g3848
sg56
(lp3864
g49
(g50
g51
NtRp3865
(dp3866
g54
(dp3867
g62
I4
ssg63
g3861
sg56
(lp3868
S'web2py'
p3869
asbasbasbasbasbasbasbag49
(g65
g51
NtRp3870
(dp3871
g54
(dp3872
sg63
g3453
sg56
(lp3873
g49
(g70
g51
NtRp3874
(dp3875
g54
(dp3876
g74
g75
ssg63
g3870
sg56
(lp3877
S'logo'
p3878
asbag49
(g70
g51
NtRp3879
(dp3880
g54
(dp3881
g81
g82
ssg63
g3870
sg56
(lp3882
S':'
asbag49
(g70
g51
NtRp3883
(dp3884
g54
(dp3885
sg63
g3870
sg56
(lp3886
g49
(g50
g51
NtRp3887
(dp3888
g54
(dp3889
g62
I5
ssg63
g3883
sg56
(lp3890
g49
(cgluon.html
A
p3891
g51
NtRp3892
(dp3893
g54
(dp3894
S'_class'
p3895
S'brand'
p3896
sS'_href'
p3897
S'http://www.web2py.com/'
p3898
ssg63
Nsg56
(lp3899
g49
(cgluon.html
B
p3900
g51
NtRp3901
(dp3902
g54
(dp3903
sg63
g3892
sg56
(lp3904
S'web'
p3905
ag49
(cgluon.html
SPAN
p3906
g51
NtRp3907
(dp3908
g54
(dp3909
sg63
g3901
sg56
(lp3910
I2
asbaS'py'
p3911
asbacgluon.html
XML_unpickle
p3912
(S's\r\x00\x00\x00&trade;&nbsp;'
tRp3913
asbasbasbasbag49
(g65
g51
NtRp3914
(dp3915
g54
(dp3916
sg63
g3453
sg56
(lp3917
g49
(g70
g51
NtRp3918
(dp3919
g54
(dp3920
g74
g75
ssg63
g3914
sg56
(lp3921
S'menu'
p3922
asbag49
(g70
g51
NtRp3923
(dp3924
g54
(dp3925
g81
g82
ssg63
g3914
sg56
(lp3926
S':'
asbag49
(g70
g51
NtRp3927
(dp3928
g54
(dp3929
sg63
g3914
sg56
(lp3930
g49
(g50
g51
NtRp3931
(dp3932
g54
(dp3933
g62
I5
ssg63
g3927
sg56
(lp3934
g49
(g58
g51
NtRp3935
(dp3936
g54
(dp3937
g62
I4
ssg63
Nsg56
(lp3938
g49
(g65
g51
NtRp3939
(dp3940
g54
(dp3941
sg63
g3935
sg56
(lp3942
g49
(g70
g51
NtRp3943
(dp3944
g54
(dp3945
sg63
g3939
sg56
(lp3946
g49
(g50
g51
NtRp3947
(dp3948
g54
(dp3949
g62
I4
ssg63
g3943
sg56
(lp3950
g49
(g58
g51
NtRp3951
(dp3952
g54
(dp3953
g62
I3
ssg63
Nsg56
(lp3954
g49
(g65
g51
NtRp3955
(dp3956
g54
(dp3957
sg63
g3951
sg56
(lp3958
g49
(g70
g51
NtRp3959
(dp3960
g54
(dp3961
sg63
g3955
sg56
(lp3962
g49
(g50
g51
NtRp3963
(dp3964
g54
(dp3965
g62
I3
ssg63
g3959
sg56
(lp3966
cgluon.languages
lazyT_unpickle
p3967
(S't\x04\x00\x00\x00Home'
tRp3968
asbasbasbag49
(g65
g51
NtRp3969
(dp3970
g54
(dp3971
sg63
g3951
sg56
(lp3972
g49
(g70
g51
NtRp3973
(dp3974
g54
(dp3975
sg63
g3969
sg56
(lp3976
g49
(g50
g51
NtRp3977
(dp3978
g54
(dp3979
g62
I3
ssg63
g3973
sg56
(lp3980
g92
asbasbasbag49
(g65
g51
NtRp3981
(dp3982
g54
(dp3983
sg63
g3951
sg56
(lp3984
g49
(g70
g51
NtRp3985
(dp3986
g54
(dp3987
sg63
g3981
sg56
(lp3988
g49
(g50
g51
NtRp3989
(dp3990
g54
(dp3991
g62
I3
ssg63
g3985
sg56
(lp3992
S'/MR/default/index'
p3993
asbasbasbag49
(g65
g51
NtRp3994
(dp3995
g54
(dp3996
sg63
g3951
sg56
(lp3997
g49
(g70
g51
NtRp3998
(dp3999
g54
(dp4000
sg63
g3994
sg56
(lp4001
g49
(g50
g51
NtRp4002
(dp4003
g54
(dp4004
g62
I3
ssg63
g3998
sg56
(lp4005
g49
(g58
g51
NtRp4006
(dp4007
g54
(dp4008
g62
I2
ssg63
Nsg56
(lp4009
sbasbasbasbasbasbasbasbag49
(g65
g51
NtRp4010
(dp4011
g54
(dp4012
sg63
g3935
sg56
(lp4013
g49
(g70
g51
NtRp4014
(dp4015
g54
(dp4016
sg63
g4010
sg56
(lp4017
g49
(g50
g51
NtRp4018
(dp4019
g54
(dp4020
g62
I4
ssg63
g4014
sg56
(lp4021
g49
(g58
g51
NtRp4022
(dp4023
g54
(dp4024
g62
I3
ssg63
Nsg56
(lp4025
g49
(g65
g51
NtRp4026
(dp4027
g54
(dp4028
sg63
g4022
sg56
(lp4029
g49
(g70
g51
NtRp4030
(dp4031
g54
(dp4032
sg63
g4026
sg56
(lp4033
g49
(g50
g51
NtRp4034
(dp4035
g54
(dp4036
g62
I3
ssg63
g4030
sg56
(lp4037
g49
(g3906
g51
NtRp4038
(dp4039
g54
(dp4040
g3895
S'highlighted'
p4041
ssg63
Nsg56
(lp4042
g3869
asbasbasbasbag49
(g65
g51
NtRp4043
(dp4044
g54
(dp4045
sg63
g4022
sg56
(lp4046
g49
(g70
g51
NtRp4047
(dp4048
g54
(dp4049
sg63
g4043
sg56
(lp4050
g49
(g50
g51
NtRp4051
(dp4052
g54
(dp4053
g62
I3
ssg63
g4047
sg56
(lp4054
g92
asbasbasbag49
(g65
g51
NtRp4055
(dp4056
g54
(dp4057
sg63
g4022
sg56
(lp4058
g49
(g70
g51
NtRp4059
(dp4060
g54
(dp4061
sg63
g4055
sg56
(lp4062
g49
(g50
g51
NtRp4063
(dp4064
g54
(dp4065
g62
I3
ssg63
g4059
sg56
(lp4066
S'http://web2py.com'
p4067
asbasbasbag49
(g65
g51
NtRp4068
(dp4069
g54
(dp4070
sg63
g4022
sg56
(lp4071
g49
(g70
g51
NtRp4072
(dp4073
g54
(dp4074
sg63
g4068
sg56
(lp4075
g49
(g50
g51
NtRp4076
(dp4077
g54
(dp4078
g62
I3
ssg63
g4072
sg56
(lp4079
g49
(g58
g51
NtRp4080
(dp4081
g54
(dp4082
g62
I2
ssg63
Nsg56
(lp4083
g49
(g65
g51
NtRp4084
(dp4085
g54
(dp4086
sg63
g4080
sg56
(lp4087
g49
(g70
g51
NtRp4088
(dp4089
g54
(dp4090
sg63
g4084
sg56
(lp4091
g49
(g50
g51
NtRp4092
(dp4093
g54
(dp4094
g62
I2
ssg63
g4088
sg56
(lp4095
g49
(g58
g51
NtRp4096
(dp4097
g54
(dp4098
g62
I1
ssg63
Nsg56
(lp4099
g49
(g65
g51
NtRp4100
(dp4101
g54
(dp4102
sg63
g4096
sg56
(lp4103
g49
(g70
g51
NtRp4104
(dp4105
g54
(dp4106
sg63
g4100
sg56
(lp4107
g49
(g50
g51
NtRp4108
(dp4109
g54
(dp4110
g62
I1
ssg63
g4104
sg56
(lp4111
g3967
(S's\x08\x00\x00\x00My Sites'
tRp4112
asbasbasbag49
(g65
g51
NtRp4113
(dp4114
g54
(dp4115
sg63
g4096
sg56
(lp4116
g49
(g70
g51
NtRp4117
(dp4118
g54
(dp4119
sg63
g4113
sg56
(lp4120
g49
(g50
g51
NtRp4121
(dp4122
g54
(dp4123
g62
I1
ssg63
g4117
sg56
(lp4124
I00
asbasbasbag49
(g65
g51
NtRp4125
(dp4126
g54
(dp4127
sg63
g4096
sg56
(lp4128
g49
(g70
g51
NtRp4129
(dp4130
g54
(dp4131
sg63
g4125
sg56
(lp4132
g49
(g50
g51
NtRp4133
(dp4134
g54
(dp4135
g62
I1
ssg63
g4129
sg56
(lp4136
S'/admin/default/site'
p4137
asbasbasbasbasbasbasbag49
(g65
g51
NtRp4138
(dp4139
g54
(dp4140
sg63
g4080
sg56
(lp4141
g49
(g70
g51
NtRp4142
(dp4143
g54
(dp4144
sg63
g4138
sg56
(lp4145
g49
(g50
g51
NtRp4146
(dp4147
g54
(dp4148
g62
I2
ssg63
g4142
sg56
(lp4149
g49
(g58
g51
NtRp4150
(dp4151
g54
(dp4152
g62
I1
ssg63
Nsg56
(lp4153
g49
(g65
g51
NtRp4154
(dp4155
g54
(dp4156
sg63
g4150
sg56
(lp4157
g49
(g70
g51
NtRp4158
(dp4159
g54
(dp4160
sg63
g4154
sg56
(lp4161
g49
(g50
g51
NtRp4162
(dp4163
g54
(dp4164
g62
I1
ssg63
g4158
sg56
(lp4165
g3967
(S's\x08\x00\x00\x00This App'
tRp4166
asbasbasbag49
(g65
g51
NtRp4167
(dp4168
g54
(dp4169
sg63
g4150
sg56
(lp4170
g49
(g70
g51
NtRp4171
(dp4172
g54
(dp4173
sg63
g4167
sg56
(lp4174
g49
(g50
g51
NtRp4175
(dp4176
g54
(dp4177
g62
I1
ssg63
g4171
sg56
(lp4178
I00
asbasbasbag49
(g65
g51
NtRp4179
(dp4180
g54
(dp4181
sg63
g4150
sg56
(lp4182
g49
(g70
g51
NtRp4183
(dp4184
g54
(dp4185
sg63
g4179
sg56
(lp4186
g49
(g50
g51
NtRp4187
(dp4188
g54
(dp4189
g62
I1
ssg63
g4183
sg56
(lp4190
S'/admin/default/design/MR'
p4191
asbasbasbag49
(g65
g51
NtRp4192
(dp4193
g54
(dp4194
sg63
g4150
sg56
(lp4195
g49
(g70
g51
NtRp4196
(dp4197
g54
(dp4198
sg63
g4192
sg56
(lp4199
g49
(g50
g51
NtRp4200
(dp4201
g54
(dp4202
g62
I1
ssg63
g4196
sg56
(lp4203
(lp4204
(g3967
(S's\x06\x00\x00\x00\xe6\x8e\xa7\xe4\xbb\xb6'
tRp4205
I00
S'/admin/default/edit/MR/controllers/default.py'
tp4206
a(g3967
(S's\x06\x00\x00\x00\xe8\xa6\x96\xe5\x9c\x96'
tRp4207
I00
S'/admin/default/edit/MR/views/default/mobile_user_register.html'
tp4208
a(g3967
(S's\x0c\x00\x00\x00\xe7\xb6\xb2\xe9\xa0\x81\xe9\x85\x8d\xe7\xbd\xae'
tRp4209
I00
S'/admin/default/edit/MR/views/layout.html'
tp4210
a(g3967
(S's\x0f\x00\x00\x00\xe7\xb6\xb2\xe9\xa0\x81\xe9\xa2\xa8\xe6\xa0\xbc\xe6\xaa\x94'
tRp4211
I00
S'/admin/default/edit/MR/static/css/web2py.css'
tp4212
a(g3967
(S's\x0f\x00\x00\x00\xe8\xb3\x87\xe6\x96\x99\xe5\xba\xab\xe6\xa8\xa1\xe7\xb5\x84'
tRp4213
I00
S'/admin/default/edit/MR/models/db.py'
tp4214
a(g3967
(S's\x12\x00\x00\x00\xe9\x81\xb8\xe5\x96\xae\xe6\xa8\xa1\xe7\xb5\x84(menu)'
tRp4215
I00
S'/admin/default/edit/MR/models/menu.py'
tp4216
a(g3967
(S's\t\x00\x00\x00\xe8\xb3\x87\xe6\x96\x99\xe5\xba\xab'
tRp4217
I00
S'/MR/appadmin/index'
tp4218
a(g3967
(S't\x06\x00\x00\x00Errors'
tRp4219
I00
S'/admin/default/errors/MR'
tp4220
a(g3967
(S's\x06\x00\x00\x00\xe9\x97\x9c\xe6\x96\xbc'
tRp4221
I00
S'/admin/default/about/MR'
tp4222
aasbasbasbasbasbasbasbag49
(g65
g51
NtRp4223
(dp4224
g54
(dp4225
sg63
g4080
sg56
(lp4226
g49
(g70
g51
NtRp4227
(dp4228
g54
(dp4229
sg63
g4223
sg56
(lp4230
g49
(g50
g51
NtRp4231
(dp4232
g54
(dp4233
g62
I2
ssg63
g4227
sg56
(lp4234
g49
(g58
g51
NtRp4235
(dp4236
g54
(dp4237
g62
I1
ssg63
Nsg56
(lp4238
g49
(g65
g51
NtRp4239
(dp4240
g54
(dp4241
sg63
g4235
sg56
(lp4242
g49
(g70
g51
NtRp4243
(dp4244
g54
(dp4245
sg63
g4239
sg56
(lp4246
g49
(g50
g51
NtRp4247
(dp4248
g54
(dp4249
g62
I1
ssg63
g4243
sg56
(lp4250
S'web2py.com'
p4251
asbasbasbag49
(g65
g51
NtRp4252
(dp4253
g54
(dp4254
sg63
g4235
sg56
(lp4255
g49
(g70
g51
NtRp4256
(dp4257
g54
(dp4258
sg63
g4252
sg56
(lp4259
g49
(g50
g51
NtRp4260
(dp4261
g54
(dp4262
g62
I1
ssg63
g4256
sg56
(lp4263
I00
asbasbasbag49
(g65
g51
NtRp4264
(dp4265
g54
(dp4266
sg63
g4235
sg56
(lp4267
g49
(g70
g51
NtRp4268
(dp4269
g54
(dp4270
sg63
g4264
sg56
(lp4271
g49
(g50
g51
NtRp4272
(dp4273
g54
(dp4274
g62
I1
ssg63
g4268
sg56
(lp4275
S'http://www.web2py.com'
p4276
asbasbasbag49
(g65
g51
NtRp4277
(dp4278
g54
(dp4279
sg63
g4235
sg56
(lp4280
g49
(g70
g51
NtRp4281
(dp4282
g54
(dp4283
sg63
g4277
sg56
(lp4284
g49
(g50
g51
NtRp4285
(dp4286
g54
(dp4287
g62
I1
ssg63
g4281
sg56
(lp4288
(lp4289
(g3967
(S't\x08\x00\x00\x00Download'
tRp4290
I00
S'http://www.web2py.com/examples/default/download'
p4291
tp4292
a(g3967
(S't\x07\x00\x00\x00Support'
tRp4293
I00
S'http://www.web2py.com/examples/default/support'
p4294
tp4295
a(g3967
(S't\x04\x00\x00\x00Demo'
tRp4296
I00
S'http://web2py.com/demo_admin'
p4297
tp4298
a(g3967
(S's\x0e\x00\x00\x00Quick Examples'
tRp4299
I00
S'http://web2py.com/examples/default/examples'
p4300
tp4301
a(g3967
(S't\x03\x00\x00\x00FAQ'
tRp4302
I00
S'http://web2py.com/AlterEgo'
p4303
tp4304
a(g3967
(S't\x06\x00\x00\x00Videos'
tRp4305
I00
S'http://www.web2py.com/examples/default/videos/'
p4306
tp4307
a(g3967
(S's\x11\x00\x00\x00Free Applications'
tRp4308
I00
S'http://web2py.com/appliances'
p4309
tp4310
a(g3967
(S't\x07\x00\x00\x00Plugins'
tRp4311
I00
S'http://web2py.com/plugins'
p4312
tp4313
a(g3967
(S't\x07\x00\x00\x00Layouts'
tRp4314
I00
S'http://web2py.com/layouts'
p4315
tp4316
a(g3967
(S't\x07\x00\x00\x00Recipes'
tRp4317
I00
S'http://web2pyslices.com/'
p4318
tp4319
a(g3967
(S't\x08\x00\x00\x00Semantic'
tRp4320
I00
S'http://web2py.com/semantic'
p4321
tp4322
aasbasbasbasbasbasbasbag49
(g65
g51
NtRp4323
(dp4324
g54
(dp4325
sg63
g4080
sg56
(lp4326
g49
(g70
g51
NtRp4327
(dp4328
g54
(dp4329
sg63
g4323
sg56
(lp4330
g49
(g50
g51
NtRp4331
(dp4332
g54
(dp4333
g62
I2
ssg63
g4327
sg56
(lp4334
g49
(g58
g51
NtRp4335
(dp4336
g54
(dp4337
g62
I1
ssg63
Nsg56
(lp4338
g49
(g65
g51
NtRp4339
(dp4340
g54
(dp4341
sg63
g4335
sg56
(lp4342
g49
(g70
g51
NtRp4343
(dp4344
g54
(dp4345
sg63
g4339
sg56
(lp4346
g49
(g50
g51
NtRp4347
(dp4348
g54
(dp4349
g62
I1
ssg63
g4343
sg56
(lp4350
g3967
(S't\r\x00\x00\x00Documentation'
tRp4351
asbasbasbag49
(g65
g51
NtRp4352
(dp4353
g54
(dp4354
sg63
g4335
sg56
(lp4355
g49
(g70
g51
NtRp4356
(dp4357
g54
(dp4358
sg63
g4352
sg56
(lp4359
g49
(g50
g51
NtRp4360
(dp4361
g54
(dp4362
g62
I1
ssg63
g4356
sg56
(lp4363
I00
asbasbasbag49
(g65
g51
NtRp4364
(dp4365
g54
(dp4366
sg63
g4335
sg56
(lp4367
g49
(g70
g51
NtRp4368
(dp4369
g54
(dp4370
sg63
g4364
sg56
(lp4371
g49
(g50
g51
NtRp4372
(dp4373
g54
(dp4374
g62
I1
ssg63
g4368
sg56
(lp4375
S'http://www.web2py.com/book'
p4376
asbasbasbag49
(g65
g51
NtRp4377
(dp4378
g54
(dp4379
sg63
g4335
sg56
(lp4380
g49
(g70
g51
NtRp4381
(dp4382
g54
(dp4383
sg63
g4377
sg56
(lp4384
g49
(g50
g51
NtRp4385
(dp4386
g54
(dp4387
g62
I1
ssg63
g4381
sg56
(lp4388
(lp4389
(g3967
(S't\x07\x00\x00\x00Preface'
tRp4390
I00
S'http://www.web2py.com/book/default/chapter/00'
p4391
tp4392
a(g3967
(S't\x0c\x00\x00\x00Introduction'
tRp4393
I00
S'http://www.web2py.com/book/default/chapter/01'
p4394
tp4395
a(g3967
(S't\x06\x00\x00\x00Python'
tRp4396
I00
S'http://www.web2py.com/book/default/chapter/02'
p4397
tp4398
a(g3967
(S't\x08\x00\x00\x00Overview'
tRp4399
I00
S'http://www.web2py.com/book/default/chapter/03'
p4400
tp4401
a(g3967
(S's\x08\x00\x00\x00The Core'
tRp4402
I00
S'http://www.web2py.com/book/default/chapter/04'
p4403
tp4404
a(g3967
(S's\t\x00\x00\x00The Views'
tRp4405
I00
S'http://www.web2py.com/book/default/chapter/05'
p4406
tp4407
a(g3967
(S's\t\x00\x00\x00\xe8\xb3\x87\xe6\x96\x99\xe5\xba\xab'
tRp4408
I00
S'http://www.web2py.com/book/default/chapter/06'
p4409
tp4410
a(g3967
(S's\x14\x00\x00\x00Forms and Validators'
tRp4411
I00
S'http://www.web2py.com/book/default/chapter/07'
p4412
tp4413
a(g3967
(S's\r\x00\x00\x00Email and SMS'
tRp4414
I00
S'http://www.web2py.com/book/default/chapter/08'
p4415
tp4416
a(g3967
(S's\x0e\x00\x00\x00Access Control'
tRp4417
I00
S'http://www.web2py.com/book/default/chapter/09'
p4418
tp4419
a(g3967
(S't\x08\x00\x00\x00Services'
tRp4420
I00
S'http://www.web2py.com/book/default/chapter/10'
p4421
tp4422
a(g3967
(S's\x0c\x00\x00\x00Ajax Recipes'
tRp4423
I00
S'http://www.web2py.com/book/default/chapter/11'
p4424
tp4425
a(g3967
(S's\x16\x00\x00\x00Components and Plugins'
tRp4426
I00
S'http://www.web2py.com/book/default/chapter/12'
p4427
tp4428
a(g3967
(S's\x12\x00\x00\x00Deployment Recipes'
tRp4429
I00
S'http://www.web2py.com/book/default/chapter/13'
p4430
tp4431
a(g3967
(S's\r\x00\x00\x00Other Recipes'
tRp4432
I00
S'http://www.web2py.com/book/default/chapter/14'
p4433
tp4434
a(g3967
(S's\r\x00\x00\x00Buy this book'
tRp4435
I00
S'http://stores.lulu.com/web2py'
p4436
tp4437
aasbasbasbasbasbasbasbag49
(g65
g51
NtRp4438
(dp4439
g54
(dp4440
sg63
g4080
sg56
(lp4441
g49
(g70
g51
NtRp4442
(dp4443
g54
(dp4444
sg63
g4438
sg56
(lp4445
g49
(g50
g51
NtRp4446
(dp4447
g54
(dp4448
g62
I2
ssg63
g4442
sg56
(lp4449
g49
(g58
g51
NtRp4450
(dp4451
g54
(dp4452
g62
I1
ssg63
Nsg56
(lp4453
g49
(g65
g51
NtRp4454
(dp4455
g54
(dp4456
sg63
g4450
sg56
(lp4457
g49
(g70
g51
NtRp4458
(dp4459
g54
(dp4460
sg63
g4454
sg56
(lp4461
g49
(g50
g51
NtRp4462
(dp4463
g54
(dp4464
g62
I1
ssg63
g4458
sg56
(lp4465
g3967
(S't\t\x00\x00\x00Community'
tRp4466
asbasbasbag49
(g65
g51
NtRp4467
(dp4468
g54
(dp4469
sg63
g4450
sg56
(lp4470
g49
(g70
g51
NtRp4471
(dp4472
g54
(dp4473
sg63
g4467
sg56
(lp4474
g49
(g50
g51
NtRp4475
(dp4476
g54
(dp4477
g62
I1
ssg63
g4471
sg56
(lp4478
I00
asbasbasbag49
(g65
g51
NtRp4479
(dp4480
g54
(dp4481
sg63
g4450
sg56
(lp4482
g49
(g70
g51
NtRp4483
(dp4484
g54
(dp4485
sg63
g4479
sg56
(lp4486
g49
(g50
g51
NtRp4487
(dp4488
g54
(dp4489
g62
I1
ssg63
g4483
sg56
(lp4490
Nasbasbasbag49
(g65
g51
NtRp4491
(dp4492
g54
(dp4493
sg63
g4450
sg56
(lp4494
g49
(g70
g51
NtRp4495
(dp4496
g54
(dp4497
sg63
g4491
sg56
(lp4498
g49
(g50
g51
NtRp4499
(dp4500
g54
(dp4501
g62
I1
ssg63
g4495
sg56
(lp4502
(lp4503
(g3967
(S't\x06\x00\x00\x00Groups'
tRp4504
I00
S'http://www.web2py.com/examples/default/usergroups'
p4505
tp4506
a(g3967
(S't\x07\x00\x00\x00Twitter'
tRp4507
I00
S'http://twitter.com/web2py'
p4508
tp4509
a(g3967
(S's\t\x00\x00\x00Live Chat'
tRp4510
I00
S'http://webchat.freenode.net/?channels=web2py'
p4511
tp4512
aasbasbasbasbasbasbasbag49
(g65
g51
NtRp4513
(dp4514
g54
(dp4515
sg63
g4080
sg56
(lp4516
g49
(g70
g51
NtRp4517
(dp4518
g54
(dp4519
sg63
g4513
sg56
(lp4520
g49
(g50
g51
NtRp4521
(dp4522
g54
(dp4523
g62
I2
ssg63
g4517
sg56
(lp4524
g49
(g58
g51
NtRp4525
(dp4526
g54
(dp4527
g62
I1
ssg63
Nsg56
(lp4528
g49
(g65
g51
NtRp4529
(dp4530
g54
(dp4531
sg63
g4525
sg56
(lp4532
g49
(g70
g51
NtRp4533
(dp4534
g54
(dp4535
sg63
g4529
sg56
(lp4536
g49
(g50
g51
NtRp4537
(dp4538
g54
(dp4539
g62
I1
ssg63
g4533
sg56
(lp4540
g3967
(S't\x07\x00\x00\x00Plugins'
tRp4541
asbasbasbag49
(g65
g51
NtRp4542
(dp4543
g54
(dp4544
sg63
g4525
sg56
(lp4545
g49
(g70
g51
NtRp4546
(dp4547
g54
(dp4548
sg63
g4542
sg56
(lp4549
g49
(g50
g51
NtRp4550
(dp4551
g54
(dp4552
g62
I1
ssg63
g4546
sg56
(lp4553
I00
asbasbasbag49
(g65
g51
NtRp4554
(dp4555
g54
(dp4556
sg63
g4525
sg56
(lp4557
g49
(g70
g51
NtRp4558
(dp4559
g54
(dp4560
sg63
g4554
sg56
(lp4561
g49
(g50
g51
NtRp4562
(dp4563
g54
(dp4564
g62
I1
ssg63
g4558
sg56
(lp4565
Nasbasbasbag49
(g65
g51
NtRp4566
(dp4567
g54
(dp4568
sg63
g4525
sg56
(lp4569
g49
(g70
g51
NtRp4570
(dp4571
g54
(dp4572
sg63
g4566
sg56
(lp4573
g49
(g50
g51
NtRp4574
(dp4575
g54
(dp4576
g62
I1
ssg63
g4570
sg56
(lp4577
(lp4578
(S'plugin_wiki'
p4579
I00
S'http://web2py.com/examples/default/download'
p4580
tp4581
a(g3967
(S's\r\x00\x00\x00Other Plugins'
tRp4582
I00
g4312
tp4583
a(g3967
(S's\x0e\x00\x00\x00Layout Plugins'
tRp4584
I00
g4315
tp4585
aasbasbasbasbasbasbasbasbasbasbasbasbasbasbasbasbasbasbasbag49
(g65
g51
NtRp4586
(dp4587
g54
(dp4588
sg63
g3453
sg56
(lp4589
g49
(g70
g51
NtRp4590
(dp4591
g54
(dp4592
g74
g75
ssg63
g4586
sg56
(lp4593
S'meta'
p4594
asbag49
(g70
g51
NtRp4595
(dp4596
g54
(dp4597
g81
g82
ssg63
g4586
sg56
(lp4598
S':'
asbag49
(g70
g51
NtRp4599
(dp4600
g54
(dp4601
sg63
g4586
sg56
(lp4602
g49
(g50
g51
NtRp4603
(dp4604
g54
(dp4605
g62
I5
ssg63
g4599
sg56
(lp4606
g49
(g58
g51
NtRp4607
(dp4608
g54
(dp4609
g62
I4
ssg63
Nsg56
(lp4610
g49
(g65
g51
NtRp4611
(dp4612
g54
(dp4613
sg63
g4607
sg56
(lp4614
g49
(g70
g51
NtRp4615
(dp4616
g54
(dp4617
g74
g75
ssg63
g4611
sg56
(lp4618
S'author'
p4619
asbag49
(g70
g51
NtRp4620
(dp4621
g54
(dp4622
g81
g82
ssg63
g4611
sg56
(lp4623
S':'
asbag49
(g70
g51
NtRp4624
(dp4625
g54
(dp4626
sg63
g4611
sg56
(lp4627
g49
(g50
g51
NtRp4628
(dp4629
g54
(dp4630
g62
I4
ssg63
g4624
sg56
(lp4631
S'Your Name <you@example.com>'
p4632
asbasbasbag49
(g65
g51
NtRp4633
(dp4634
g54
(dp4635
sg63
g4607
sg56
(lp4636
g49
(g70
g51
NtRp4637
(dp4638
g54
(dp4639
g74
g75
ssg63
g4633
sg56
(lp4640
S'description'
p4641
asbag49
(g70
g51
NtRp4642
(dp4643
g54
(dp4644
g81
g82
ssg63
g4633
sg56
(lp4645
S':'
asbag49
(g70
g51
NtRp4646
(dp4647
g54
(dp4648
sg63
g4633
sg56
(lp4649
g49
(g50
g51
NtRp4650
(dp4651
g54
(dp4652
g62
I4
ssg63
g4646
sg56
(lp4653
S'a cool new app'
p4654
asbasbasbag49
(g65
g51
NtRp4655
(dp4656
g54
(dp4657
sg63
g4607
sg56
(lp4658
g49
(g70
g51
NtRp4659
(dp4660
g54
(dp4661
g74
g75
ssg63
g4655
sg56
(lp4662
S'generator'
p4663
asbag49
(g70
g51
NtRp4664
(dp4665
g54
(dp4666
g81
g82
ssg63
g4655
sg56
(lp4667
S':'
asbag49
(g70
g51
NtRp4668
(dp4669
g54
(dp4670
sg63
g4655
sg56
(lp4671
g49
(g50
g51
NtRp4672
(dp4673
g54
(dp4674
g62
I4
ssg63
g4668
sg56
(lp4675
S'Web2py Web Framework'
p4676
asbasbasbag49
(g65
g51
NtRp4677
(dp4678
g54
(dp4679
sg63
g4607
sg56
(lp4680
g49
(g70
g51
NtRp4681
(dp4682
g54
(dp4683
g74
g75
ssg63
g4677
sg56
(lp4684
S'keywords'
p4685
asbag49
(g70
g51
NtRp4686
(dp4687
g54
(dp4688
g81
g82
ssg63
g4677
sg56
(lp4689
S':'
asbag49
(g70
g51
NtRp4690
(dp4691
g54
(dp4692
sg63
g4677
sg56
(lp4693
g49
(g50
g51
NtRp4694
(dp4695
g54
(dp4696
g62
I4
ssg63
g4690
sg56
(lp4697
S'web2py, python, framework'
p4698
asbasbasbasbasbasbasbag49
(g65
g51
NtRp4699
(dp4700
g54
(dp4701
sg63
g3453
sg56
(lp4702
g49
(g70
g51
NtRp4703
(dp4704
g54
(dp4705
g74
g75
ssg63
g4699
sg56
(lp4706
S'models_to_run'
p4707
asbag49
(g70
g51
NtRp4708
(dp4709
g54
(dp4710
g81
g82
ssg63
g4699
sg56
(lp4711
S':'
asbag49
(g70
g51
NtRp4712
(dp4713
g54
(dp4714
sg63
g4699
sg56
(lp4715
g49
(g50
g51
NtRp4716
(dp4717
g54
(dp4718
g62
I5
ssg63
g4712
sg56
(lp4719
g49
(g58
g51
NtRp4720
(dp4721
g54
(dp4722
g62
I4
ssg63
Nsg56
(lp4723
g49
(g65
g51
NtRp4724
(dp4725
g54
(dp4726
sg63
g4720
sg56
(lp4727
g49
(g70
g51
NtRp4728
(dp4729
g54
(dp4730
sg63
g4724
sg56
(lp4731
g49
(g50
g51
NtRp4732
(dp4733
g54
(dp4734
g62
I4
ssg63
g4728
sg56
(lp4735
S'^\\w+\\.py$'
p4736
asbasbasbag49
(g65
g51
NtRp4737
(dp4738
g54
(dp4739
sg63
g4720
sg56
(lp4740
g49
(g70
g51
NtRp4741
(dp4742
g54
(dp4743
sg63
g4737
sg56
(lp4744
g49
(g50
g51
NtRp4745
(dp4746
g54
(dp4747
g62
I4
ssg63
g4741
sg56
(lp4748
S'^default/\\w+\\.py$'
p4749
asbasbasbag49
(g65
g51
NtRp4750
(dp4751
g54
(dp4752
sg63
g4720
sg56
(lp4753
g49
(g70
g51
NtRp4754
(dp4755
g54
(dp4756
sg63
g4750
sg56
(lp4757
g49
(g50
g51
NtRp4758
(dp4759
g54
(dp4760
g62
I4
ssg63
g4754
sg56
(lp4761
S'^default/mobile_user_register/\\w+\\.py$'
p4762
asbasbasbasbasbasbasbag49
(g65
g51
NtRp4763
(dp4764
g54
(dp4765
sg63
g3453
sg56
(lp4766
g49
(g70
g51
NtRp4767
(dp4768
g54
(dp4769
g74
g75
ssg63
g4763
sg56
(lp4770
S'postprocessing'
p4771
asbag49
(g70
g51
NtRp4772
(dp4773
g54
(dp4774
g81
g82
ssg63
g4763
sg56
(lp4775
S':'
asbag49
(g70
g51
NtRp4776
(dp4777
g54
(dp4778
sg63
g4763
sg56
(lp4779
g49
(g50
g51
NtRp4780
(dp4781
g54
(dp4782
g62
I5
ssg63
g4776
sg56
(lp4783
g49
(g58
g51
NtRp4784
(dp4785
g54
(dp4786
g62
I4
ssg63
Nsg56
(lp4787
sbasbasbasbag49
(g65
g51
NtRp4788
(dp4789
g54
(dp4790
sg63
g3453
sg56
(lp4791
g49
(g70
g51
NtRp4792
(dp4793
g54
(dp4794
g74
g75
ssg63
g4788
sg56
(lp4795
S'session_cookie_expires'
p4796
asbag49
(g70
g51
NtRp4797
(dp4798
g54
(dp4799
g81
g82
ssg63
g4788
sg56
(lp4800
S':'
asbag49
(g70
g51
NtRp4801
(dp4802
g54
(dp4803
sg63
g4788
sg56
(lp4804
g49
(g50
g51
NtRp4805
(dp4806
g54
(dp4807
g62
I5
ssg63
g4801
sg56
(lp4808
S'None'
p4809
asbasbasbag49
(g65
g51
NtRp4810
(dp4811
g54
(dp4812
sg63
g3453
sg56
(lp4813
g49
(g70
g51
NtRp4814
(dp4815
g54
(dp4816
g74
g75
ssg63
g4810
sg56
(lp4817
S'session_data_name'
p4818
asbag49
(g70
g51
NtRp4819
(dp4820
g54
(dp4821
g81
g82
ssg63
g4810
sg56
(lp4822
S':'
asbag49
(g70
g51
NtRp4823
(dp4824
g54
(dp4825
sg63
g4810
sg56
(lp4826
g49
(g50
g51
NtRp4827
(dp4828
g54
(dp4829
g62
I5
ssg63
g4823
sg56
(lp4830
S'session_data_mr'
p4831
asbasbasbag49
(g65
g51
NtRp4832
(dp4833
g54
(dp4834
sg63
g3453
sg56
(lp4835
g49
(g70
g51
NtRp4836
(dp4837
g54
(dp4838
g74
g75
ssg63
g4832
sg56
(lp4839
S'session_file'
p4840
asbag49
(g70
g51
NtRp4841
(dp4842
g54
(dp4843
g81
g82
ssg63
g4832
sg56
(lp4844
S':'
asbag49
(g70
g51
NtRp4845
(dp4846
g54
(dp4847
sg63
g4832
sg56
(lp4848
g49
(g50
g51
NtRp4849
(dp4850
g54
(dp4851
g62
I5
ssg63
g4845
sg56
(lp4852
S"<open file '/Applications/web2py.app/Contents/Resources/applications/MR/sessions/127.0.0.1-01c54a64-3e63-47a8-a67b-a7e1fee963a1', mode 'rb+' at 0x8e03da0>"
p4853
asbasbasbag49
(g65
g51
NtRp4854
(dp4855
g54
(dp4856
sg63
g3453
sg56
(lp4857
g49
(g70
g51
NtRp4858
(dp4859
g54
(dp4860
g74
g75
ssg63
g4854
sg56
(lp4861
S'session_filename'
p4862
asbag49
(g70
g51
NtRp4863
(dp4864
g54
(dp4865
g81
g82
ssg63
g4854
sg56
(lp4866
S':'
asbag49
(g70
g51
NtRp4867
(dp4868
g54
(dp4869
sg63
g4854
sg56
(lp4870
g49
(g50
g51
NtRp4871
(dp4872
g54
(dp4873
g62
I5
ssg63
g4867
sg56
(lp4874
S'/Applications/web2py.app/Contents/Resources/applications/MR/sessions/127.0.0.1-01c54a64-3e63-47a8-a67b-a7e1fee963a1'
p4875
asbasbasbag49
(g65
g51
NtRp4876
(dp4877
g54
(dp4878
sg63
g3453
sg56
(lp4879
g49
(g70
g51
NtRp4880
(dp4881
g54
(dp4882
g74
g75
ssg63
g4876
sg56
(lp4883
S'session_id'
p4884
asbag49
(g70
g51
NtRp4885
(dp4886
g54
(dp4887
g81
g82
ssg63
g4876
sg56
(lp4888
S':'
asbag49
(g70
g51
NtRp4889
(dp4890
g54
(dp4891
sg63
g4876
sg56
(lp4892
g49
(g50
g51
NtRp4893
(dp4894
g54
(dp4895
g62
I5
ssg63
g4889
sg56
(lp4896
g446
asbasbasbag49
(g65
g51
NtRp4897
(dp4898
g54
(dp4899
sg63
g3453
sg56
(lp4900
g49
(g70
g51
NtRp4901
(dp4902
g54
(dp4903
g74
g75
ssg63
g4897
sg56
(lp4904
S'session_id_name'
p4905
asbag49
(g70
g51
NtRp4906
(dp4907
g54
(dp4908
g81
g82
ssg63
g4897
sg56
(lp4909
S':'
asbag49
(g70
g51
NtRp4910
(dp4911
g54
(dp4912
sg63
g4897
sg56
(lp4913
g49
(g50
g51
NtRp4914
(dp4915
g54
(dp4916
g62
I5
ssg63
g4910
sg56
(lp4917
g3510
asbasbasbag49
(g65
g51
NtRp4918
(dp4919
g54
(dp4920
sg63
g3453
sg56
(lp4921
g49
(g70
g51
NtRp4922
(dp4923
g54
(dp4924
g74
g75
ssg63
g4918
sg56
(lp4925
S'session_locked'
p4926
asbag49
(g70
g51
NtRp4927
(dp4928
g54
(dp4929
g81
g82
ssg63
g4918
sg56
(lp4930
S':'
asbag49
(g70
g51
NtRp4931
(dp4932
g54
(dp4933
sg63
g4918
sg56
(lp4934
g49
(g50
g51
NtRp4935
(dp4936
g54
(dp4937
g62
I5
ssg63
g4931
sg56
(lp4938
g916
asbasbasbag49
(g65
g51
NtRp4939
(dp4940
g54
(dp4941
sg63
g3453
sg56
(lp4942
g49
(g70
g51
NtRp4943
(dp4944
g54
(dp4945
g74
g75
ssg63
g4939
sg56
(lp4946
S'session_new'
p4947
asbag49
(g70
g51
NtRp4948
(dp4949
g54
(dp4950
g81
g82
ssg63
g4939
sg56
(lp4951
S':'
asbag49
(g70
g51
NtRp4952
(dp4953
g54
(dp4954
sg63
g4939
sg56
(lp4955
g49
(g50
g51
NtRp4956
(dp4957
g54
(dp4958
g62
I5
ssg63
g4952
sg56
(lp4959
g92
asbasbasbag49
(g65
g51
NtRp4960
(dp4961
g54
(dp4962
sg63
g3453
sg56
(lp4963
g49
(g70
g51
NtRp4964
(dp4965
g54
(dp4966
g74
g75
ssg63
g4960
sg56
(lp4967
S'session_storage_type'
p4968
asbag49
(g70
g51
NtRp4969
(dp4970
g54
(dp4971
g81
g82
ssg63
g4960
sg56
(lp4972
S':'
asbag49
(g70
g51
NtRp4973
(dp4974
g54
(dp4975
sg63
g4960
sg56
(lp4976
g49
(g50
g51
NtRp4977
(dp4978
g54
(dp4979
g62
I5
ssg63
g4973
sg56
(lp4980
g3342
asbasbasbag49
(g65
g51
NtRp4981
(dp4982
g54
(dp4983
sg63
g3453
sg56
(lp4984
g49
(g70
g51
NtRp4985
(dp4986
g54
(dp4987
g74
g75
ssg63
g4981
sg56
(lp4988
S'status'
p4989
asbag49
(g70
g51
NtRp4990
(dp4991
g54
(dp4992
g81
g82
ssg63
g4981
sg56
(lp4993
S':'
asbag49
(g70
g51
NtRp4994
(dp4995
g54
(dp4996
sg63
g4981
sg56
(lp4997
g49
(g50
g51
NtRp4998
(dp4999
g54
(dp5000
g62
I5
ssg63
g4994
sg56
(lp5001
S'200'
p5002
asbasbasbag49
(g65
g51
NtRp5003
(dp5004
g54
(dp5005
sg63
g3453
sg56
(lp5006
g49
(g70
g51
NtRp5007
(dp5008
g54
(dp5009
g74
g75
ssg63
g5003
sg56
(lp5010
S'subtitle'
p5011
asbag49
(g70
g51
NtRp5012
(dp5013
g54
(dp5014
g81
g82
ssg63
g5003
sg56
(lp5015
S':'
asbag49
(g70
g51
NtRp5016
(dp5017
g54
(dp5018
sg63
g5003
sg56
(lp5019
g49
(g50
g51
NtRp5020
(dp5021
g54
(dp5022
g62
I5
ssg63
g5016
sg56
(lp5023
g3967
(S's\r\x00\x00\x00\xe8\xab\x8b\xe8\xaa\xbf\xe6\x95\xb4\xe6\x88\x91!'
tRp5024
asbasbasbag49
(g65
g51
NtRp5025
(dp5026
g54
(dp5027
sg63
g3453
sg56
(lp5028
g49
(g70
g51
NtRp5029
(dp5030
g54
(dp5031
g74
g75
ssg63
g5025
sg56
(lp5032
S'title'
p5033
asbag49
(g70
g51
NtRp5034
(dp5035
g54
(dp5036
g81
g82
ssg63
g5025
sg56
(lp5037
S':'
asbag49
(g70
g51
NtRp5038
(dp5039
g54
(dp5040
sg63
g5025
sg56
(lp5041
g49
(g50
g51
NtRp5042
(dp5043
g54
(dp5044
g62
I5
ssg63
g5038
sg56
(lp5045
S'Mr'
p5046
asbasbasbag49
(g65
g51
NtRp5047
(dp5048
g54
(dp5049
sg63
g3453
sg56
(lp5050
g49
(g70
g51
NtRp5051
(dp5052
g54
(dp5053
g74
g75
ssg63
g5047
sg56
(lp5054
S'view'
p5055
asbag49
(g70
g51
NtRp5056
(dp5057
g54
(dp5058
g81
g82
ssg63
g5047
sg56
(lp5059
S':'
asbag49
(g70
g51
NtRp5060
(dp5061
g54
(dp5062
sg63
g5047
sg56
(lp5063
g49
(g50
g51
NtRp5064
(dp5065
g54
(dp5066
g62
I5
ssg63
g5060
sg56
(lp5067
S'default/mobile_user_register.html'
p5068
asbasbasbasbasbsS'locals'
p5069
(dp5070
S'rows'
p5071
S'<Rows (1)>'
p5072
sS'firstname'
p5073
S"'asdf'"
p5074
sS'lastname'
p5075
S"'asdf'"
p5076
sS'result'
p5077
S'[]'
p5078
sS'country'
p5079
S"''"
p5080
sS'password'
p5081
S"'adsf'"
p5082
sS'email'
p5083
S"'adsf'"
p5084
sssS'traceback'
p5085
S'Traceback (most recent call last):\n  File "/home/mdipierro/web2py/gluon/restricted.py", line 212, in restricted\n  File "/Applications/web2py.app/Contents/Resources/applications/MR/controllers/default.py", line 98, in <module>\n  File "/home/mdipierro/web2py/gluon/globals.py", line 193, in <lambda>\n  File "/Applications/web2py.app/Contents/Resources/applications/MR/controllers/default.py", line 60, in mobile_user_register\nNameError: global name \'status\' is not defined\n'
p5086
s.