(dp1
S'output'
p2
S"<type 'exceptions.NameError'> global name 'count' is not defined"
p3
sS'layer'
p4
S'/Applications/web2py.app/Contents/Resources/applications/MR/controllers/default.py'
p5
sS'code'
p6
S'# -*- coding: utf-8 -*-\n# this file is released under public domain and you can use without limitations\n\n#########################################################################\n## This is a samples controller\n## - index is the default action of any application\n## - user is required for authentication and authorization\n## - download is for downloading files uploaded in the db (does streaming)\n## - call exposes all registered services (none by default)\n#########################################################################\n\n\ndef index():\n    return dict(message=T(\'Hello World\'))\n\n\ndef user():\n    """\n    exposes:\n    http://..../[app]/default/user/login\n    http://..../[app]/default/user/logout\n    http://..../[app]/default/user/register\n    http://..../[app]/default/user/profile\n    http://..../[app]/default/user/retrieve_password\n    http://..../[app]/default/user/change_password\n    use @auth.requires_login()\n        @auth.requires_membership(\'group name\')\n        @auth.requires_permission(\'read\',\'table name\',record_id)\n    to decorate functions that need access control\n    """\n    return dict(form=auth())\n\ndef download():\n    """\n    allows downloading of uploaded files\n    http://..../[app]/default/download/[filename]\n    """\n    return response.download(request, db)\n\n\ndef call():\n    """\n    exposes services. for example:\n    http://..../[app]/default/call/jsonrpc\n    decorate with @services.jsonrpc the functions to expose\n    supports xml, json, xmlrpc, jsonrpc, amfrpc, rss, csv\n    """\n    return service()\n\n#@service.jsonrpc\ndef mobile_user_register():\n    email = request.vars.email\n    password = request.vars.password\n    firstname = request.vars.firstname\n    lastname = request.vars.lastname\n    country = request.vars.country\n    rows = db(db.mobile_user.email==email).select()\n    if count(rows) != 0:\n        return {\'status\': \'exist\'}\n    \n    result = md5_hash(password)\n    ret = db.mobile_user.validate_and_insert(email=email, password=password, first_name=firstname, last_name=lastname, md5=result, country=country)\n    if ret.errors:\n        return {\'status\':\'ERROR\'}        \n        \n    return {\'status\': \'success\', \'result\': result}\n    \n#@service.jsonrpc\ndef mobile_user_login(email, password):\n    rows = db(db.mobile_user.email==email).select()\n    if count(rows) != 1:\n        return {\'status\': \'ERROR\'}\n    user = rows[0]\n    return {\'status\':\'success\', \'result\': user.md5}\n\n@auth.requires_signature()\ndef data():\n    """\n    http://..../[app]/default/data/tables\n    http://..../[app]/default/data/create/[table]\n    http://..../[app]/default/data/read/[table]/[id]\n    http://..../[app]/default/data/update/[table]/[id]\n    http://..../[app]/default/data/delete/[table]/[id]\n    http://..../[app]/default/data/select/[table]\n    http://..../[app]/default/data/search/[table]\n    but URLs must be signed, i.e. linked with\n      A(\'table\',_href=URL(\'data/tables\',user_signature=True))\n    or with the signed load operator\n      LOAD(\'default\',\'data.load\',args=\'tables\',ajax=True,user_signature=True)\n    """\n    return dict(form=crud())\n\nresponse._vars=response._caller(mobile_user_register)\n'
p7
sS'snapshot'
p8
(dp9
S'exception'
p10
(dp11
S'__hash__'
p12
S"<method-wrapper '__hash__' of exceptions.NameError object at 0x8cc1238>"
p13
sS'__setattr__'
p14
S"<method-wrapper '__setattr__' of exceptions.NameError object at 0x8cc1238>"
p15
sS'__reduce_ex__'
p16
S'<built-in method __reduce_ex__ of exceptions.NameError object at 0x8cc1238>'
p17
sS'__getslice__'
p18
S"<method-wrapper '__getslice__' of exceptions.NameError object at 0x8cc1238>"
p19
sS'__getitem__'
p20
S"<method-wrapper '__getitem__' of exceptions.NameError object at 0x8cc1238>"
p21
sS'__setstate__'
p22
S'<built-in method __setstate__ of exceptions.NameError object at 0x8cc1238>'
p23
sS'__reduce__'
p24
S'<built-in method __reduce__ of exceptions.NameError object at 0x8cc1238>'
p25
sS'__str__'
p26
S"<method-wrapper '__str__' of exceptions.NameError object at 0x8cc1238>"
p27
sS'args'
p28
S'("global name \'count\' is not defined",)'
p29
sS'__getattribute__'
p30
S"<method-wrapper '__getattribute__' of exceptions.NameError object at 0x8cc1238>"
p31
sS'__class__'
p32
S"<type 'exceptions.NameError'>"
p33
sS'__delattr__'
p34
S"<method-wrapper '__delattr__' of exceptions.NameError object at 0x8cc1238>"
p35
sS'__repr__'
p36
S"<method-wrapper '__repr__' of exceptions.NameError object at 0x8cc1238>"
p37
sS'__dict__'
p38
S'{}'
p39
sS'__doc__'
p40
S"'Name not found globally.'"
p41
sS'__init__'
p42
S"<method-wrapper '__init__' of exceptions.NameError object at 0x8cc1238>"
p43
sS'__new__'
p44
S'<built-in method __new__ of type object at 0x5f9640>'
p45
ssS'evalue'
p46
S"global name 'count' is not defined"
p47
sS'request'
p48
ccopy_reg
_reconstructor
p49
(cgluon.html
BEAUTIFY
p50
c__builtin__
object
p51
NtRp52
(dp53
S'attributes'
p54
(dp55
sS'components'
p56
(lp57
g49
(cgluon.html
TABLE
p58
g51
NtRp59
(dp60
g54
(dp61
S'level'
p62
I5
ssS'parent'
p63
Nsg56
(lp64
g49
(cgluon.html
TR
p65
g51
NtRp66
(dp67
g54
(dp68
sg63
g59
sg56
(lp69
g49
(cgluon.html
TD
p70
g51
NtRp71
(dp72
g54
(dp73
S'_style'
p74
S'font-weight:bold;vertical-align:top'
p75
ssg63
g66
sg56
(lp76
S'ajax'
p77
asbag49
(g70
g51
NtRp78
(dp79
g54
(dp80
S'_valign'
p81
S'top'
p82
ssg63
g66
sg56
(lp83
S':'
asbag49
(g70
g51
NtRp84
(dp85
g54
(dp86
sg63
g66
sg56
(lp87
g49
(g50
g51
NtRp88
(dp89
g54
(dp90
g62
I5
ssg63
g84
sg56
(lp91
S'False'
p92
asbasbasbag49
(g65
g51
NtRp93
(dp94
g54
(dp95
sg63
g59
sg56
(lp96
g49
(g70
g51
NtRp97
(dp98
g54
(dp99
g74
g75
ssg63
g93
sg56
(lp100
S'application'
p101
asbag49
(g70
g51
NtRp102
(dp103
g54
(dp104
g81
g82
ssg63
g93
sg56
(lp105
S':'
asbag49
(g70
g51
NtRp106
(dp107
g54
(dp108
sg63
g93
sg56
(lp109
g49
(g50
g51
NtRp110
(dp111
g54
(dp112
g62
I5
ssg63
g106
sg56
(lp113
S'MR'
p114
asbasbasbag49
(g65
g51
NtRp115
(dp116
g54
(dp117
sg63
g59
sg56
(lp118
g49
(g70
g51
NtRp119
(dp120
g54
(dp121
g74
g75
ssg63
g115
sg56
(lp122
g28
asbag49
(g70
g51
NtRp123
(dp124
g54
(dp125
g81
g82
ssg63
g115
sg56
(lp126
S':'
asbag49
(g70
g51
NtRp127
(dp128
g54
(dp129
sg63
g115
sg56
(lp130
g49
(g50
g51
NtRp131
(dp132
g54
(dp133
g62
I5
ssg63
g127
sg56
(lp134
g49
(g58
g51
NtRp135
(dp136
g54
(dp137
g62
I4
ssg63
Nsg56
(lp138
sbasbasbasbag49
(g65
g51
NtRp139
(dp140
g54
(dp141
sg63
g59
sg56
(lp142
g49
(g70
g51
NtRp143
(dp144
g54
(dp145
g74
g75
ssg63
g139
sg56
(lp146
S'body'
p147
asbag49
(g70
g51
NtRp148
(dp149
g54
(dp150
g81
g82
ssg63
g139
sg56
(lp151
S':'
asbag49
(g70
g51
NtRp152
(dp153
g54
(dp154
sg63
g139
sg56
(lp155
g49
(g50
g51
NtRp156
(dp157
g54
(dp158
g62
I5
ssg63
g152
sg56
(lp159
S'<cStringIO.StringO object at 0x8b0b320>'
p160
asbasbasbag49
(g65
g51
NtRp161
(dp162
g54
(dp163
sg63
g59
sg56
(lp164
g49
(g70
g51
NtRp165
(dp166
g54
(dp167
g74
g75
ssg63
g161
sg56
(lp168
S'cid'
p169
asbag49
(g70
g51
NtRp170
(dp171
g54
(dp172
g81
g82
ssg63
g161
sg56
(lp173
S':'
asbag49
(g70
g51
NtRp174
(dp175
g54
(dp176
sg63
g161
sg56
(lp177
g49
(g50
g51
NtRp178
(dp179
g54
(dp180
g62
I5
ssg63
g174
sg56
(lp181
S'None'
p182
asbasbasbag49
(g65
g51
NtRp183
(dp184
g54
(dp185
sg63
g59
sg56
(lp186
g49
(g70
g51
NtRp187
(dp188
g54
(dp189
g74
g75
ssg63
g183
sg56
(lp190
S'client'
p191
asbag49
(g70
g51
NtRp192
(dp193
g54
(dp194
g81
g82
ssg63
g183
sg56
(lp195
S':'
asbag49
(g70
g51
NtRp196
(dp197
g54
(dp198
sg63
g183
sg56
(lp199
g49
(g50
g51
NtRp200
(dp201
g54
(dp202
g62
I5
ssg63
g196
sg56
(lp203
S'127.0.0.1'
p204
asbasbasbag49
(g65
g51
NtRp205
(dp206
g54
(dp207
sg63
g59
sg56
(lp208
g49
(g70
g51
NtRp209
(dp210
g54
(dp211
g74
g75
ssg63
g205
sg56
(lp212
S'controller'
p213
asbag49
(g70
g51
NtRp214
(dp215
g54
(dp216
g81
g82
ssg63
g205
sg56
(lp217
S':'
asbag49
(g70
g51
NtRp218
(dp219
g54
(dp220
sg63
g205
sg56
(lp221
g49
(g50
g51
NtRp222
(dp223
g54
(dp224
g62
I5
ssg63
g218
sg56
(lp225
S'default'
p226
asbasbasbag49
(g65
g51
NtRp227
(dp228
g54
(dp229
sg63
g59
sg56
(lp230
g49
(g70
g51
NtRp231
(dp232
g54
(dp233
g74
g75
ssg63
g227
sg56
(lp234
S'cookies'
p235
asbag49
(g70
g51
NtRp236
(dp237
g54
(dp238
g81
g82
ssg63
g227
sg56
(lp239
S':'
asbag49
(g70
g51
NtRp240
(dp241
g54
(dp242
sg63
g227
sg56
(lp243
g49
(g50
g51
NtRp244
(dp245
g54
(dp246
g62
I5
ssg63
g240
sg56
(lp247
g49
(g58
g51
NtRp248
(dp249
g54
(dp250
g62
I4
ssg63
Nsg56
(lp251
g49
(g65
g51
NtRp252
(dp253
g54
(dp254
sg63
g248
sg56
(lp255
g49
(g70
g51
NtRp256
(dp257
g54
(dp258
g74
g75
ssg63
g252
sg56
(lp259
S'session_id_admin'
p260
asbag49
(g70
g51
NtRp261
(dp262
g54
(dp263
g81
g82
ssg63
g252
sg56
(lp264
S':'
asbag49
(g70
g51
NtRp265
(dp266
g54
(dp267
sg63
g252
sg56
(lp268
g49
(g50
g51
NtRp269
(dp270
g54
(dp271
g62
I4
ssg63
g265
sg56
(lp272
S'127.0.0.1-6d643e70-8d6c-4e92-8c7e-38ba6849a536'
p273
ag49
(g58
g51
NtRp274
(dp275
g54
(dp276
g62
I3
ssg63
Nsg56
(lp277
g49
(g65
g51
NtRp278
(dp279
g54
(dp280
sg63
g274
sg56
(lp281
g49
(g70
g51
NtRp282
(dp283
g54
(dp284
g74
g75
ssg63
g278
sg56
(lp285
S'comment'
p286
asbag49
(g70
g51
NtRp287
(dp288
g54
(dp289
g81
g82
ssg63
g278
sg56
(lp290
S':'
asbag49
(g70
g51
NtRp291
(dp292
g54
(dp293
sg63
g278
sg56
(lp294
g49
(g50
g51
NtRp295
(dp296
g54
(dp297
g62
I3
ssg63
g291
sg56
(lp298
S''
asbasbasbag49
(g65
g51
NtRp299
(dp300
g54
(dp301
sg63
g274
sg56
(lp302
g49
(g70
g51
NtRp303
(dp304
g54
(dp305
g74
g75
ssg63
g299
sg56
(lp306
S'domain'
p307
asbag49
(g70
g51
NtRp308
(dp309
g54
(dp310
g81
g82
ssg63
g299
sg56
(lp311
S':'
asbag49
(g70
g51
NtRp312
(dp313
g54
(dp314
sg63
g299
sg56
(lp315
g49
(g50
g51
NtRp316
(dp317
g54
(dp318
g62
I3
ssg63
g312
sg56
(lp319
S''
asbasbasbag49
(g65
g51
NtRp320
(dp321
g54
(dp322
sg63
g274
sg56
(lp323
g49
(g70
g51
NtRp324
(dp325
g54
(dp326
g74
g75
ssg63
g320
sg56
(lp327
S'expires'
p328
asbag49
(g70
g51
NtRp329
(dp330
g54
(dp331
g81
g82
ssg63
g320
sg56
(lp332
S':'
asbag49
(g70
g51
NtRp333
(dp334
g54
(dp335
sg63
g320
sg56
(lp336
g49
(g50
g51
NtRp337
(dp338
g54
(dp339
g62
I3
ssg63
g333
sg56
(lp340
S''
asbasbasbag49
(g65
g51
NtRp341
(dp342
g54
(dp343
sg63
g274
sg56
(lp344
g49
(g70
g51
NtRp345
(dp346
g54
(dp347
g74
g75
ssg63
g341
sg56
(lp348
S'max-age'
p349
asbag49
(g70
g51
NtRp350
(dp351
g54
(dp352
g81
g82
ssg63
g341
sg56
(lp353
S':'
asbag49
(g70
g51
NtRp354
(dp355
g54
(dp356
sg63
g341
sg56
(lp357
g49
(g50
g51
NtRp358
(dp359
g54
(dp360
g62
I3
ssg63
g354
sg56
(lp361
S''
asbasbasbag49
(g65
g51
NtRp362
(dp363
g54
(dp364
sg63
g274
sg56
(lp365
g49
(g70
g51
NtRp366
(dp367
g54
(dp368
g74
g75
ssg63
g362
sg56
(lp369
S'path'
p370
asbag49
(g70
g51
NtRp371
(dp372
g54
(dp373
g81
g82
ssg63
g362
sg56
(lp374
S':'
asbag49
(g70
g51
NtRp375
(dp376
g54
(dp377
sg63
g362
sg56
(lp378
g49
(g50
g51
NtRp379
(dp380
g54
(dp381
g62
I3
ssg63
g375
sg56
(lp382
S''
asbasbasbag49
(g65
g51
NtRp383
(dp384
g54
(dp385
sg63
g274
sg56
(lp386
g49
(g70
g51
NtRp387
(dp388
g54
(dp389
g74
g75
ssg63
g383
sg56
(lp390
S'secure'
p391
asbag49
(g70
g51
NtRp392
(dp393
g54
(dp394
g81
g82
ssg63
g383
sg56
(lp395
S':'
asbag49
(g70
g51
NtRp396
(dp397
g54
(dp398
sg63
g383
sg56
(lp399
g49
(g50
g51
NtRp400
(dp401
g54
(dp402
g62
I3
ssg63
g396
sg56
(lp403
S''
asbasbasbag49
(g65
g51
NtRp404
(dp405
g54
(dp406
sg63
g274
sg56
(lp407
g49
(g70
g51
NtRp408
(dp409
g54
(dp410
g74
g75
ssg63
g404
sg56
(lp411
S'version'
p412
asbag49
(g70
g51
NtRp413
(dp414
g54
(dp415
g81
g82
ssg63
g404
sg56
(lp416
S':'
asbag49
(g70
g51
NtRp417
(dp418
g54
(dp419
sg63
g404
sg56
(lp420
g49
(g50
g51
NtRp421
(dp422
g54
(dp423
g62
I3
ssg63
g417
sg56
(lp424
S''
asbasbasbasbasbasbasbag49
(g65
g51
NtRp425
(dp426
g54
(dp427
sg63
g248
sg56
(lp428
g49
(g70
g51
NtRp429
(dp430
g54
(dp431
g74
g75
ssg63
g425
sg56
(lp432
S'session_id_mr'
p433
asbag49
(g70
g51
NtRp434
(dp435
g54
(dp436
g81
g82
ssg63
g425
sg56
(lp437
S':'
asbag49
(g70
g51
NtRp438
(dp439
g54
(dp440
sg63
g425
sg56
(lp441
g49
(g50
g51
NtRp442
(dp443
g54
(dp444
g62
I4
ssg63
g438
sg56
(lp445
S'127.0.0.1-56f6c833-4495-4158-afa1-0ddb41c94ce0'
p446
ag49
(g58
g51
NtRp447
(dp448
g54
(dp449
g62
I3
ssg63
Nsg56
(lp450
g49
(g65
g51
NtRp451
(dp452
g54
(dp453
sg63
g447
sg56
(lp454
g49
(g70
g51
NtRp455
(dp456
g54
(dp457
g74
g75
ssg63
g451
sg56
(lp458
g286
asbag49
(g70
g51
NtRp459
(dp460
g54
(dp461
g81
g82
ssg63
g451
sg56
(lp462
S':'
asbag49
(g70
g51
NtRp463
(dp464
g54
(dp465
sg63
g451
sg56
(lp466
g49
(g50
g51
NtRp467
(dp468
g54
(dp469
g62
I3
ssg63
g463
sg56
(lp470
S''
asbasbasbag49
(g65
g51
NtRp471
(dp472
g54
(dp473
sg63
g447
sg56
(lp474
g49
(g70
g51
NtRp475
(dp476
g54
(dp477
g74
g75
ssg63
g471
sg56
(lp478
g307
asbag49
(g70
g51
NtRp479
(dp480
g54
(dp481
g81
g82
ssg63
g471
sg56
(lp482
S':'
asbag49
(g70
g51
NtRp483
(dp484
g54
(dp485
sg63
g471
sg56
(lp486
g49
(g50
g51
NtRp487
(dp488
g54
(dp489
g62
I3
ssg63
g483
sg56
(lp490
S''
asbasbasbag49
(g65
g51
NtRp491
(dp492
g54
(dp493
sg63
g447
sg56
(lp494
g49
(g70
g51
NtRp495
(dp496
g54
(dp497
g74
g75
ssg63
g491
sg56
(lp498
g328
asbag49
(g70
g51
NtRp499
(dp500
g54
(dp501
g81
g82
ssg63
g491
sg56
(lp502
S':'
asbag49
(g70
g51
NtRp503
(dp504
g54
(dp505
sg63
g491
sg56
(lp506
g49
(g50
g51
NtRp507
(dp508
g54
(dp509
g62
I3
ssg63
g503
sg56
(lp510
S''
asbasbasbag49
(g65
g51
NtRp511
(dp512
g54
(dp513
sg63
g447
sg56
(lp514
g49
(g70
g51
NtRp515
(dp516
g54
(dp517
g74
g75
ssg63
g511
sg56
(lp518
g349
asbag49
(g70
g51
NtRp519
(dp520
g54
(dp521
g81
g82
ssg63
g511
sg56
(lp522
S':'
asbag49
(g70
g51
NtRp523
(dp524
g54
(dp525
sg63
g511
sg56
(lp526
g49
(g50
g51
NtRp527
(dp528
g54
(dp529
g62
I3
ssg63
g523
sg56
(lp530
S''
asbasbasbag49
(g65
g51
NtRp531
(dp532
g54
(dp533
sg63
g447
sg56
(lp534
g49
(g70
g51
NtRp535
(dp536
g54
(dp537
g74
g75
ssg63
g531
sg56
(lp538
g370
asbag49
(g70
g51
NtRp539
(dp540
g54
(dp541
g81
g82
ssg63
g531
sg56
(lp542
S':'
asbag49
(g70
g51
NtRp543
(dp544
g54
(dp545
sg63
g531
sg56
(lp546
g49
(g50
g51
NtRp547
(dp548
g54
(dp549
g62
I3
ssg63
g543
sg56
(lp550
S''
asbasbasbag49
(g65
g51
NtRp551
(dp552
g54
(dp553
sg63
g447
sg56
(lp554
g49
(g70
g51
NtRp555
(dp556
g54
(dp557
g74
g75
ssg63
g551
sg56
(lp558
g391
asbag49
(g70
g51
NtRp559
(dp560
g54
(dp561
g81
g82
ssg63
g551
sg56
(lp562
S':'
asbag49
(g70
g51
NtRp563
(dp564
g54
(dp565
sg63
g551
sg56
(lp566
g49
(g50
g51
NtRp567
(dp568
g54
(dp569
g62
I3
ssg63
g563
sg56
(lp570
S''
asbasbasbag49
(g65
g51
NtRp571
(dp572
g54
(dp573
sg63
g447
sg56
(lp574
g49
(g70
g51
NtRp575
(dp576
g54
(dp577
g74
g75
ssg63
g571
sg56
(lp578
g412
asbag49
(g70
g51
NtRp579
(dp580
g54
(dp581
g81
g82
ssg63
g571
sg56
(lp582
S':'
asbag49
(g70
g51
NtRp583
(dp584
g54
(dp585
sg63
g571
sg56
(lp586
g49
(g50
g51
NtRp587
(dp588
g54
(dp589
g62
I3
ssg63
g583
sg56
(lp590
S''
asbasbasbasbasbasbasbag49
(g65
g51
NtRp591
(dp592
g54
(dp593
sg63
g248
sg56
(lp594
g49
(g70
g51
NtRp595
(dp596
g54
(dp597
g74
g75
ssg63
g591
sg56
(lp598
S'session_id_welcome'
p599
asbag49
(g70
g51
NtRp600
(dp601
g54
(dp602
g81
g82
ssg63
g591
sg56
(lp603
S':'
asbag49
(g70
g51
NtRp604
(dp605
g54
(dp606
sg63
g591
sg56
(lp607
g49
(g50
g51
NtRp608
(dp609
g54
(dp610
g62
I4
ssg63
g604
sg56
(lp611
S'127.0.0.1-2ac9e4fa-5c51-4c7c-9d24-af98e051a735'
p612
ag49
(g58
g51
NtRp613
(dp614
g54
(dp615
g62
I3
ssg63
Nsg56
(lp616
g49
(g65
g51
NtRp617
(dp618
g54
(dp619
sg63
g613
sg56
(lp620
g49
(g70
g51
NtRp621
(dp622
g54
(dp623
g74
g75
ssg63
g617
sg56
(lp624
g286
asbag49
(g70
g51
NtRp625
(dp626
g54
(dp627
g81
g82
ssg63
g617
sg56
(lp628
S':'
asbag49
(g70
g51
NtRp629
(dp630
g54
(dp631
sg63
g617
sg56
(lp632
g49
(g50
g51
NtRp633
(dp634
g54
(dp635
g62
I3
ssg63
g629
sg56
(lp636
S''
asbasbasbag49
(g65
g51
NtRp637
(dp638
g54
(dp639
sg63
g613
sg56
(lp640
g49
(g70
g51
NtRp641
(dp642
g54
(dp643
g74
g75
ssg63
g637
sg56
(lp644
g307
asbag49
(g70
g51
NtRp645
(dp646
g54
(dp647
g81
g82
ssg63
g637
sg56
(lp648
S':'
asbag49
(g70
g51
NtRp649
(dp650
g54
(dp651
sg63
g637
sg56
(lp652
g49
(g50
g51
NtRp653
(dp654
g54
(dp655
g62
I3
ssg63
g649
sg56
(lp656
S''
asbasbasbag49
(g65
g51
NtRp657
(dp658
g54
(dp659
sg63
g613
sg56
(lp660
g49
(g70
g51
NtRp661
(dp662
g54
(dp663
g74
g75
ssg63
g657
sg56
(lp664
g328
asbag49
(g70
g51
NtRp665
(dp666
g54
(dp667
g81
g82
ssg63
g657
sg56
(lp668
S':'
asbag49
(g70
g51
NtRp669
(dp670
g54
(dp671
sg63
g657
sg56
(lp672
g49
(g50
g51
NtRp673
(dp674
g54
(dp675
g62
I3
ssg63
g669
sg56
(lp676
S''
asbasbasbag49
(g65
g51
NtRp677
(dp678
g54
(dp679
sg63
g613
sg56
(lp680
g49
(g70
g51
NtRp681
(dp682
g54
(dp683
g74
g75
ssg63
g677
sg56
(lp684
g349
asbag49
(g70
g51
NtRp685
(dp686
g54
(dp687
g81
g82
ssg63
g677
sg56
(lp688
S':'
asbag49
(g70
g51
NtRp689
(dp690
g54
(dp691
sg63
g677
sg56
(lp692
g49
(g50
g51
NtRp693
(dp694
g54
(dp695
g62
I3
ssg63
g689
sg56
(lp696
S''
asbasbasbag49
(g65
g51
NtRp697
(dp698
g54
(dp699
sg63
g613
sg56
(lp700
g49
(g70
g51
NtRp701
(dp702
g54
(dp703
g74
g75
ssg63
g697
sg56
(lp704
g370
asbag49
(g70
g51
NtRp705
(dp706
g54
(dp707
g81
g82
ssg63
g697
sg56
(lp708
S':'
asbag49
(g70
g51
NtRp709
(dp710
g54
(dp711
sg63
g697
sg56
(lp712
g49
(g50
g51
NtRp713
(dp714
g54
(dp715
g62
I3
ssg63
g709
sg56
(lp716
S''
asbasbasbag49
(g65
g51
NtRp717
(dp718
g54
(dp719
sg63
g613
sg56
(lp720
g49
(g70
g51
NtRp721
(dp722
g54
(dp723
g74
g75
ssg63
g717
sg56
(lp724
g391
asbag49
(g70
g51
NtRp725
(dp726
g54
(dp727
g81
g82
ssg63
g717
sg56
(lp728
S':'
asbag49
(g70
g51
NtRp729
(dp730
g54
(dp731
sg63
g717
sg56
(lp732
g49
(g50
g51
NtRp733
(dp734
g54
(dp735
g62
I3
ssg63
g729
sg56
(lp736
S''
asbasbasbag49
(g65
g51
NtRp737
(dp738
g54
(dp739
sg63
g613
sg56
(lp740
g49
(g70
g51
NtRp741
(dp742
g54
(dp743
g74
g75
ssg63
g737
sg56
(lp744
g412
asbag49
(g70
g51
NtRp745
(dp746
g54
(dp747
g81
g82
ssg63
g737
sg56
(lp748
S':'
asbag49
(g70
g51
NtRp749
(dp750
g54
(dp751
sg63
g737
sg56
(lp752
g49
(g50
g51
NtRp753
(dp754
g54
(dp755
g62
I3
ssg63
g749
sg56
(lp756
S''
asbasbasbasbasbasbasbasbasbasbasbag49
(g65
g51
NtRp757
(dp758
g54
(dp759
sg63
g59
sg56
(lp760
g49
(g70
g51
NtRp761
(dp762
g54
(dp763
g74
g75
ssg63
g757
sg56
(lp764
S'env'
p765
asbag49
(g70
g51
NtRp766
(dp767
g54
(dp768
g81
g82
ssg63
g757
sg56
(lp769
S':'
asbag49
(g70
g51
NtRp770
(dp771
g54
(dp772
sg63
g757
sg56
(lp773
g49
(g50
g51
NtRp774
(dp775
g54
(dp776
g62
I5
ssg63
g770
sg56
(lp777
g49
(g58
g51
NtRp778
(dp779
g54
(dp780
g62
I4
ssg63
Nsg56
(lp781
g49
(g65
g51
NtRp782
(dp783
g54
(dp784
sg63
g778
sg56
(lp785
g49
(g70
g51
NtRp786
(dp787
g54
(dp788
g74
g75
ssg63
g782
sg56
(lp789
S'app_folders'
p790
asbag49
(g70
g51
NtRp791
(dp792
g54
(dp793
g81
g82
ssg63
g782
sg56
(lp794
S':'
asbag49
(g70
g51
NtRp795
(dp796
g54
(dp797
sg63
g782
sg56
(lp798
g49
(g50
g51
NtRp799
(dp800
g54
(dp801
g62
I4
ssg63
g795
sg56
(lp802
S"set(['/Applications/web2py.app/Contents/Resources/applications/admin/', '/Applications/web2py.app/Contents/Resources/applications/welcome/', '/Applications/web2py.app/Contents/Resources/applications/MR/'])"
p803
asbasbasbag49
(g65
g51
NtRp804
(dp805
g54
(dp806
sg63
g778
sg56
(lp807
g49
(g70
g51
NtRp808
(dp809
g54
(dp810
g74
g75
ssg63
g804
sg56
(lp811
S'applications_parent'
p812
asbag49
(g70
g51
NtRp813
(dp814
g54
(dp815
g81
g82
ssg63
g804
sg56
(lp816
S':'
asbag49
(g70
g51
NtRp817
(dp818
g54
(dp819
sg63
g804
sg56
(lp820
g49
(g50
g51
NtRp821
(dp822
g54
(dp823
g62
I4
ssg63
g817
sg56
(lp824
S'/Applications/web2py.app/Contents/Resources'
p825
asbasbasbag49
(g65
g51
NtRp826
(dp827
g54
(dp828
sg63
g778
sg56
(lp829
g49
(g70
g51
NtRp830
(dp831
g54
(dp832
g74
g75
ssg63
g826
sg56
(lp833
S'cmd_args'
p834
asbag49
(g70
g51
NtRp835
(dp836
g54
(dp837
g81
g82
ssg63
g826
sg56
(lp838
S':'
asbag49
(g70
g51
NtRp839
(dp840
g54
(dp841
sg63
g826
sg56
(lp842
g49
(g50
g51
NtRp843
(dp844
g54
(dp845
g62
I4
ssg63
g839
sg56
(lp846
g49
(g58
g51
NtRp847
(dp848
g54
(dp849
g62
I3
ssg63
Nsg56
(lp850
sbasbasbasbag49
(g65
g51
NtRp851
(dp852
g54
(dp853
sg63
g778
sg56
(lp854
g49
(g70
g51
NtRp855
(dp856
g54
(dp857
g74
g75
ssg63
g851
sg56
(lp858
S'cmd_options'
p859
asbag49
(g70
g51
NtRp860
(dp861
g54
(dp862
g81
g82
ssg63
g851
sg56
(lp863
S':'
asbag49
(g70
g51
NtRp864
(dp865
g54
(dp866
sg63
g851
sg56
(lp867
g49
(g50
g51
NtRp868
(dp869
g54
(dp870
g62
I4
ssg63
g864
sg56
(lp871
S"<Values at 0x4554f58: {'verbose': False, 'ip': '127.0.0.1', 'with_scheduler': False, 'ips': ['173.250.203.67'], 'shutdown_timeout': 5, 'taskbar': False, 'port': 8000, 'maxthreads': None, 'softcron': False, 'server_name': 'd-173-250-203-67.dhcp4.washington.edu', 'bpython': False, 'nogui': False, 'pid_filename': 'httpserver.pid', 'extcron': False, 'runcron': False, 'run_system_tests': False, 'test': None, 'folder': '/Applications/web2py.app/Contents/Resources', 'config': '', 'import_models': False, 'winservice': '', 'shell': None, 'run': '', 'log_filename': 'httpserver.log', 'debuglevel': 30, 'args': [''], 'socket_timeout': 5, 'ssl_ca_certificate': None, 'scheduler': None, 'profiler_filename': None, 'ssl_private_key': '', 'scheduler_groups': None, 'password': '<ask>', 'request_queue_size': 5, 'ssl_certificate': '', 'cronjob': False, 'numthreads': None, 'quiet': False, 'interfaces': None, 'minthreads': None, 'timeout': 10, 'plain': False, 'nobanner': False}>"
p872
asbasbasbag49
(g65
g51
NtRp873
(dp874
g54
(dp875
sg63
g778
sg56
(lp876
g49
(g70
g51
NtRp877
(dp878
g54
(dp879
g74
g75
ssg63
g873
sg56
(lp880
S'db_sessions'
p881
asbag49
(g70
g51
NtRp882
(dp883
g54
(dp884
g81
g82
ssg63
g873
sg56
(lp885
S':'
asbag49
(g70
g51
NtRp886
(dp887
g54
(dp888
sg63
g873
sg56
(lp889
g49
(g50
g51
NtRp890
(dp891
g54
(dp892
g62
I4
ssg63
g886
sg56
(lp893
S'set([])'
p894
asbasbasbag49
(g65
g51
NtRp895
(dp896
g54
(dp897
sg63
g778
sg56
(lp898
g49
(g70
g51
NtRp899
(dp900
g54
(dp901
g74
g75
ssg63
g895
sg56
(lp902
S'debugging'
p903
asbag49
(g70
g51
NtRp904
(dp905
g54
(dp906
g81
g82
ssg63
g895
sg56
(lp907
S':'
asbag49
(g70
g51
NtRp908
(dp909
g54
(dp910
sg63
g895
sg56
(lp911
g49
(g50
g51
NtRp912
(dp913
g54
(dp914
g62
I4
ssg63
g908
sg56
(lp915
S'True'
p916
asbasbasbag49
(g65
g51
NtRp917
(dp918
g54
(dp919
sg63
g778
sg56
(lp920
g49
(g70
g51
NtRp921
(dp922
g54
(dp923
g74
g75
ssg63
g917
sg56
(lp924
S'gluon_parent'
p925
asbag49
(g70
g51
NtRp926
(dp927
g54
(dp928
g81
g82
ssg63
g917
sg56
(lp929
S':'
asbag49
(g70
g51
NtRp930
(dp931
g54
(dp932
sg63
g917
sg56
(lp933
g49
(g50
g51
NtRp934
(dp935
g54
(dp936
g62
I4
ssg63
g930
sg56
(lp937
S'/Applications/web2py.app/Contents/Resources'
p938
asbasbasbag49
(g65
g51
NtRp939
(dp940
g54
(dp941
sg63
g778
sg56
(lp942
g49
(g70
g51
NtRp943
(dp944
g54
(dp945
g74
g75
ssg63
g939
sg56
(lp946
S'http_accept'
p947
asbag49
(g70
g51
NtRp948
(dp949
g54
(dp950
g81
g82
ssg63
g939
sg56
(lp951
S':'
asbag49
(g70
g51
NtRp952
(dp953
g54
(dp954
sg63
g939
sg56
(lp955
g49
(g50
g51
NtRp956
(dp957
g54
(dp958
g62
I4
ssg63
g952
sg56
(lp959
S'text/html,application/xhtml+xml,application/xml;q=0.9,*/*;q=0.8'
p960
asbasbasbag49
(g65
g51
NtRp961
(dp962
g54
(dp963
sg63
g778
sg56
(lp964
g49
(g70
g51
NtRp965
(dp966
g54
(dp967
g74
g75
ssg63
g961
sg56
(lp968
S'http_accept_charset'
p969
asbag49
(g70
g51
NtRp970
(dp971
g54
(dp972
g81
g82
ssg63
g961
sg56
(lp973
S':'
asbag49
(g70
g51
NtRp974
(dp975
g54
(dp976
sg63
g961
sg56
(lp977
g49
(g50
g51
NtRp978
(dp979
g54
(dp980
g62
I4
ssg63
g974
sg56
(lp981
S'GBK,utf-8;q=0.7,*;q=0.3'
p982
asbasbasbag49
(g65
g51
NtRp983
(dp984
g54
(dp985
sg63
g778
sg56
(lp986
g49
(g70
g51
NtRp987
(dp988
g54
(dp989
g74
g75
ssg63
g983
sg56
(lp990
S'http_accept_encoding'
p991
asbag49
(g70
g51
NtRp992
(dp993
g54
(dp994
g81
g82
ssg63
g983
sg56
(lp995
S':'
asbag49
(g70
g51
NtRp996
(dp997
g54
(dp998
sg63
g983
sg56
(lp999
g49
(g50
g51
NtRp1000
(dp1001
g54
(dp1002
g62
I4
ssg63
g996
sg56
(lp1003
S'gzip,deflate,sdch'
p1004
asbasbasbag49
(g65
g51
NtRp1005
(dp1006
g54
(dp1007
sg63
g778
sg56
(lp1008
g49
(g70
g51
NtRp1009
(dp1010
g54
(dp1011
g74
g75
ssg63
g1005
sg56
(lp1012
S'http_accept_language'
p1013
asbag49
(g70
g51
NtRp1014
(dp1015
g54
(dp1016
g81
g82
ssg63
g1005
sg56
(lp1017
S':'
asbag49
(g70
g51
NtRp1018
(dp1019
g54
(dp1020
sg63
g1005
sg56
(lp1021
g49
(g50
g51
NtRp1022
(dp1023
g54
(dp1024
g62
I4
ssg63
g1018
sg56
(lp1025
S'zh-CN,zh;q=0.8'
p1026
asbasbasbag49
(g65
g51
NtRp1027
(dp1028
g54
(dp1029
sg63
g778
sg56
(lp1030
g49
(g70
g51
NtRp1031
(dp1032
g54
(dp1033
g74
g75
ssg63
g1027
sg56
(lp1034
S'http_connection'
p1035
asbag49
(g70
g51
NtRp1036
(dp1037
g54
(dp1038
g81
g82
ssg63
g1027
sg56
(lp1039
S':'
asbag49
(g70
g51
NtRp1040
(dp1041
g54
(dp1042
sg63
g1027
sg56
(lp1043
g49
(g50
g51
NtRp1044
(dp1045
g54
(dp1046
g62
I4
ssg63
g1040
sg56
(lp1047
S'keep-alive'
p1048
asbasbasbag49
(g65
g51
NtRp1049
(dp1050
g54
(dp1051
sg63
g778
sg56
(lp1052
g49
(g70
g51
NtRp1053
(dp1054
g54
(dp1055
g74
g75
ssg63
g1049
sg56
(lp1056
S'http_cookie'
p1057
asbag49
(g70
g51
NtRp1058
(dp1059
g54
(dp1060
g81
g82
ssg63
g1049
sg56
(lp1061
S':'
asbag49
(g70
g51
NtRp1062
(dp1063
g54
(dp1064
sg63
g1049
sg56
(lp1065
g49
(g50
g51
NtRp1066
(dp1067
g54
(dp1068
g62
I4
ssg63
g1062
sg56
(lp1069
S'session_id_welcome=127.0.0.1-2ac9e4fa-5c51-4c7c-9d24-af98e051a735; session_id_admin=127.0.0.1-6d643e70-8d6c-4e92-8c7e-38ba6849a536; session_id_mr=127.0.0.1-56f6c833-4495-4158-afa1-0ddb41c94ce0'
p1070
asbasbasbag49
(g65
g51
NtRp1071
(dp1072
g54
(dp1073
sg63
g778
sg56
(lp1074
g49
(g70
g51
NtRp1075
(dp1076
g54
(dp1077
g74
g75
ssg63
g1071
sg56
(lp1078
S'http_host'
p1079
asbag49
(g70
g51
NtRp1080
(dp1081
g54
(dp1082
g81
g82
ssg63
g1071
sg56
(lp1083
S':'
asbag49
(g70
g51
NtRp1084
(dp1085
g54
(dp1086
sg63
g1071
sg56
(lp1087
g49
(g50
g51
NtRp1088
(dp1089
g54
(dp1090
g62
I4
ssg63
g1084
sg56
(lp1091
S'127.0.0.1:8000'
p1092
asbasbasbag49
(g65
g51
NtRp1093
(dp1094
g54
(dp1095
sg63
g778
sg56
(lp1096
g49
(g70
g51
NtRp1097
(dp1098
g54
(dp1099
g74
g75
ssg63
g1093
sg56
(lp1100
S'http_user_agent'
p1101
asbag49
(g70
g51
NtRp1102
(dp1103
g54
(dp1104
g81
g82
ssg63
g1093
sg56
(lp1105
S':'
asbag49
(g70
g51
NtRp1106
(dp1107
g54
(dp1108
sg63
g1093
sg56
(lp1109
g49
(g50
g51
NtRp1110
(dp1111
g54
(dp1112
g62
I4
ssg63
g1106
sg56
(lp1113
S'Mozilla/5.0 (Macintosh; Intel Mac OS X 10_8_3) AppleWebKit/537.31 (KHTML, like Gecko) Chrome/26.0.1410.65 Safari/537.31'
p1114
asbasbasbag49
(g65
g51
NtRp1115
(dp1116
g54
(dp1117
sg63
g778
sg56
(lp1118
g49
(g70
g51
NtRp1119
(dp1120
g54
(dp1121
g74
g75
ssg63
g1115
sg56
(lp1122
S'is_jython'
p1123
asbag49
(g70
g51
NtRp1124
(dp1125
g54
(dp1126
g81
g82
ssg63
g1115
sg56
(lp1127
S':'
asbag49
(g70
g51
NtRp1128
(dp1129
g54
(dp1130
sg63
g1115
sg56
(lp1131
g49
(g50
g51
NtRp1132
(dp1133
g54
(dp1134
g62
I4
ssg63
g1128
sg56
(lp1135
g92
asbasbasbag49
(g65
g51
NtRp1136
(dp1137
g54
(dp1138
sg63
g778
sg56
(lp1139
g49
(g70
g51
NtRp1140
(dp1141
g54
(dp1142
g74
g75
ssg63
g1136
sg56
(lp1143
S'is_pypy'
p1144
asbag49
(g70
g51
NtRp1145
(dp1146
g54
(dp1147
g81
g82
ssg63
g1136
sg56
(lp1148
S':'
asbag49
(g70
g51
NtRp1149
(dp1150
g54
(dp1151
sg63
g1136
sg56
(lp1152
g49
(g50
g51
NtRp1153
(dp1154
g54
(dp1155
g62
I4
ssg63
g1149
sg56
(lp1156
g92
asbasbasbag49
(g65
g51
NtRp1157
(dp1158
g54
(dp1159
sg63
g778
sg56
(lp1160
g49
(g70
g51
NtRp1161
(dp1162
g54
(dp1163
g74
g75
ssg63
g1157
sg56
(lp1164
S'local_hosts'
p1165
asbag49
(g70
g51
NtRp1166
(dp1167
g54
(dp1168
g81
g82
ssg63
g1157
sg56
(lp1169
S':'
asbag49
(g70
g51
NtRp1170
(dp1171
g54
(dp1172
sg63
g1157
sg56
(lp1173
g49
(g50
g51
NtRp1174
(dp1175
g54
(dp1176
g62
I4
ssg63
g1170
sg56
(lp1177
g49
(g58
g51
NtRp1178
(dp1179
g54
(dp1180
g62
I3
ssg63
Nsg56
(lp1181
g49
(g65
g51
NtRp1182
(dp1183
g54
(dp1184
sg63
g1178
sg56
(lp1185
g49
(g70
g51
NtRp1186
(dp1187
g54
(dp1188
sg63
g1182
sg56
(lp1189
g49
(g50
g51
NtRp1190
(dp1191
g54
(dp1192
g62
I3
ssg63
g1186
sg56
(lp1193
S'd-173-250-203-67.dhcp4.washington.edu'
p1194
asbasbasbag49
(g65
g51
NtRp1195
(dp1196
g54
(dp1197
sg63
g1178
sg56
(lp1198
g49
(g70
g51
NtRp1199
(dp1200
g54
(dp1201
sg63
g1195
sg56
(lp1202
g49
(g50
g51
NtRp1203
(dp1204
g54
(dp1205
g62
I3
ssg63
g1199
sg56
(lp1206
S'::1'
p1207
asbasbasbag49
(g65
g51
NtRp1208
(dp1209
g54
(dp1210
sg63
g1178
sg56
(lp1211
g49
(g70
g51
NtRp1212
(dp1213
g54
(dp1214
sg63
g1208
sg56
(lp1215
g49
(g50
g51
NtRp1216
(dp1217
g54
(dp1218
g62
I3
ssg63
g1212
sg56
(lp1219
S'173.250.203.67'
p1220
asbasbasbag49
(g65
g51
NtRp1221
(dp1222
g54
(dp1223
sg63
g1178
sg56
(lp1224
g49
(g70
g51
NtRp1225
(dp1226
g54
(dp1227
sg63
g1221
sg56
(lp1228
g49
(g50
g51
NtRp1229
(dp1230
g54
(dp1231
g62
I3
ssg63
g1225
sg56
(lp1232
S'::ffff:127.0.0.1'
p1233
asbasbasbag49
(g65
g51
NtRp1234
(dp1235
g54
(dp1236
sg63
g1178
sg56
(lp1237
g49
(g70
g51
NtRp1238
(dp1239
g54
(dp1240
sg63
g1234
sg56
(lp1241
g49
(g50
g51
NtRp1242
(dp1243
g54
(dp1244
g62
I3
ssg63
g1238
sg56
(lp1245
S'127.0.0.1'
p1246
asbasbasbasbasbasbasbag49
(g65
g51
NtRp1247
(dp1248
g54
(dp1249
sg63
g778
sg56
(lp1250
g49
(g70
g51
NtRp1251
(dp1252
g54
(dp1253
g74
g75
ssg63
g1247
sg56
(lp1254
S'path_info'
p1255
asbag49
(g70
g51
NtRp1256
(dp1257
g54
(dp1258
g81
g82
ssg63
g1247
sg56
(lp1259
S':'
asbag49
(g70
g51
NtRp1260
(dp1261
g54
(dp1262
sg63
g1247
sg56
(lp1263
g49
(g50
g51
NtRp1264
(dp1265
g54
(dp1266
g62
I4
ssg63
g1260
sg56
(lp1267
S'/MR/default/mobile_user_register'
p1268
asbasbasbag49
(g65
g51
NtRp1269
(dp1270
g54
(dp1271
sg63
g778
sg56
(lp1272
g49
(g70
g51
NtRp1273
(dp1274
g54
(dp1275
g74
g75
ssg63
g1269
sg56
(lp1276
S'query_string'
p1277
asbag49
(g70
g51
NtRp1278
(dp1279
g54
(dp1280
g81
g82
ssg63
g1269
sg56
(lp1281
S':'
asbag49
(g70
g51
NtRp1282
(dp1283
g54
(dp1284
sg63
g1269
sg56
(lp1285
g49
(g50
g51
NtRp1286
(dp1287
g54
(dp1288
g62
I4
ssg63
g1282
sg56
(lp1289
S'email=adsf&password=adsf&firstname=asdf&lastname=asdf&country=asdf'
p1290
asbasbasbag49
(g65
g51
NtRp1291
(dp1292
g54
(dp1293
sg63
g778
sg56
(lp1294
g49
(g70
g51
NtRp1295
(dp1296
g54
(dp1297
g74
g75
ssg63
g1291
sg56
(lp1298
S'remote_addr'
p1299
asbag49
(g70
g51
NtRp1300
(dp1301
g54
(dp1302
g81
g82
ssg63
g1291
sg56
(lp1303
S':'
asbag49
(g70
g51
NtRp1304
(dp1305
g54
(dp1306
sg63
g1291
sg56
(lp1307
g49
(g50
g51
NtRp1308
(dp1309
g54
(dp1310
g62
I4
ssg63
g1304
sg56
(lp1311
g204
asbasbasbag49
(g65
g51
NtRp1312
(dp1313
g54
(dp1314
sg63
g778
sg56
(lp1315
g49
(g70
g51
NtRp1316
(dp1317
g54
(dp1318
g74
g75
ssg63
g1312
sg56
(lp1319
S'remote_port'
p1320
asbag49
(g70
g51
NtRp1321
(dp1322
g54
(dp1323
g81
g82
ssg63
g1312
sg56
(lp1324
S':'
asbag49
(g70
g51
NtRp1325
(dp1326
g54
(dp1327
sg63
g1312
sg56
(lp1328
g49
(g50
g51
NtRp1329
(dp1330
g54
(dp1331
g62
I4
ssg63
g1325
sg56
(lp1332
S'56868'
p1333
asbasbasbag49
(g65
g51
NtRp1334
(dp1335
g54
(dp1336
sg63
g778
sg56
(lp1337
g49
(g70
g51
NtRp1338
(dp1339
g54
(dp1340
g74
g75
ssg63
g1334
sg56
(lp1341
S'request_method'
p1342
asbag49
(g70
g51
NtRp1343
(dp1344
g54
(dp1345
g81
g82
ssg63
g1334
sg56
(lp1346
S':'
asbag49
(g70
g51
NtRp1347
(dp1348
g54
(dp1349
sg63
g1334
sg56
(lp1350
g49
(g50
g51
NtRp1351
(dp1352
g54
(dp1353
g62
I4
ssg63
g1347
sg56
(lp1354
S'GET'
p1355
asbasbasbag49
(g65
g51
NtRp1356
(dp1357
g54
(dp1358
sg63
g778
sg56
(lp1359
g49
(g70
g51
NtRp1360
(dp1361
g54
(dp1362
g74
g75
ssg63
g1356
sg56
(lp1363
S'request_uri'
p1364
asbag49
(g70
g51
NtRp1365
(dp1366
g54
(dp1367
g81
g82
ssg63
g1356
sg56
(lp1368
S':'
asbag49
(g70
g51
NtRp1369
(dp1370
g54
(dp1371
sg63
g1356
sg56
(lp1372
g49
(g50
g51
NtRp1373
(dp1374
g54
(dp1375
g62
I4
ssg63
g1369
sg56
(lp1376
S'/MR/default/mobile_user_register?email=adsf&password=adsf&firstname=asdf&lastname=asdf&country=asdf'
p1377
asbasbasbag49
(g65
g51
NtRp1378
(dp1379
g54
(dp1380
sg63
g778
sg56
(lp1381
g49
(g70
g51
NtRp1382
(dp1383
g54
(dp1384
g74
g75
ssg63
g1378
sg56
(lp1385
S'script_name'
p1386
asbag49
(g70
g51
NtRp1387
(dp1388
g54
(dp1389
g81
g82
ssg63
g1378
sg56
(lp1390
S':'
asbag49
(g70
g51
NtRp1391
(dp1392
g54
(dp1393
sg63
g1378
sg56
(lp1394
g49
(g50
g51
NtRp1395
(dp1396
g54
(dp1397
g62
I4
ssg63
g1391
sg56
(lp1398
S''
asbasbasbag49
(g65
g51
NtRp1399
(dp1400
g54
(dp1401
sg63
g778
sg56
(lp1402
g49
(g70
g51
NtRp1403
(dp1404
g54
(dp1405
g74
g75
ssg63
g1399
sg56
(lp1406
S'server_name'
p1407
asbag49
(g70
g51
NtRp1408
(dp1409
g54
(dp1410
g81
g82
ssg63
g1399
sg56
(lp1411
S':'
asbag49
(g70
g51
NtRp1412
(dp1413
g54
(dp1414
sg63
g1399
sg56
(lp1415
g49
(g50
g51
NtRp1416
(dp1417
g54
(dp1418
g62
I4
ssg63
g1412
sg56
(lp1419
S'd-173-250-203-67.dhcp4.washington.edu'
p1420
asbasbasbag49
(g65
g51
NtRp1421
(dp1422
g54
(dp1423
sg63
g778
sg56
(lp1424
g49
(g70
g51
NtRp1425
(dp1426
g54
(dp1427
g74
g75
ssg63
g1421
sg56
(lp1428
S'server_port'
p1429
asbag49
(g70
g51
NtRp1430
(dp1431
g54
(dp1432
g81
g82
ssg63
g1421
sg56
(lp1433
S':'
asbag49
(g70
g51
NtRp1434
(dp1435
g54
(dp1436
sg63
g1421
sg56
(lp1437
g49
(g50
g51
NtRp1438
(dp1439
g54
(dp1440
g62
I4
ssg63
g1434
sg56
(lp1441
S'8000'
p1442
asbasbasbag49
(g65
g51
NtRp1443
(dp1444
g54
(dp1445
sg63
g778
sg56
(lp1446
g49
(g70
g51
NtRp1447
(dp1448
g54
(dp1449
g74
g75
ssg63
g1443
sg56
(lp1450
S'server_protocol'
p1451
asbag49
(g70
g51
NtRp1452
(dp1453
g54
(dp1454
g81
g82
ssg63
g1443
sg56
(lp1455
S':'
asbag49
(g70
g51
NtRp1456
(dp1457
g54
(dp1458
sg63
g1443
sg56
(lp1459
g49
(g50
g51
NtRp1460
(dp1461
g54
(dp1462
g62
I4
ssg63
g1456
sg56
(lp1463
S'HTTP/1.1'
p1464
asbasbasbag49
(g65
g51
NtRp1465
(dp1466
g54
(dp1467
sg63
g778
sg56
(lp1468
g49
(g70
g51
NtRp1469
(dp1470
g54
(dp1471
g74
g75
ssg63
g1465
sg56
(lp1472
S'server_software'
p1473
asbag49
(g70
g51
NtRp1474
(dp1475
g54
(dp1476
g81
g82
ssg63
g1465
sg56
(lp1477
S':'
asbag49
(g70
g51
NtRp1478
(dp1479
g54
(dp1480
sg63
g1465
sg56
(lp1481
g49
(g50
g51
NtRp1482
(dp1483
g54
(dp1484
g62
I4
ssg63
g1478
sg56
(lp1485
S'Rocket 1.2.6'
p1486
asbasbasbag49
(g65
g51
NtRp1487
(dp1488
g54
(dp1489
sg63
g778
sg56
(lp1490
g49
(g70
g51
NtRp1491
(dp1492
g54
(dp1493
g74
g75
ssg63
g1487
sg56
(lp1494
S'web2py_path'
p1495
asbag49
(g70
g51
NtRp1496
(dp1497
g54
(dp1498
g81
g82
ssg63
g1487
sg56
(lp1499
S':'
asbag49
(g70
g51
NtRp1500
(dp1501
g54
(dp1502
sg63
g1487
sg56
(lp1503
g49
(g50
g51
NtRp1504
(dp1505
g54
(dp1506
g62
I4
ssg63
g1500
sg56
(lp1507
g825
asbasbasbag49
(g65
g51
NtRp1508
(dp1509
g54
(dp1510
sg63
g778
sg56
(lp1511
g49
(g70
g51
NtRp1512
(dp1513
g54
(dp1514
g74
g75
ssg63
g1508
sg56
(lp1515
S'web2py_version'
p1516
asbag49
(g70
g51
NtRp1517
(dp1518
g54
(dp1519
g81
g82
ssg63
g1508
sg56
(lp1520
S':'
asbag49
(g70
g51
NtRp1521
(dp1522
g54
(dp1523
sg63
g1508
sg56
(lp1524
g49
(g50
g51
NtRp1525
(dp1526
g54
(dp1527
g62
I4
ssg63
g1521
sg56
(lp1528
g49
(g58
g51
NtRp1529
(dp1530
g54
(dp1531
g62
I3
ssg63
Nsg56
(lp1532
g49
(g65
g51
NtRp1533
(dp1534
g54
(dp1535
sg63
g1529
sg56
(lp1536
g49
(g70
g51
NtRp1537
(dp1538
g54
(dp1539
sg63
g1533
sg56
(lp1540
g49
(g50
g51
NtRp1541
(dp1542
g54
(dp1543
g62
I3
ssg63
g1537
sg56
(lp1544
S'2'
asbasbasbag49
(g65
g51
NtRp1545
(dp1546
g54
(dp1547
sg63
g1529
sg56
(lp1548
g49
(g70
g51
NtRp1549
(dp1550
g54
(dp1551
sg63
g1545
sg56
(lp1552
g49
(g50
g51
NtRp1553
(dp1554
g54
(dp1555
g62
I3
ssg63
g1549
sg56
(lp1556
S'4'
asbasbasbag49
(g65
g51
NtRp1557
(dp1558
g54
(dp1559
sg63
g1529
sg56
(lp1560
g49
(g70
g51
NtRp1561
(dp1562
g54
(dp1563
sg63
g1557
sg56
(lp1564
g49
(g50
g51
NtRp1565
(dp1566
g54
(dp1567
g62
I3
ssg63
g1561
sg56
(lp1568
S'5'
asbasbasbag49
(g65
g51
NtRp1569
(dp1570
g54
(dp1571
sg63
g1529
sg56
(lp1572
g49
(g70
g51
NtRp1573
(dp1574
g54
(dp1575
sg63
g1569
sg56
(lp1576
g49
(g50
g51
NtRp1577
(dp1578
g54
(dp1579
g62
I3
ssg63
g1573
sg56
(lp1580
S'stable'
p1581
asbasbasbag49
(g65
g51
NtRp1582
(dp1583
g54
(dp1584
sg63
g1529
sg56
(lp1585
g49
(g70
g51
NtRp1586
(dp1587
g54
(dp1588
sg63
g1582
sg56
(lp1589
g49
(g50
g51
NtRp1590
(dp1591
g54
(dp1592
g62
I3
ssg63
g1586
sg56
(lp1593
S'datetime.datetime(2013, 3, 18, 22, 46, 22)'
p1594
asbasbasbasbasbasbasbag49
(g65
g51
NtRp1595
(dp1596
g54
(dp1597
sg63
g778
sg56
(lp1598
g49
(g70
g51
NtRp1599
(dp1600
g54
(dp1601
g74
g75
ssg63
g1595
sg56
(lp1602
S'wsgi_errors'
p1603
asbag49
(g70
g51
NtRp1604
(dp1605
g54
(dp1606
g81
g82
ssg63
g1595
sg56
(lp1607
S':'
asbag49
(g70
g51
NtRp1608
(dp1609
g54
(dp1610
sg63
g1595
sg56
(lp1611
g49
(g50
g51
NtRp1612
(dp1613
g54
(dp1614
g62
I4
ssg63
g1608
sg56
(lp1615
S"<open file '<stderr>', mode 'w' at 0x660b0>"
p1616
asbasbasbag49
(g65
g51
NtRp1617
(dp1618
g54
(dp1619
sg63
g778
sg56
(lp1620
g49
(g70
g51
NtRp1621
(dp1622
g54
(dp1623
g74
g75
ssg63
g1617
sg56
(lp1624
S'wsgi_file_wrapper'
p1625
asbag49
(g70
g51
NtRp1626
(dp1627
g54
(dp1628
g81
g82
ssg63
g1617
sg56
(lp1629
S':'
asbag49
(g70
g51
NtRp1630
(dp1631
g54
(dp1632
sg63
g1617
sg56
(lp1633
g49
(g50
g51
NtRp1634
(dp1635
g54
(dp1636
g62
I4
ssg63
g1630
sg56
(lp1637
S'<class wsgiref.util.FileWrapper at 0x452d060>'
p1638
asbasbasbag49
(g65
g51
NtRp1639
(dp1640
g54
(dp1641
sg63
g778
sg56
(lp1642
g49
(g70
g51
NtRp1643
(dp1644
g54
(dp1645
g74
g75
ssg63
g1639
sg56
(lp1646
S'wsgi_input'
p1647
asbag49
(g70
g51
NtRp1648
(dp1649
g54
(dp1650
g81
g82
ssg63
g1639
sg56
(lp1651
S':'
asbag49
(g70
g51
NtRp1652
(dp1653
g54
(dp1654
sg63
g1639
sg56
(lp1655
g49
(g50
g51
NtRp1656
(dp1657
g54
(dp1658
g62
I4
ssg63
g1652
sg56
(lp1659
S'<socket._fileobject object at 0x8fcb1f0>'
p1660
asbasbasbag49
(g65
g51
NtRp1661
(dp1662
g54
(dp1663
sg63
g778
sg56
(lp1664
g49
(g70
g51
NtRp1665
(dp1666
g54
(dp1667
g74
g75
ssg63
g1661
sg56
(lp1668
S'wsgi_multiprocess'
p1669
asbag49
(g70
g51
NtRp1670
(dp1671
g54
(dp1672
g81
g82
ssg63
g1661
sg56
(lp1673
S':'
asbag49
(g70
g51
NtRp1674
(dp1675
g54
(dp1676
sg63
g1661
sg56
(lp1677
g49
(g50
g51
NtRp1678
(dp1679
g54
(dp1680
g62
I4
ssg63
g1674
sg56
(lp1681
g92
asbasbasbag49
(g65
g51
NtRp1682
(dp1683
g54
(dp1684
sg63
g778
sg56
(lp1685
g49
(g70
g51
NtRp1686
(dp1687
g54
(dp1688
g74
g75
ssg63
g1682
sg56
(lp1689
S'wsgi_multithread'
p1690
asbag49
(g70
g51
NtRp1691
(dp1692
g54
(dp1693
g81
g82
ssg63
g1682
sg56
(lp1694
S':'
asbag49
(g70
g51
NtRp1695
(dp1696
g54
(dp1697
sg63
g1682
sg56
(lp1698
g49
(g50
g51
NtRp1699
(dp1700
g54
(dp1701
g62
I4
ssg63
g1695
sg56
(lp1702
g916
asbasbasbag49
(g65
g51
NtRp1703
(dp1704
g54
(dp1705
sg63
g778
sg56
(lp1706
g49
(g70
g51
NtRp1707
(dp1708
g54
(dp1709
g74
g75
ssg63
g1703
sg56
(lp1710
S'wsgi_run_once'
p1711
asbag49
(g70
g51
NtRp1712
(dp1713
g54
(dp1714
g81
g82
ssg63
g1703
sg56
(lp1715
S':'
asbag49
(g70
g51
NtRp1716
(dp1717
g54
(dp1718
sg63
g1703
sg56
(lp1719
g49
(g50
g51
NtRp1720
(dp1721
g54
(dp1722
g62
I4
ssg63
g1716
sg56
(lp1723
g92
asbasbasbag49
(g65
g51
NtRp1724
(dp1725
g54
(dp1726
sg63
g778
sg56
(lp1727
g49
(g70
g51
NtRp1728
(dp1729
g54
(dp1730
g74
g75
ssg63
g1724
sg56
(lp1731
S'wsgi_url_scheme'
p1732
asbag49
(g70
g51
NtRp1733
(dp1734
g54
(dp1735
g81
g82
ssg63
g1724
sg56
(lp1736
S':'
asbag49
(g70
g51
NtRp1737
(dp1738
g54
(dp1739
sg63
g1724
sg56
(lp1740
g49
(g50
g51
NtRp1741
(dp1742
g54
(dp1743
g62
I4
ssg63
g1737
sg56
(lp1744
S'http'
p1745
asbasbasbag49
(g65
g51
NtRp1746
(dp1747
g54
(dp1748
sg63
g778
sg56
(lp1749
g49
(g70
g51
NtRp1750
(dp1751
g54
(dp1752
g74
g75
ssg63
g1746
sg56
(lp1753
S'wsgi_version'
p1754
asbag49
(g70
g51
NtRp1755
(dp1756
g54
(dp1757
g81
g82
ssg63
g1746
sg56
(lp1758
S':'
asbag49
(g70
g51
NtRp1759
(dp1760
g54
(dp1761
sg63
g1746
sg56
(lp1762
g49
(g50
g51
NtRp1763
(dp1764
g54
(dp1765
g62
I4
ssg63
g1759
sg56
(lp1766
g49
(g58
g51
NtRp1767
(dp1768
g54
(dp1769
g62
I3
ssg63
Nsg56
(lp1770
g49
(g65
g51
NtRp1771
(dp1772
g54
(dp1773
sg63
g1767
sg56
(lp1774
g49
(g70
g51
NtRp1775
(dp1776
g54
(dp1777
sg63
g1771
sg56
(lp1778
g49
(g50
g51
NtRp1779
(dp1780
g54
(dp1781
g62
I3
ssg63
g1775
sg56
(lp1782
S'1'
asbasbasbag49
(g65
g51
NtRp1783
(dp1784
g54
(dp1785
sg63
g1767
sg56
(lp1786
g49
(g70
g51
NtRp1787
(dp1788
g54
(dp1789
sg63
g1783
sg56
(lp1790
g49
(g50
g51
NtRp1791
(dp1792
g54
(dp1793
g62
I3
ssg63
g1787
sg56
(lp1794
S'0'
asbasbasbasbasbasbasbasbasbasbasbag49
(g65
g51
NtRp1795
(dp1796
g54
(dp1797
sg63
g59
sg56
(lp1798
g49
(g70
g51
NtRp1799
(dp1800
g54
(dp1801
g74
g75
ssg63
g1795
sg56
(lp1802
S'extension'
p1803
asbag49
(g70
g51
NtRp1804
(dp1805
g54
(dp1806
g81
g82
ssg63
g1795
sg56
(lp1807
S':'
asbag49
(g70
g51
NtRp1808
(dp1809
g54
(dp1810
sg63
g1795
sg56
(lp1811
g49
(g50
g51
NtRp1812
(dp1813
g54
(dp1814
g62
I5
ssg63
g1808
sg56
(lp1815
S'html'
p1816
asbasbasbag49
(g65
g51
NtRp1817
(dp1818
g54
(dp1819
sg63
g59
sg56
(lp1820
g49
(g70
g51
NtRp1821
(dp1822
g54
(dp1823
g74
g75
ssg63
g1817
sg56
(lp1824
S'folder'
p1825
asbag49
(g70
g51
NtRp1826
(dp1827
g54
(dp1828
g81
g82
ssg63
g1817
sg56
(lp1829
S':'
asbag49
(g70
g51
NtRp1830
(dp1831
g54
(dp1832
sg63
g1817
sg56
(lp1833
g49
(g50
g51
NtRp1834
(dp1835
g54
(dp1836
g62
I5
ssg63
g1830
sg56
(lp1837
S'/Applications/web2py.app/Contents/Resources/applications/MR/'
p1838
asbasbasbag49
(g65
g51
NtRp1839
(dp1840
g54
(dp1841
sg63
g59
sg56
(lp1842
g49
(g70
g51
NtRp1843
(dp1844
g54
(dp1845
g74
g75
ssg63
g1839
sg56
(lp1846
S'function'
p1847
asbag49
(g70
g51
NtRp1848
(dp1849
g54
(dp1850
g81
g82
ssg63
g1839
sg56
(lp1851
S':'
asbag49
(g70
g51
NtRp1852
(dp1853
g54
(dp1854
sg63
g1839
sg56
(lp1855
g49
(g50
g51
NtRp1856
(dp1857
g54
(dp1858
g62
I5
ssg63
g1852
sg56
(lp1859
S'mobile_user_register'
p1860
asbasbasbag49
(g65
g51
NtRp1861
(dp1862
g54
(dp1863
sg63
g59
sg56
(lp1864
g49
(g70
g51
NtRp1865
(dp1866
g54
(dp1867
g74
g75
ssg63
g1861
sg56
(lp1868
S'get_vars'
p1869
asbag49
(g70
g51
NtRp1870
(dp1871
g54
(dp1872
g81
g82
ssg63
g1861
sg56
(lp1873
S':'
asbag49
(g70
g51
NtRp1874
(dp1875
g54
(dp1876
sg63
g1861
sg56
(lp1877
g49
(g50
g51
NtRp1878
(dp1879
g54
(dp1880
g62
I5
ssg63
g1874
sg56
(lp1881
g49
(g58
g51
NtRp1882
(dp1883
g54
(dp1884
g62
I4
ssg63
Nsg56
(lp1885
g49
(g65
g51
NtRp1886
(dp1887
g54
(dp1888
sg63
g1882
sg56
(lp1889
g49
(g70
g51
NtRp1890
(dp1891
g54
(dp1892
g74
g75
ssg63
g1886
sg56
(lp1893
S'country'
p1894
asbag49
(g70
g51
NtRp1895
(dp1896
g54
(dp1897
g81
g82
ssg63
g1886
sg56
(lp1898
S':'
asbag49
(g70
g51
NtRp1899
(dp1900
g54
(dp1901
sg63
g1886
sg56
(lp1902
g49
(g50
g51
NtRp1903
(dp1904
g54
(dp1905
g62
I4
ssg63
g1899
sg56
(lp1906
S'asdf'
p1907
asbasbasbag49
(g65
g51
NtRp1908
(dp1909
g54
(dp1910
sg63
g1882
sg56
(lp1911
g49
(g70
g51
NtRp1912
(dp1913
g54
(dp1914
g74
g75
ssg63
g1908
sg56
(lp1915
S'email'
p1916
asbag49
(g70
g51
NtRp1917
(dp1918
g54
(dp1919
g81
g82
ssg63
g1908
sg56
(lp1920
S':'
asbag49
(g70
g51
NtRp1921
(dp1922
g54
(dp1923
sg63
g1908
sg56
(lp1924
g49
(g50
g51
NtRp1925
(dp1926
g54
(dp1927
g62
I4
ssg63
g1921
sg56
(lp1928
S'adsf'
p1929
asbasbasbag49
(g65
g51
NtRp1930
(dp1931
g54
(dp1932
sg63
g1882
sg56
(lp1933
g49
(g70
g51
NtRp1934
(dp1935
g54
(dp1936
g74
g75
ssg63
g1930
sg56
(lp1937
S'firstname'
p1938
asbag49
(g70
g51
NtRp1939
(dp1940
g54
(dp1941
g81
g82
ssg63
g1930
sg56
(lp1942
S':'
asbag49
(g70
g51
NtRp1943
(dp1944
g54
(dp1945
sg63
g1930
sg56
(lp1946
g49
(g50
g51
NtRp1947
(dp1948
g54
(dp1949
g62
I4
ssg63
g1943
sg56
(lp1950
S'asdf'
p1951
asbasbasbag49
(g65
g51
NtRp1952
(dp1953
g54
(dp1954
sg63
g1882
sg56
(lp1955
g49
(g70
g51
NtRp1956
(dp1957
g54
(dp1958
g74
g75
ssg63
g1952
sg56
(lp1959
S'lastname'
p1960
asbag49
(g70
g51
NtRp1961
(dp1962
g54
(dp1963
g81
g82
ssg63
g1952
sg56
(lp1964
S':'
asbag49
(g70
g51
NtRp1965
(dp1966
g54
(dp1967
sg63
g1952
sg56
(lp1968
g49
(g50
g51
NtRp1969
(dp1970
g54
(dp1971
g62
I4
ssg63
g1965
sg56
(lp1972
S'asdf'
p1973
asbasbasbag49
(g65
g51
NtRp1974
(dp1975
g54
(dp1976
sg63
g1882
sg56
(lp1977
g49
(g70
g51
NtRp1978
(dp1979
g54
(dp1980
g74
g75
ssg63
g1974
sg56
(lp1981
S'password'
p1982
asbag49
(g70
g51
NtRp1983
(dp1984
g54
(dp1985
g81
g82
ssg63
g1974
sg56
(lp1986
S':'
asbag49
(g70
g51
NtRp1987
(dp1988
g54
(dp1989
sg63
g1974
sg56
(lp1990
g49
(g50
g51
NtRp1991
(dp1992
g54
(dp1993
g62
I4
ssg63
g1987
sg56
(lp1994
S'adsf'
p1995
asbasbasbasbasbasbasbag49
(g65
g51
NtRp1996
(dp1997
g54
(dp1998
sg63
g59
sg56
(lp1999
g49
(g70
g51
NtRp2000
(dp2001
g54
(dp2002
g74
g75
ssg63
g1996
sg56
(lp2003
S'global_settings'
p2004
asbag49
(g70
g51
NtRp2005
(dp2006
g54
(dp2007
g81
g82
ssg63
g1996
sg56
(lp2008
S':'
asbag49
(g70
g51
NtRp2009
(dp2010
g54
(dp2011
sg63
g1996
sg56
(lp2012
g49
(g50
g51
NtRp2013
(dp2014
g54
(dp2015
g62
I5
ssg63
g2009
sg56
(lp2016
g49
(g58
g51
NtRp2017
(dp2018
g54
(dp2019
g62
I4
ssg63
Nsg56
(lp2020
g49
(g65
g51
NtRp2021
(dp2022
g54
(dp2023
sg63
g2017
sg56
(lp2024
g49
(g70
g51
NtRp2025
(dp2026
g54
(dp2027
g74
g75
ssg63
g2021
sg56
(lp2028
g790
asbag49
(g70
g51
NtRp2029
(dp2030
g54
(dp2031
g81
g82
ssg63
g2021
sg56
(lp2032
S':'
asbag49
(g70
g51
NtRp2033
(dp2034
g54
(dp2035
sg63
g2021
sg56
(lp2036
g49
(g50
g51
NtRp2037
(dp2038
g54
(dp2039
g62
I4
ssg63
g2033
sg56
(lp2040
S"set(['/Applications/web2py.app/Contents/Resources/applications/admin/', '/Applications/web2py.app/Contents/Resources/applications/welcome/', '/Applications/web2py.app/Contents/Resources/applications/MR/'])"
p2041
asbasbasbag49
(g65
g51
NtRp2042
(dp2043
g54
(dp2044
sg63
g2017
sg56
(lp2045
g49
(g70
g51
NtRp2046
(dp2047
g54
(dp2048
g74
g75
ssg63
g2042
sg56
(lp2049
g812
asbag49
(g70
g51
NtRp2050
(dp2051
g54
(dp2052
g81
g82
ssg63
g2042
sg56
(lp2053
S':'
asbag49
(g70
g51
NtRp2054
(dp2055
g54
(dp2056
sg63
g2042
sg56
(lp2057
g49
(g50
g51
NtRp2058
(dp2059
g54
(dp2060
g62
I4
ssg63
g2054
sg56
(lp2061
g825
asbasbasbag49
(g65
g51
NtRp2062
(dp2063
g54
(dp2064
sg63
g2017
sg56
(lp2065
g49
(g70
g51
NtRp2066
(dp2067
g54
(dp2068
g74
g75
ssg63
g2062
sg56
(lp2069
g834
asbag49
(g70
g51
NtRp2070
(dp2071
g54
(dp2072
g81
g82
ssg63
g2062
sg56
(lp2073
S':'
asbag49
(g70
g51
NtRp2074
(dp2075
g54
(dp2076
sg63
g2062
sg56
(lp2077
g49
(g50
g51
NtRp2078
(dp2079
g54
(dp2080
g62
I4
ssg63
g2074
sg56
(lp2081
g49
(g58
g51
NtRp2082
(dp2083
g54
(dp2084
g62
I3
ssg63
Nsg56
(lp2085
sbasbasbasbag49
(g65
g51
NtRp2086
(dp2087
g54
(dp2088
sg63
g2017
sg56
(lp2089
g49
(g70
g51
NtRp2090
(dp2091
g54
(dp2092
g74
g75
ssg63
g2086
sg56
(lp2093
g859
asbag49
(g70
g51
NtRp2094
(dp2095
g54
(dp2096
g81
g82
ssg63
g2086
sg56
(lp2097
S':'
asbag49
(g70
g51
NtRp2098
(dp2099
g54
(dp2100
sg63
g2086
sg56
(lp2101
g49
(g50
g51
NtRp2102
(dp2103
g54
(dp2104
g62
I4
ssg63
g2098
sg56
(lp2105
S"<Values at 0x4554f58: {'verbose': False, 'ip': '127.0.0.1', 'with_scheduler': False, 'ips': ['173.250.203.67'], 'shutdown_timeout': 5, 'taskbar': False, 'port': 8000, 'maxthreads': None, 'softcron': False, 'server_name': 'd-173-250-203-67.dhcp4.washington.edu', 'bpython': False, 'nogui': False, 'pid_filename': 'httpserver.pid', 'extcron': False, 'runcron': False, 'run_system_tests': False, 'test': None, 'folder': '/Applications/web2py.app/Contents/Resources', 'config': '', 'import_models': False, 'winservice': '', 'shell': None, 'run': '', 'log_filename': 'httpserver.log', 'debuglevel': 30, 'args': [''], 'socket_timeout': 5, 'ssl_ca_certificate': None, 'scheduler': None, 'profiler_filename': None, 'ssl_private_key': '', 'scheduler_groups': None, 'password': '<ask>', 'request_queue_size': 5, 'ssl_certificate': '', 'cronjob': False, 'numthreads': None, 'quiet': False, 'interfaces': None, 'minthreads': None, 'timeout': 10, 'plain': False, 'nobanner': False}>"
p2106
asbasbasbag49
(g65
g51
NtRp2107
(dp2108
g54
(dp2109
sg63
g2017
sg56
(lp2110
g49
(g70
g51
NtRp2111
(dp2112
g54
(dp2113
g74
g75
ssg63
g2107
sg56
(lp2114
g881
asbag49
(g70
g51
NtRp2115
(dp2116
g54
(dp2117
g81
g82
ssg63
g2107
sg56
(lp2118
S':'
asbag49
(g70
g51
NtRp2119
(dp2120
g54
(dp2121
sg63
g2107
sg56
(lp2122
g49
(g50
g51
NtRp2123
(dp2124
g54
(dp2125
g62
I4
ssg63
g2119
sg56
(lp2126
S'set([])'
p2127
asbasbasbag49
(g65
g51
NtRp2128
(dp2129
g54
(dp2130
sg63
g2017
sg56
(lp2131
g49
(g70
g51
NtRp2132
(dp2133
g54
(dp2134
g74
g75
ssg63
g2128
sg56
(lp2135
g903
asbag49
(g70
g51
NtRp2136
(dp2137
g54
(dp2138
g81
g82
ssg63
g2128
sg56
(lp2139
S':'
asbag49
(g70
g51
NtRp2140
(dp2141
g54
(dp2142
sg63
g2128
sg56
(lp2143
g49
(g50
g51
NtRp2144
(dp2145
g54
(dp2146
g62
I4
ssg63
g2140
sg56
(lp2147
g916
asbasbasbag49
(g65
g51
NtRp2148
(dp2149
g54
(dp2150
sg63
g2017
sg56
(lp2151
g49
(g70
g51
NtRp2152
(dp2153
g54
(dp2154
g74
g75
ssg63
g2148
sg56
(lp2155
g925
asbag49
(g70
g51
NtRp2156
(dp2157
g54
(dp2158
g81
g82
ssg63
g2148
sg56
(lp2159
S':'
asbag49
(g70
g51
NtRp2160
(dp2161
g54
(dp2162
sg63
g2148
sg56
(lp2163
g49
(g50
g51
NtRp2164
(dp2165
g54
(dp2166
g62
I4
ssg63
g2160
sg56
(lp2167
g938
asbasbasbag49
(g65
g51
NtRp2168
(dp2169
g54
(dp2170
sg63
g2017
sg56
(lp2171
g49
(g70
g51
NtRp2172
(dp2173
g54
(dp2174
g74
g75
ssg63
g2168
sg56
(lp2175
g1123
asbag49
(g70
g51
NtRp2176
(dp2177
g54
(dp2178
g81
g82
ssg63
g2168
sg56
(lp2179
S':'
asbag49
(g70
g51
NtRp2180
(dp2181
g54
(dp2182
sg63
g2168
sg56
(lp2183
g49
(g50
g51
NtRp2184
(dp2185
g54
(dp2186
g62
I4
ssg63
g2180
sg56
(lp2187
g92
asbasbasbag49
(g65
g51
NtRp2188
(dp2189
g54
(dp2190
sg63
g2017
sg56
(lp2191
g49
(g70
g51
NtRp2192
(dp2193
g54
(dp2194
g74
g75
ssg63
g2188
sg56
(lp2195
g1144
asbag49
(g70
g51
NtRp2196
(dp2197
g54
(dp2198
g81
g82
ssg63
g2188
sg56
(lp2199
S':'
asbag49
(g70
g51
NtRp2200
(dp2201
g54
(dp2202
sg63
g2188
sg56
(lp2203
g49
(g50
g51
NtRp2204
(dp2205
g54
(dp2206
g62
I4
ssg63
g2200
sg56
(lp2207
g92
asbasbasbag49
(g65
g51
NtRp2208
(dp2209
g54
(dp2210
sg63
g2017
sg56
(lp2211
g49
(g70
g51
NtRp2212
(dp2213
g54
(dp2214
g74
g75
ssg63
g2208
sg56
(lp2215
g1165
asbag49
(g70
g51
NtRp2216
(dp2217
g54
(dp2218
g81
g82
ssg63
g2208
sg56
(lp2219
S':'
asbag49
(g70
g51
NtRp2220
(dp2221
g54
(dp2222
sg63
g2208
sg56
(lp2223
g49
(g50
g51
NtRp2224
(dp2225
g54
(dp2226
g62
I4
ssg63
g2220
sg56
(lp2227
g49
(g58
g51
NtRp2228
(dp2229
g54
(dp2230
g62
I3
ssg63
Nsg56
(lp2231
g49
(g65
g51
NtRp2232
(dp2233
g54
(dp2234
sg63
g2228
sg56
(lp2235
g49
(g70
g51
NtRp2236
(dp2237
g54
(dp2238
sg63
g2232
sg56
(lp2239
g49
(g50
g51
NtRp2240
(dp2241
g54
(dp2242
g62
I3
ssg63
g2236
sg56
(lp2243
g1194
asbasbasbag49
(g65
g51
NtRp2244
(dp2245
g54
(dp2246
sg63
g2228
sg56
(lp2247
g49
(g70
g51
NtRp2248
(dp2249
g54
(dp2250
sg63
g2244
sg56
(lp2251
g49
(g50
g51
NtRp2252
(dp2253
g54
(dp2254
g62
I3
ssg63
g2248
sg56
(lp2255
g1207
asbasbasbag49
(g65
g51
NtRp2256
(dp2257
g54
(dp2258
sg63
g2228
sg56
(lp2259
g49
(g70
g51
NtRp2260
(dp2261
g54
(dp2262
sg63
g2256
sg56
(lp2263
g49
(g50
g51
NtRp2264
(dp2265
g54
(dp2266
g62
I3
ssg63
g2260
sg56
(lp2267
g1220
asbasbasbag49
(g65
g51
NtRp2268
(dp2269
g54
(dp2270
sg63
g2228
sg56
(lp2271
g49
(g70
g51
NtRp2272
(dp2273
g54
(dp2274
sg63
g2268
sg56
(lp2275
g49
(g50
g51
NtRp2276
(dp2277
g54
(dp2278
g62
I3
ssg63
g2272
sg56
(lp2279
g1233
asbasbasbag49
(g65
g51
NtRp2280
(dp2281
g54
(dp2282
sg63
g2228
sg56
(lp2283
g49
(g70
g51
NtRp2284
(dp2285
g54
(dp2286
sg63
g2280
sg56
(lp2287
g49
(g50
g51
NtRp2288
(dp2289
g54
(dp2290
g62
I3
ssg63
g2284
sg56
(lp2291
g1246
asbasbasbasbasbasbasbag49
(g65
g51
NtRp2292
(dp2293
g54
(dp2294
sg63
g2017
sg56
(lp2295
g49
(g70
g51
NtRp2296
(dp2297
g54
(dp2298
g74
g75
ssg63
g2292
sg56
(lp2299
g1516
asbag49
(g70
g51
NtRp2300
(dp2301
g54
(dp2302
g81
g82
ssg63
g2292
sg56
(lp2303
S':'
asbag49
(g70
g51
NtRp2304
(dp2305
g54
(dp2306
sg63
g2292
sg56
(lp2307
g49
(g50
g51
NtRp2308
(dp2309
g54
(dp2310
g62
I4
ssg63
g2304
sg56
(lp2311
g49
(g58
g51
NtRp2312
(dp2313
g54
(dp2314
g62
I3
ssg63
Nsg56
(lp2315
g49
(g65
g51
NtRp2316
(dp2317
g54
(dp2318
sg63
g2312
sg56
(lp2319
g49
(g70
g51
NtRp2320
(dp2321
g54
(dp2322
sg63
g2316
sg56
(lp2323
g49
(g50
g51
NtRp2324
(dp2325
g54
(dp2326
g62
I3
ssg63
g2320
sg56
(lp2327
S'2'
asbasbasbag49
(g65
g51
NtRp2328
(dp2329
g54
(dp2330
sg63
g2312
sg56
(lp2331
g49
(g70
g51
NtRp2332
(dp2333
g54
(dp2334
sg63
g2328
sg56
(lp2335
g49
(g50
g51
NtRp2336
(dp2337
g54
(dp2338
g62
I3
ssg63
g2332
sg56
(lp2339
S'4'
asbasbasbag49
(g65
g51
NtRp2340
(dp2341
g54
(dp2342
sg63
g2312
sg56
(lp2343
g49
(g70
g51
NtRp2344
(dp2345
g54
(dp2346
sg63
g2340
sg56
(lp2347
g49
(g50
g51
NtRp2348
(dp2349
g54
(dp2350
g62
I3
ssg63
g2344
sg56
(lp2351
S'5'
asbasbasbag49
(g65
g51
NtRp2352
(dp2353
g54
(dp2354
sg63
g2312
sg56
(lp2355
g49
(g70
g51
NtRp2356
(dp2357
g54
(dp2358
sg63
g2352
sg56
(lp2359
g49
(g50
g51
NtRp2360
(dp2361
g54
(dp2362
g62
I3
ssg63
g2356
sg56
(lp2363
g1581
asbasbasbag49
(g65
g51
NtRp2364
(dp2365
g54
(dp2366
sg63
g2312
sg56
(lp2367
g49
(g70
g51
NtRp2368
(dp2369
g54
(dp2370
sg63
g2364
sg56
(lp2371
g49
(g50
g51
NtRp2372
(dp2373
g54
(dp2374
g62
I3
ssg63
g2368
sg56
(lp2375
S'datetime.datetime(2013, 3, 18, 22, 46, 22)'
p2376
asbasbasbasbasbasbasbasbasbasbasbag49
(g65
g51
NtRp2377
(dp2378
g54
(dp2379
sg63
g59
sg56
(lp2380
g49
(g70
g51
NtRp2381
(dp2382
g54
(dp2383
g74
g75
ssg63
g2377
sg56
(lp2384
S'is_https'
p2385
asbag49
(g70
g51
NtRp2386
(dp2387
g54
(dp2388
g81
g82
ssg63
g2377
sg56
(lp2389
S':'
asbag49
(g70
g51
NtRp2390
(dp2391
g54
(dp2392
sg63
g2377
sg56
(lp2393
g49
(g50
g51
NtRp2394
(dp2395
g54
(dp2396
g62
I5
ssg63
g2390
sg56
(lp2397
g92
asbasbasbag49
(g65
g51
NtRp2398
(dp2399
g54
(dp2400
sg63
g59
sg56
(lp2401
g49
(g70
g51
NtRp2402
(dp2403
g54
(dp2404
g74
g75
ssg63
g2398
sg56
(lp2405
S'is_local'
p2406
asbag49
(g70
g51
NtRp2407
(dp2408
g54
(dp2409
g81
g82
ssg63
g2398
sg56
(lp2410
S':'
asbag49
(g70
g51
NtRp2411
(dp2412
g54
(dp2413
sg63
g2398
sg56
(lp2414
g49
(g50
g51
NtRp2415
(dp2416
g54
(dp2417
g62
I5
ssg63
g2411
sg56
(lp2418
g916
asbasbasbag49
(g65
g51
NtRp2419
(dp2420
g54
(dp2421
sg63
g59
sg56
(lp2422
g49
(g70
g51
NtRp2423
(dp2424
g54
(dp2425
g74
g75
ssg63
g2419
sg56
(lp2426
S'is_restful'
p2427
asbag49
(g70
g51
NtRp2428
(dp2429
g54
(dp2430
g81
g82
ssg63
g2419
sg56
(lp2431
S':'
asbag49
(g70
g51
NtRp2432
(dp2433
g54
(dp2434
sg63
g2419
sg56
(lp2435
g49
(g50
g51
NtRp2436
(dp2437
g54
(dp2438
g62
I5
ssg63
g2432
sg56
(lp2439
g92
asbasbasbag49
(g65
g51
NtRp2440
(dp2441
g54
(dp2442
sg63
g59
sg56
(lp2443
g49
(g70
g51
NtRp2444
(dp2445
g54
(dp2446
g74
g75
ssg63
g2440
sg56
(lp2447
S'now'
p2448
asbag49
(g70
g51
NtRp2449
(dp2450
g54
(dp2451
g81
g82
ssg63
g2440
sg56
(lp2452
S':'
asbag49
(g70
g51
NtRp2453
(dp2454
g54
(dp2455
sg63
g2440
sg56
(lp2456
g49
(g50
g51
NtRp2457
(dp2458
g54
(dp2459
g62
I5
ssg63
g2453
sg56
(lp2460
S'datetime.datetime(2013, 4, 15, 17, 35, 53, 259959)'
p2461
asbasbasbag49
(g65
g51
NtRp2462
(dp2463
g54
(dp2464
sg63
g59
sg56
(lp2465
g49
(g70
g51
NtRp2466
(dp2467
g54
(dp2468
g74
g75
ssg63
g2462
sg56
(lp2469
S'post_vars'
p2470
asbag49
(g70
g51
NtRp2471
(dp2472
g54
(dp2473
g81
g82
ssg63
g2462
sg56
(lp2474
S':'
asbag49
(g70
g51
NtRp2475
(dp2476
g54
(dp2477
sg63
g2462
sg56
(lp2478
g49
(g50
g51
NtRp2479
(dp2480
g54
(dp2481
g62
I5
ssg63
g2475
sg56
(lp2482
g49
(g58
g51
NtRp2483
(dp2484
g54
(dp2485
g62
I4
ssg63
Nsg56
(lp2486
sbasbasbasbag49
(g65
g51
NtRp2487
(dp2488
g54
(dp2489
sg63
g59
sg56
(lp2490
g49
(g70
g51
NtRp2491
(dp2492
g54
(dp2493
g74
g75
ssg63
g2487
sg56
(lp2494
S'raw_args'
p2495
asbag49
(g70
g51
NtRp2496
(dp2497
g54
(dp2498
g81
g82
ssg63
g2487
sg56
(lp2499
S':'
asbag49
(g70
g51
NtRp2500
(dp2501
g54
(dp2502
sg63
g2487
sg56
(lp2503
g49
(g50
g51
NtRp2504
(dp2505
g54
(dp2506
g62
I5
ssg63
g2500
sg56
(lp2507
S''
asbasbasbag49
(g65
g51
NtRp2508
(dp2509
g54
(dp2510
sg63
g59
sg56
(lp2511
g49
(g70
g51
NtRp2512
(dp2513
g54
(dp2514
g74
g75
ssg63
g2508
sg56
(lp2515
S'raw_extension'
p2516
asbag49
(g70
g51
NtRp2517
(dp2518
g54
(dp2519
g81
g82
ssg63
g2508
sg56
(lp2520
S':'
asbag49
(g70
g51
NtRp2521
(dp2522
g54
(dp2523
sg63
g2508
sg56
(lp2524
g49
(g50
g51
NtRp2525
(dp2526
g54
(dp2527
g62
I5
ssg63
g2521
sg56
(lp2528
S'None'
p2529
asbasbasbag49
(g65
g51
NtRp2530
(dp2531
g54
(dp2532
sg63
g59
sg56
(lp2533
g49
(g70
g51
NtRp2534
(dp2535
g54
(dp2536
g74
g75
ssg63
g2530
sg56
(lp2537
S'url'
p2538
asbag49
(g70
g51
NtRp2539
(dp2540
g54
(dp2541
g81
g82
ssg63
g2530
sg56
(lp2542
S':'
asbag49
(g70
g51
NtRp2543
(dp2544
g54
(dp2545
sg63
g2530
sg56
(lp2546
g49
(g50
g51
NtRp2547
(dp2548
g54
(dp2549
g62
I5
ssg63
g2543
sg56
(lp2550
g1268
asbasbasbag49
(g65
g51
NtRp2551
(dp2552
g54
(dp2553
sg63
g59
sg56
(lp2554
g49
(g70
g51
NtRp2555
(dp2556
g54
(dp2557
g74
g75
ssg63
g2551
sg56
(lp2558
S'utcnow'
p2559
asbag49
(g70
g51
NtRp2560
(dp2561
g54
(dp2562
g81
g82
ssg63
g2551
sg56
(lp2563
S':'
asbag49
(g70
g51
NtRp2564
(dp2565
g54
(dp2566
sg63
g2551
sg56
(lp2567
g49
(g50
g51
NtRp2568
(dp2569
g54
(dp2570
g62
I5
ssg63
g2564
sg56
(lp2571
S'datetime.datetime(2013, 4, 16, 0, 35, 53, 259971)'
p2572
asbasbasbag49
(g65
g51
NtRp2573
(dp2574
g54
(dp2575
sg63
g59
sg56
(lp2576
g49
(g70
g51
NtRp2577
(dp2578
g54
(dp2579
g74
g75
ssg63
g2573
sg56
(lp2580
S'uuid'
p2581
asbag49
(g70
g51
NtRp2582
(dp2583
g54
(dp2584
g81
g82
ssg63
g2573
sg56
(lp2585
S':'
asbag49
(g70
g51
NtRp2586
(dp2587
g54
(dp2588
sg63
g2573
sg56
(lp2589
g49
(g50
g51
NtRp2590
(dp2591
g54
(dp2592
g62
I5
ssg63
g2586
sg56
(lp2593
S'MR/127.0.0.1.2013-04-15.17-35-53.f8a4db77-cb0d-402b-8b84-070dbb8921d4'
p2594
asbasbasbag49
(g65
g51
NtRp2595
(dp2596
g54
(dp2597
sg63
g59
sg56
(lp2598
g49
(g70
g51
NtRp2599
(dp2600
g54
(dp2601
g74
g75
ssg63
g2595
sg56
(lp2602
S'vars'
p2603
asbag49
(g70
g51
NtRp2604
(dp2605
g54
(dp2606
g81
g82
ssg63
g2595
sg56
(lp2607
S':'
asbag49
(g70
g51
NtRp2608
(dp2609
g54
(dp2610
sg63
g2595
sg56
(lp2611
g49
(g50
g51
NtRp2612
(dp2613
g54
(dp2614
g62
I5
ssg63
g2608
sg56
(lp2615
g49
(g58
g51
NtRp2616
(dp2617
g54
(dp2618
g62
I4
ssg63
Nsg56
(lp2619
g49
(g65
g51
NtRp2620
(dp2621
g54
(dp2622
sg63
g2616
sg56
(lp2623
g49
(g70
g51
NtRp2624
(dp2625
g54
(dp2626
g74
g75
ssg63
g2620
sg56
(lp2627
g1894
asbag49
(g70
g51
NtRp2628
(dp2629
g54
(dp2630
g81
g82
ssg63
g2620
sg56
(lp2631
S':'
asbag49
(g70
g51
NtRp2632
(dp2633
g54
(dp2634
sg63
g2620
sg56
(lp2635
g49
(g50
g51
NtRp2636
(dp2637
g54
(dp2638
g62
I4
ssg63
g2632
sg56
(lp2639
g1907
asbasbasbag49
(g65
g51
NtRp2640
(dp2641
g54
(dp2642
sg63
g2616
sg56
(lp2643
g49
(g70
g51
NtRp2644
(dp2645
g54
(dp2646
g74
g75
ssg63
g2640
sg56
(lp2647
g1916
asbag49
(g70
g51
NtRp2648
(dp2649
g54
(dp2650
g81
g82
ssg63
g2640
sg56
(lp2651
S':'
asbag49
(g70
g51
NtRp2652
(dp2653
g54
(dp2654
sg63
g2640
sg56
(lp2655
g49
(g50
g51
NtRp2656
(dp2657
g54
(dp2658
g62
I4
ssg63
g2652
sg56
(lp2659
g1929
asbasbasbag49
(g65
g51
NtRp2660
(dp2661
g54
(dp2662
sg63
g2616
sg56
(lp2663
g49
(g70
g51
NtRp2664
(dp2665
g54
(dp2666
g74
g75
ssg63
g2660
sg56
(lp2667
g1938
asbag49
(g70
g51
NtRp2668
(dp2669
g54
(dp2670
g81
g82
ssg63
g2660
sg56
(lp2671
S':'
asbag49
(g70
g51
NtRp2672
(dp2673
g54
(dp2674
sg63
g2660
sg56
(lp2675
g49
(g50
g51
NtRp2676
(dp2677
g54
(dp2678
g62
I4
ssg63
g2672
sg56
(lp2679
g1951
asbasbasbag49
(g65
g51
NtRp2680
(dp2681
g54
(dp2682
sg63
g2616
sg56
(lp2683
g49
(g70
g51
NtRp2684
(dp2685
g54
(dp2686
g74
g75
ssg63
g2680
sg56
(lp2687
g1960
asbag49
(g70
g51
NtRp2688
(dp2689
g54
(dp2690
g81
g82
ssg63
g2680
sg56
(lp2691
S':'
asbag49
(g70
g51
NtRp2692
(dp2693
g54
(dp2694
sg63
g2680
sg56
(lp2695
g49
(g50
g51
NtRp2696
(dp2697
g54
(dp2698
g62
I4
ssg63
g2692
sg56
(lp2699
g1973
asbasbasbag49
(g65
g51
NtRp2700
(dp2701
g54
(dp2702
sg63
g2616
sg56
(lp2703
g49
(g70
g51
NtRp2704
(dp2705
g54
(dp2706
g74
g75
ssg63
g2700
sg56
(lp2707
g1982
asbag49
(g70
g51
NtRp2708
(dp2709
g54
(dp2710
g81
g82
ssg63
g2700
sg56
(lp2711
S':'
asbag49
(g70
g51
NtRp2712
(dp2713
g54
(dp2714
sg63
g2700
sg56
(lp2715
g49
(g50
g51
NtRp2716
(dp2717
g54
(dp2718
g62
I4
ssg63
g2712
sg56
(lp2719
g1995
asbasbasbasbasbasbasbag49
(g65
g51
NtRp2720
(dp2721
g54
(dp2722
sg63
g59
sg56
(lp2723
g49
(g70
g51
NtRp2724
(dp2725
g54
(dp2726
g74
g75
ssg63
g2720
sg56
(lp2727
S'wsgi'
p2728
asbag49
(g70
g51
NtRp2729
(dp2730
g54
(dp2731
g81
g82
ssg63
g2720
sg56
(lp2732
S':'
asbag49
(g70
g51
NtRp2733
(dp2734
g54
(dp2735
sg63
g2720
sg56
(lp2736
g49
(g50
g51
NtRp2737
(dp2738
g54
(dp2739
g62
I5
ssg63
g2733
sg56
(lp2740
g49
(g58
g51
NtRp2741
(dp2742
g54
(dp2743
g62
I4
ssg63
Nsg56
(lp2744
g49
(g65
g51
NtRp2745
(dp2746
g54
(dp2747
sg63
g2741
sg56
(lp2748
g49
(g70
g51
NtRp2749
(dp2750
g54
(dp2751
g74
g75
ssg63
g2745
sg56
(lp2752
S'environ'
p2753
asbag49
(g70
g51
NtRp2754
(dp2755
g54
(dp2756
g81
g82
ssg63
g2745
sg56
(lp2757
S':'
asbag49
(g70
g51
NtRp2758
(dp2759
g54
(dp2760
sg63
g2745
sg56
(lp2761
g49
(g50
g51
NtRp2762
(dp2763
g54
(dp2764
g62
I4
ssg63
g2758
sg56
(lp2765
g49
(g58
g51
NtRp2766
(dp2767
g54
(dp2768
g62
I3
ssg63
Nsg56
(lp2769
g49
(g65
g51
NtRp2770
(dp2771
g54
(dp2772
sg63
g2766
sg56
(lp2773
g49
(g70
g51
NtRp2774
(dp2775
g54
(dp2776
g74
g75
ssg63
g2770
sg56
(lp2777
S'HTTP_ACCEPT'
p2778
asbag49
(g70
g51
NtRp2779
(dp2780
g54
(dp2781
g81
g82
ssg63
g2770
sg56
(lp2782
S':'
asbag49
(g70
g51
NtRp2783
(dp2784
g54
(dp2785
sg63
g2770
sg56
(lp2786
g49
(g50
g51
NtRp2787
(dp2788
g54
(dp2789
g62
I3
ssg63
g2783
sg56
(lp2790
g960
asbasbasbag49
(g65
g51
NtRp2791
(dp2792
g54
(dp2793
sg63
g2766
sg56
(lp2794
g49
(g70
g51
NtRp2795
(dp2796
g54
(dp2797
g74
g75
ssg63
g2791
sg56
(lp2798
S'HTTP_ACCEPT_CHARSET'
p2799
asbag49
(g70
g51
NtRp2800
(dp2801
g54
(dp2802
g81
g82
ssg63
g2791
sg56
(lp2803
S':'
asbag49
(g70
g51
NtRp2804
(dp2805
g54
(dp2806
sg63
g2791
sg56
(lp2807
g49
(g50
g51
NtRp2808
(dp2809
g54
(dp2810
g62
I3
ssg63
g2804
sg56
(lp2811
g982
asbasbasbag49
(g65
g51
NtRp2812
(dp2813
g54
(dp2814
sg63
g2766
sg56
(lp2815
g49
(g70
g51
NtRp2816
(dp2817
g54
(dp2818
g74
g75
ssg63
g2812
sg56
(lp2819
S'HTTP_ACCEPT_ENCODING'
p2820
asbag49
(g70
g51
NtRp2821
(dp2822
g54
(dp2823
g81
g82
ssg63
g2812
sg56
(lp2824
S':'
asbag49
(g70
g51
NtRp2825
(dp2826
g54
(dp2827
sg63
g2812
sg56
(lp2828
g49
(g50
g51
NtRp2829
(dp2830
g54
(dp2831
g62
I3
ssg63
g2825
sg56
(lp2832
g1004
asbasbasbag49
(g65
g51
NtRp2833
(dp2834
g54
(dp2835
sg63
g2766
sg56
(lp2836
g49
(g70
g51
NtRp2837
(dp2838
g54
(dp2839
g74
g75
ssg63
g2833
sg56
(lp2840
S'HTTP_ACCEPT_LANGUAGE'
p2841
asbag49
(g70
g51
NtRp2842
(dp2843
g54
(dp2844
g81
g82
ssg63
g2833
sg56
(lp2845
S':'
asbag49
(g70
g51
NtRp2846
(dp2847
g54
(dp2848
sg63
g2833
sg56
(lp2849
g49
(g50
g51
NtRp2850
(dp2851
g54
(dp2852
g62
I3
ssg63
g2846
sg56
(lp2853
g1026
asbasbasbag49
(g65
g51
NtRp2854
(dp2855
g54
(dp2856
sg63
g2766
sg56
(lp2857
g49
(g70
g51
NtRp2858
(dp2859
g54
(dp2860
g74
g75
ssg63
g2854
sg56
(lp2861
S'HTTP_CONNECTION'
p2862
asbag49
(g70
g51
NtRp2863
(dp2864
g54
(dp2865
g81
g82
ssg63
g2854
sg56
(lp2866
S':'
asbag49
(g70
g51
NtRp2867
(dp2868
g54
(dp2869
sg63
g2854
sg56
(lp2870
g49
(g50
g51
NtRp2871
(dp2872
g54
(dp2873
g62
I3
ssg63
g2867
sg56
(lp2874
g1048
asbasbasbag49
(g65
g51
NtRp2875
(dp2876
g54
(dp2877
sg63
g2766
sg56
(lp2878
g49
(g70
g51
NtRp2879
(dp2880
g54
(dp2881
g74
g75
ssg63
g2875
sg56
(lp2882
S'HTTP_COOKIE'
p2883
asbag49
(g70
g51
NtRp2884
(dp2885
g54
(dp2886
g81
g82
ssg63
g2875
sg56
(lp2887
S':'
asbag49
(g70
g51
NtRp2888
(dp2889
g54
(dp2890
sg63
g2875
sg56
(lp2891
g49
(g50
g51
NtRp2892
(dp2893
g54
(dp2894
g62
I3
ssg63
g2888
sg56
(lp2895
g1070
asbasbasbag49
(g65
g51
NtRp2896
(dp2897
g54
(dp2898
sg63
g2766
sg56
(lp2899
g49
(g70
g51
NtRp2900
(dp2901
g54
(dp2902
g74
g75
ssg63
g2896
sg56
(lp2903
S'HTTP_HOST'
p2904
asbag49
(g70
g51
NtRp2905
(dp2906
g54
(dp2907
g81
g82
ssg63
g2896
sg56
(lp2908
S':'
asbag49
(g70
g51
NtRp2909
(dp2910
g54
(dp2911
sg63
g2896
sg56
(lp2912
g49
(g50
g51
NtRp2913
(dp2914
g54
(dp2915
g62
I3
ssg63
g2909
sg56
(lp2916
g1092
asbasbasbag49
(g65
g51
NtRp2917
(dp2918
g54
(dp2919
sg63
g2766
sg56
(lp2920
g49
(g70
g51
NtRp2921
(dp2922
g54
(dp2923
g74
g75
ssg63
g2917
sg56
(lp2924
S'HTTP_USER_AGENT'
p2925
asbag49
(g70
g51
NtRp2926
(dp2927
g54
(dp2928
g81
g82
ssg63
g2917
sg56
(lp2929
S':'
asbag49
(g70
g51
NtRp2930
(dp2931
g54
(dp2932
sg63
g2917
sg56
(lp2933
g49
(g50
g51
NtRp2934
(dp2935
g54
(dp2936
g62
I3
ssg63
g2930
sg56
(lp2937
g1114
asbasbasbag49
(g65
g51
NtRp2938
(dp2939
g54
(dp2940
sg63
g2766
sg56
(lp2941
g49
(g70
g51
NtRp2942
(dp2943
g54
(dp2944
g74
g75
ssg63
g2938
sg56
(lp2945
S'PATH_INFO'
p2946
asbag49
(g70
g51
NtRp2947
(dp2948
g54
(dp2949
g81
g82
ssg63
g2938
sg56
(lp2950
S':'
asbag49
(g70
g51
NtRp2951
(dp2952
g54
(dp2953
sg63
g2938
sg56
(lp2954
g49
(g50
g51
NtRp2955
(dp2956
g54
(dp2957
g62
I3
ssg63
g2951
sg56
(lp2958
g1268
asbasbasbag49
(g65
g51
NtRp2959
(dp2960
g54
(dp2961
sg63
g2766
sg56
(lp2962
g49
(g70
g51
NtRp2963
(dp2964
g54
(dp2965
g74
g75
ssg63
g2959
sg56
(lp2966
S'QUERY_STRING'
p2967
asbag49
(g70
g51
NtRp2968
(dp2969
g54
(dp2970
g81
g82
ssg63
g2959
sg56
(lp2971
S':'
asbag49
(g70
g51
NtRp2972
(dp2973
g54
(dp2974
sg63
g2959
sg56
(lp2975
g49
(g50
g51
NtRp2976
(dp2977
g54
(dp2978
g62
I3
ssg63
g2972
sg56
(lp2979
g1290
asbasbasbag49
(g65
g51
NtRp2980
(dp2981
g54
(dp2982
sg63
g2766
sg56
(lp2983
g49
(g70
g51
NtRp2984
(dp2985
g54
(dp2986
g74
g75
ssg63
g2980
sg56
(lp2987
S'REMOTE_ADDR'
p2988
asbag49
(g70
g51
NtRp2989
(dp2990
g54
(dp2991
g81
g82
ssg63
g2980
sg56
(lp2992
S':'
asbag49
(g70
g51
NtRp2993
(dp2994
g54
(dp2995
sg63
g2980
sg56
(lp2996
g49
(g50
g51
NtRp2997
(dp2998
g54
(dp2999
g62
I3
ssg63
g2993
sg56
(lp3000
g204
asbasbasbag49
(g65
g51
NtRp3001
(dp3002
g54
(dp3003
sg63
g2766
sg56
(lp3004
g49
(g70
g51
NtRp3005
(dp3006
g54
(dp3007
g74
g75
ssg63
g3001
sg56
(lp3008
S'REMOTE_PORT'
p3009
asbag49
(g70
g51
NtRp3010
(dp3011
g54
(dp3012
g81
g82
ssg63
g3001
sg56
(lp3013
S':'
asbag49
(g70
g51
NtRp3014
(dp3015
g54
(dp3016
sg63
g3001
sg56
(lp3017
g49
(g50
g51
NtRp3018
(dp3019
g54
(dp3020
g62
I3
ssg63
g3014
sg56
(lp3021
g1333
asbasbasbag49
(g65
g51
NtRp3022
(dp3023
g54
(dp3024
sg63
g2766
sg56
(lp3025
g49
(g70
g51
NtRp3026
(dp3027
g54
(dp3028
g74
g75
ssg63
g3022
sg56
(lp3029
S'REQUEST_METHOD'
p3030
asbag49
(g70
g51
NtRp3031
(dp3032
g54
(dp3033
g81
g82
ssg63
g3022
sg56
(lp3034
S':'
asbag49
(g70
g51
NtRp3035
(dp3036
g54
(dp3037
sg63
g3022
sg56
(lp3038
g49
(g50
g51
NtRp3039
(dp3040
g54
(dp3041
g62
I3
ssg63
g3035
sg56
(lp3042
g1355
asbasbasbag49
(g65
g51
NtRp3043
(dp3044
g54
(dp3045
sg63
g2766
sg56
(lp3046
g49
(g70
g51
NtRp3047
(dp3048
g54
(dp3049
g74
g75
ssg63
g3043
sg56
(lp3050
S'REQUEST_URI'
p3051
asbag49
(g70
g51
NtRp3052
(dp3053
g54
(dp3054
g81
g82
ssg63
g3043
sg56
(lp3055
S':'
asbag49
(g70
g51
NtRp3056
(dp3057
g54
(dp3058
sg63
g3043
sg56
(lp3059
g49
(g50
g51
NtRp3060
(dp3061
g54
(dp3062
g62
I3
ssg63
g3056
sg56
(lp3063
g1377
asbasbasbag49
(g65
g51
NtRp3064
(dp3065
g54
(dp3066
sg63
g2766
sg56
(lp3067
g49
(g70
g51
NtRp3068
(dp3069
g54
(dp3070
g74
g75
ssg63
g3064
sg56
(lp3071
S'SCRIPT_NAME'
p3072
asbag49
(g70
g51
NtRp3073
(dp3074
g54
(dp3075
g81
g82
ssg63
g3064
sg56
(lp3076
S':'
asbag49
(g70
g51
NtRp3077
(dp3078
g54
(dp3079
sg63
g3064
sg56
(lp3080
g49
(g50
g51
NtRp3081
(dp3082
g54
(dp3083
g62
I3
ssg63
g3077
sg56
(lp3084
S''
asbasbasbag49
(g65
g51
NtRp3085
(dp3086
g54
(dp3087
sg63
g2766
sg56
(lp3088
g49
(g70
g51
NtRp3089
(dp3090
g54
(dp3091
g74
g75
ssg63
g3085
sg56
(lp3092
S'SERVER_NAME'
p3093
asbag49
(g70
g51
NtRp3094
(dp3095
g54
(dp3096
g81
g82
ssg63
g3085
sg56
(lp3097
S':'
asbag49
(g70
g51
NtRp3098
(dp3099
g54
(dp3100
sg63
g3085
sg56
(lp3101
g49
(g50
g51
NtRp3102
(dp3103
g54
(dp3104
g62
I3
ssg63
g3098
sg56
(lp3105
g1420
asbasbasbag49
(g65
g51
NtRp3106
(dp3107
g54
(dp3108
sg63
g2766
sg56
(lp3109
g49
(g70
g51
NtRp3110
(dp3111
g54
(dp3112
g74
g75
ssg63
g3106
sg56
(lp3113
S'SERVER_PORT'
p3114
asbag49
(g70
g51
NtRp3115
(dp3116
g54
(dp3117
g81
g82
ssg63
g3106
sg56
(lp3118
S':'
asbag49
(g70
g51
NtRp3119
(dp3120
g54
(dp3121
sg63
g3106
sg56
(lp3122
g49
(g50
g51
NtRp3123
(dp3124
g54
(dp3125
g62
I3
ssg63
g3119
sg56
(lp3126
g1442
asbasbasbag49
(g65
g51
NtRp3127
(dp3128
g54
(dp3129
sg63
g2766
sg56
(lp3130
g49
(g70
g51
NtRp3131
(dp3132
g54
(dp3133
g74
g75
ssg63
g3127
sg56
(lp3134
S'SERVER_PROTOCOL'
p3135
asbag49
(g70
g51
NtRp3136
(dp3137
g54
(dp3138
g81
g82
ssg63
g3127
sg56
(lp3139
S':'
asbag49
(g70
g51
NtRp3140
(dp3141
g54
(dp3142
sg63
g3127
sg56
(lp3143
g49
(g50
g51
NtRp3144
(dp3145
g54
(dp3146
g62
I3
ssg63
g3140
sg56
(lp3147
g1464
asbasbasbag49
(g65
g51
NtRp3148
(dp3149
g54
(dp3150
sg63
g2766
sg56
(lp3151
g49
(g70
g51
NtRp3152
(dp3153
g54
(dp3154
g74
g75
ssg63
g3148
sg56
(lp3155
S'SERVER_SOFTWARE'
p3156
asbag49
(g70
g51
NtRp3157
(dp3158
g54
(dp3159
g81
g82
ssg63
g3148
sg56
(lp3160
S':'
asbag49
(g70
g51
NtRp3161
(dp3162
g54
(dp3163
sg63
g3148
sg56
(lp3164
g49
(g50
g51
NtRp3165
(dp3166
g54
(dp3167
g62
I3
ssg63
g3161
sg56
(lp3168
g1486
asbasbasbag49
(g65
g51
NtRp3169
(dp3170
g54
(dp3171
sg63
g2766
sg56
(lp3172
g49
(g70
g51
NtRp3173
(dp3174
g54
(dp3175
g74
g75
ssg63
g3169
sg56
(lp3176
S'wsgi.errors'
p3177
asbag49
(g70
g51
NtRp3178
(dp3179
g54
(dp3180
g81
g82
ssg63
g3169
sg56
(lp3181
S':'
asbag49
(g70
g51
NtRp3182
(dp3183
g54
(dp3184
sg63
g3169
sg56
(lp3185
g49
(g50
g51
NtRp3186
(dp3187
g54
(dp3188
g62
I3
ssg63
g3182
sg56
(lp3189
S"<open file '<stderr>', mode 'w' at 0x660b0>"
p3190
asbasbasbag49
(g65
g51
NtRp3191
(dp3192
g54
(dp3193
sg63
g2766
sg56
(lp3194
g49
(g70
g51
NtRp3195
(dp3196
g54
(dp3197
g74
g75
ssg63
g3191
sg56
(lp3198
S'wsgi.file_wrapper'
p3199
asbag49
(g70
g51
NtRp3200
(dp3201
g54
(dp3202
g81
g82
ssg63
g3191
sg56
(lp3203
S':'
asbag49
(g70
g51
NtRp3204
(dp3205
g54
(dp3206
sg63
g3191
sg56
(lp3207
g49
(g50
g51
NtRp3208
(dp3209
g54
(dp3210
g62
I3
ssg63
g3204
sg56
(lp3211
S'<class wsgiref.util.FileWrapper at 0x452d060>'
p3212
asbasbasbag49
(g65
g51
NtRp3213
(dp3214
g54
(dp3215
sg63
g2766
sg56
(lp3216
g49
(g70
g51
NtRp3217
(dp3218
g54
(dp3219
g74
g75
ssg63
g3213
sg56
(lp3220
S'wsgi.input'
p3221
asbag49
(g70
g51
NtRp3222
(dp3223
g54
(dp3224
g81
g82
ssg63
g3213
sg56
(lp3225
S':'
asbag49
(g70
g51
NtRp3226
(dp3227
g54
(dp3228
sg63
g3213
sg56
(lp3229
g49
(g50
g51
NtRp3230
(dp3231
g54
(dp3232
g62
I3
ssg63
g3226
sg56
(lp3233
S'<cStringIO.StringO object at 0x8b0b320>'
p3234
asbasbasbag49
(g65
g51
NtRp3235
(dp3236
g54
(dp3237
sg63
g2766
sg56
(lp3238
g49
(g70
g51
NtRp3239
(dp3240
g54
(dp3241
g74
g75
ssg63
g3235
sg56
(lp3242
S'wsgi.multiprocess'
p3243
asbag49
(g70
g51
NtRp3244
(dp3245
g54
(dp3246
g81
g82
ssg63
g3235
sg56
(lp3247
S':'
asbag49
(g70
g51
NtRp3248
(dp3249
g54
(dp3250
sg63
g3235
sg56
(lp3251
g49
(g50
g51
NtRp3252
(dp3253
g54
(dp3254
g62
I3
ssg63
g3248
sg56
(lp3255
g92
asbasbasbag49
(g65
g51
NtRp3256
(dp3257
g54
(dp3258
sg63
g2766
sg56
(lp3259
g49
(g70
g51
NtRp3260
(dp3261
g54
(dp3262
g74
g75
ssg63
g3256
sg56
(lp3263
S'wsgi.multithread'
p3264
asbag49
(g70
g51
NtRp3265
(dp3266
g54
(dp3267
g81
g82
ssg63
g3256
sg56
(lp3268
S':'
asbag49
(g70
g51
NtRp3269
(dp3270
g54
(dp3271
sg63
g3256
sg56
(lp3272
g49
(g50
g51
NtRp3273
(dp3274
g54
(dp3275
g62
I3
ssg63
g3269
sg56
(lp3276
g916
asbasbasbag49
(g65
g51
NtRp3277
(dp3278
g54
(dp3279
sg63
g2766
sg56
(lp3280
g49
(g70
g51
NtRp3281
(dp3282
g54
(dp3283
g74
g75
ssg63
g3277
sg56
(lp3284
S'wsgi.run_once'
p3285
asbag49
(g70
g51
NtRp3286
(dp3287
g54
(dp3288
g81
g82
ssg63
g3277
sg56
(lp3289
S':'
asbag49
(g70
g51
NtRp3290
(dp3291
g54
(dp3292
sg63
g3277
sg56
(lp3293
g49
(g50
g51
NtRp3294
(dp3295
g54
(dp3296
g62
I3
ssg63
g3290
sg56
(lp3297
g92
asbasbasbag49
(g65
g51
NtRp3298
(dp3299
g54
(dp3300
sg63
g2766
sg56
(lp3301
g49
(g70
g51
NtRp3302
(dp3303
g54
(dp3304
g74
g75
ssg63
g3298
sg56
(lp3305
S'wsgi.url_scheme'
p3306
asbag49
(g70
g51
NtRp3307
(dp3308
g54
(dp3309
g81
g82
ssg63
g3298
sg56
(lp3310
S':'
asbag49
(g70
g51
NtRp3311
(dp3312
g54
(dp3313
sg63
g3298
sg56
(lp3314
g49
(g50
g51
NtRp3315
(dp3316
g54
(dp3317
g62
I3
ssg63
g3311
sg56
(lp3318
g1745
asbasbasbag49
(g65
g51
NtRp3319
(dp3320
g54
(dp3321
sg63
g2766
sg56
(lp3322
g49
(g70
g51
NtRp3323
(dp3324
g54
(dp3325
g74
g75
ssg63
g3319
sg56
(lp3326
S'wsgi.version'
p3327
asbag49
(g70
g51
NtRp3328
(dp3329
g54
(dp3330
g81
g82
ssg63
g3319
sg56
(lp3331
S':'
asbag49
(g70
g51
NtRp3332
(dp3333
g54
(dp3334
sg63
g3319
sg56
(lp3335
g49
(g50
g51
NtRp3336
(dp3337
g54
(dp3338
g62
I3
ssg63
g3332
sg56
(lp3339
S'1'
asbasbasbasbasbasbasbasbasbasbasbasbasbsS'frames'
p3340
(lp3341
(dp3342
S'file'
p3343
S'/home/mdipierro/web2py/gluon/restricted.py'
p3344
sS'dump'
p3345
(dp3346
sS'lnum'
p3347
I212
sS'lines'
p3348
(dp3349
sS'call'
p3350
S"(code='# -*- coding: utf-8 -*-\\n# this file is released ...nse._vars=response._caller(mobile_user_register)\\n', environment={'A': <class 'gluon.html.A'>, 'Auth': <class 'gluon.tools.Auth'>, 'B': <class 'gluon.html.B'>, 'BEAUTIFY': <class 'gluon.html.BEAUTIFY'>, 'BODY': <class 'gluon.html.BODY'>, 'BR': <class 'gluon.html.BR'>, 'BUTTON': <class 'gluon.html.BUTTON'>, 'CAT': <class 'gluon.html.CAT'>, 'CENTER': <class 'gluon.html.CENTER'>, 'CLEANUP': <class 'gluon.validators.CLEANUP'>, ...}, layer='/Applications/web2py.app/Contents/Resources/applications/MR/controllers/default.py')"
p3351
sS'func'
p3352
S'restricted'
p3353
sa(dp3354
g3343
S'/Applications/web2py.app/Contents/Resources/applications/MR/controllers/default.py'
p3355
sg3345
(dp3356
sg3347
I93
sg3348
(dp3357
I82
S'    http://..../[app]/default/data/update/[table]/[id]'
p3358
sI83
S'    http://..../[app]/default/data/delete/[table]/[id]'
p3359
sI84
S'    http://..../[app]/default/data/select/[table]'
p3360
sI85
S'    http://..../[app]/default/data/search/[table]'
p3361
sI86
S'    but URLs must be signed, i.e. linked with'
p3362
sI87
S"      A('table',_href=URL('data/tables',user_signature=True))"
p3363
sI88
S'    or with the signed load operator'
p3364
sI89
S"      LOAD('default','data.load',args='tables',ajax=True,user_signature=True)"
p3365
sI90
S'    """'
p3366
sI91
S'    return dict(form=crud())'
p3367
ssg3350
S'()'
p3368
sg3352
S'<module>'
p3369
sa(dp3370
g3343
S'/home/mdipierro/web2py/gluon/globals.py'
p3371
sg3345
(dp3372
sg3347
I193
sg3348
(dp3373
sg3350
S'(f=<function mobile_user_register at 0x9267270>)'
p3374
sg3352
S'<lambda>'
p3375
sa(dp3376
g3343
S'/Applications/web2py.app/Contents/Resources/applications/MR/controllers/default.py'
p3377
sg3345
(dp3378
sg3347
I58
sg3348
(dp3379
I53
S'    password = request.vars.password'
p3380
sI54
S'    firstname = request.vars.firstname'
p3381
sI55
S'    lastname = request.vars.lastname'
p3382
sI56
S'    country = request.vars.country'
p3383
sI57
S'    rows = db(db.mobile_user.email==email).select()'
p3384
sI58
S'    if count(rows) != 0:'
p3385
sI59
S"        return {'status': 'exist'}"
p3386
sI60
S''
sI61
S'    result = md5_hash(password)'
p3387
sI62
S'    ret = db.mobile_user.validate_and_insert(email=email, password=password, first_name=firstname, last_name=lastname, md5=result, country=country)'
p3388
ssg3350
S'()'
p3389
sg3352
S'mobile_user_register'
p3390
sasS'pyver'
p3391
S'Python 2.5.1: /Applications/web2py.app/Contents/MacOS/python'
p3392
sS'session'
p3393
g49
(g50
g51
NtRp3394
(dp3395
g54
(dp3396
sg56
(lp3397
g49
(g58
g51
NtRp3398
(dp3399
g54
(dp3400
g62
I5
ssg63
Nsg56
(lp3401
g49
(g65
g51
NtRp3402
(dp3403
g54
(dp3404
sg63
g3398
sg56
(lp3405
g49
(g70
g51
NtRp3406
(dp3407
g54
(dp3408
g74
g75
ssg63
g3402
sg56
(lp3409
S'last_orderby'
p3410
asbag49
(g70
g51
NtRp3411
(dp3412
g54
(dp3413
g81
g82
ssg63
g3402
sg56
(lp3414
S':'
asbag49
(g70
g51
NtRp3415
(dp3416
g54
(dp3417
sg63
g3402
sg56
(lp3418
g49
(g50
g51
NtRp3419
(dp3420
g54
(dp3421
g62
I5
ssg63
g3415
sg56
(lp3422
S'None'
p3423
asbasbasbag49
(g65
g51
NtRp3424
(dp3425
g54
(dp3426
sg63
g3398
sg56
(lp3427
g49
(g70
g51
NtRp3428
(dp3429
g54
(dp3430
g74
g75
ssg63
g3424
sg56
(lp3431
S'last_query'
p3432
asbag49
(g70
g51
NtRp3433
(dp3434
g54
(dp3435
g81
g82
ssg63
g3424
sg56
(lp3436
S':'
asbag49
(g70
g51
NtRp3437
(dp3438
g54
(dp3439
sg63
g3424
sg56
(lp3440
g49
(g50
g51
NtRp3441
(dp3442
g54
(dp3443
g62
I5
ssg63
g3437
sg56
(lp3444
S'db.auth_user.id>0'
p3445
asbasbasbasbasbsS'etype'
p3446
S"<type 'exceptions.NameError'>"
p3447
sS'date'
p3448
S'Mon Apr 15 17:35:53 2013'
p3449
sS'response'
p3450
g49
(g50
g51
NtRp3451
(dp3452
g54
(dp3453
sg56
(lp3454
g49
(g58
g51
NtRp3455
(dp3456
g54
(dp3457
g62
I5
ssg63
Nsg56
(lp3458
g49
(g65
g51
NtRp3459
(dp3460
g54
(dp3461
sg63
g3455
sg56
(lp3462
g49
(g70
g51
NtRp3463
(dp3464
g54
(dp3465
g74
g75
ssg63
g3459
sg56
(lp3466
g147
asbag49
(g70
g51
NtRp3467
(dp3468
g54
(dp3469
g81
g82
ssg63
g3459
sg56
(lp3470
S':'
asbag49
(g70
g51
NtRp3471
(dp3472
g54
(dp3473
sg63
g3459
sg56
(lp3474
g49
(g50
g51
NtRp3475
(dp3476
g54
(dp3477
g62
I5
ssg63
g3471
sg56
(lp3478
S'<cStringIO.StringO object at 0x8b0b380>'
p3479
asbasbasbag49
(g65
g51
NtRp3480
(dp3481
g54
(dp3482
sg63
g3455
sg56
(lp3483
g49
(g70
g51
NtRp3484
(dp3485
g54
(dp3486
g74
g75
ssg63
g3480
sg56
(lp3487
g235
asbag49
(g70
g51
NtRp3488
(dp3489
g54
(dp3490
g81
g82
ssg63
g3480
sg56
(lp3491
S':'
asbag49
(g70
g51
NtRp3492
(dp3493
g54
(dp3494
sg63
g3480
sg56
(lp3495
g49
(g50
g51
NtRp3496
(dp3497
g54
(dp3498
g62
I5
ssg63
g3492
sg56
(lp3499
g49
(g58
g51
NtRp3500
(dp3501
g54
(dp3502
g62
I4
ssg63
Nsg56
(lp3503
g49
(g65
g51
NtRp3504
(dp3505
g54
(dp3506
sg63
g3500
sg56
(lp3507
g49
(g70
g51
NtRp3508
(dp3509
g54
(dp3510
g74
g75
ssg63
g3504
sg56
(lp3511
S'session_id_mr'
p3512
asbag49
(g70
g51
NtRp3513
(dp3514
g54
(dp3515
g81
g82
ssg63
g3504
sg56
(lp3516
S':'
asbag49
(g70
g51
NtRp3517
(dp3518
g54
(dp3519
sg63
g3504
sg56
(lp3520
g49
(g50
g51
NtRp3521
(dp3522
g54
(dp3523
g62
I4
ssg63
g3517
sg56
(lp3524
g446
ag49
(g58
g51
NtRp3525
(dp3526
g54
(dp3527
g62
I3
ssg63
Nsg56
(lp3528
g49
(g65
g51
NtRp3529
(dp3530
g54
(dp3531
sg63
g3525
sg56
(lp3532
g49
(g70
g51
NtRp3533
(dp3534
g54
(dp3535
g74
g75
ssg63
g3529
sg56
(lp3536
g286
asbag49
(g70
g51
NtRp3537
(dp3538
g54
(dp3539
g81
g82
ssg63
g3529
sg56
(lp3540
S':'
asbag49
(g70
g51
NtRp3541
(dp3542
g54
(dp3543
sg63
g3529
sg56
(lp3544
g49
(g50
g51
NtRp3545
(dp3546
g54
(dp3547
g62
I3
ssg63
g3541
sg56
(lp3548
S''
asbasbasbag49
(g65
g51
NtRp3549
(dp3550
g54
(dp3551
sg63
g3525
sg56
(lp3552
g49
(g70
g51
NtRp3553
(dp3554
g54
(dp3555
g74
g75
ssg63
g3549
sg56
(lp3556
g307
asbag49
(g70
g51
NtRp3557
(dp3558
g54
(dp3559
g81
g82
ssg63
g3549
sg56
(lp3560
S':'
asbag49
(g70
g51
NtRp3561
(dp3562
g54
(dp3563
sg63
g3549
sg56
(lp3564
g49
(g50
g51
NtRp3565
(dp3566
g54
(dp3567
g62
I3
ssg63
g3561
sg56
(lp3568
S''
asbasbasbag49
(g65
g51
NtRp3569
(dp3570
g54
(dp3571
sg63
g3525
sg56
(lp3572
g49
(g70
g51
NtRp3573
(dp3574
g54
(dp3575
g74
g75
ssg63
g3569
sg56
(lp3576
g328
asbag49
(g70
g51
NtRp3577
(dp3578
g54
(dp3579
g81
g82
ssg63
g3569
sg56
(lp3580
S':'
asbag49
(g70
g51
NtRp3581
(dp3582
g54
(dp3583
sg63
g3569
sg56
(lp3584
g49
(g50
g51
NtRp3585
(dp3586
g54
(dp3587
g62
I3
ssg63
g3581
sg56
(lp3588
S''
asbasbasbag49
(g65
g51
NtRp3589
(dp3590
g54
(dp3591
sg63
g3525
sg56
(lp3592
g49
(g70
g51
NtRp3593
(dp3594
g54
(dp3595
g74
g75
ssg63
g3589
sg56
(lp3596
g349
asbag49
(g70
g51
NtRp3597
(dp3598
g54
(dp3599
g81
g82
ssg63
g3589
sg56
(lp3600
S':'
asbag49
(g70
g51
NtRp3601
(dp3602
g54
(dp3603
sg63
g3589
sg56
(lp3604
g49
(g50
g51
NtRp3605
(dp3606
g54
(dp3607
g62
I3
ssg63
g3601
sg56
(lp3608
S''
asbasbasbag49
(g65
g51
NtRp3609
(dp3610
g54
(dp3611
sg63
g3525
sg56
(lp3612
g49
(g70
g51
NtRp3613
(dp3614
g54
(dp3615
g74
g75
ssg63
g3609
sg56
(lp3616
g370
asbag49
(g70
g51
NtRp3617
(dp3618
g54
(dp3619
g81
g82
ssg63
g3609
sg56
(lp3620
S':'
asbag49
(g70
g51
NtRp3621
(dp3622
g54
(dp3623
sg63
g3609
sg56
(lp3624
g49
(g50
g51
NtRp3625
(dp3626
g54
(dp3627
g62
I3
ssg63
g3621
sg56
(lp3628
S'/'
asbasbasbag49
(g65
g51
NtRp3629
(dp3630
g54
(dp3631
sg63
g3525
sg56
(lp3632
g49
(g70
g51
NtRp3633
(dp3634
g54
(dp3635
g74
g75
ssg63
g3629
sg56
(lp3636
g391
asbag49
(g70
g51
NtRp3637
(dp3638
g54
(dp3639
g81
g82
ssg63
g3629
sg56
(lp3640
S':'
asbag49
(g70
g51
NtRp3641
(dp3642
g54
(dp3643
sg63
g3629
sg56
(lp3644
g49
(g50
g51
NtRp3645
(dp3646
g54
(dp3647
g62
I3
ssg63
g3641
sg56
(lp3648
S''
asbasbasbag49
(g65
g51
NtRp3649
(dp3650
g54
(dp3651
sg63
g3525
sg56
(lp3652
g49
(g70
g51
NtRp3653
(dp3654
g54
(dp3655
g74
g75
ssg63
g3649
sg56
(lp3656
g412
asbag49
(g70
g51
NtRp3657
(dp3658
g54
(dp3659
g81
g82
ssg63
g3649
sg56
(lp3660
S':'
asbag49
(g70
g51
NtRp3661
(dp3662
g54
(dp3663
sg63
g3649
sg56
(lp3664
g49
(g50
g51
NtRp3665
(dp3666
g54
(dp3667
g62
I3
ssg63
g3661
sg56
(lp3668
S''
asbasbasbasbasbasbasbasbasbasbasbag49
(g65
g51
NtRp3669
(dp3670
g54
(dp3671
sg63
g3455
sg56
(lp3672
g49
(g70
g51
NtRp3673
(dp3674
g54
(dp3675
g74
g75
ssg63
g3669
sg56
(lp3676
S'delimiters'
p3677
asbag49
(g70
g51
NtRp3678
(dp3679
g54
(dp3680
g81
g82
ssg63
g3669
sg56
(lp3681
S':'
asbag49
(g70
g51
NtRp3682
(dp3683
g54
(dp3684
sg63
g3669
sg56
(lp3685
g49
(g50
g51
NtRp3686
(dp3687
g54
(dp3688
g62
I5
ssg63
g3682
sg56
(lp3689
g49
(g58
g51
NtRp3690
(dp3691
g54
(dp3692
g62
I4
ssg63
Nsg56
(lp3693
g49
(g65
g51
NtRp3694
(dp3695
g54
(dp3696
sg63
g3690
sg56
(lp3697
g49
(g70
g51
NtRp3698
(dp3699
g54
(dp3700
sg63
g3694
sg56
(lp3701
g49
(g50
g51
NtRp3702
(dp3703
g54
(dp3704
g62
I4
ssg63
g3698
sg56
(lp3705
S'{{'
p3706
asbasbasbag49
(g65
g51
NtRp3707
(dp3708
g54
(dp3709
sg63
g3690
sg56
(lp3710
g49
(g70
g51
NtRp3711
(dp3712
g54
(dp3713
sg63
g3707
sg56
(lp3714
g49
(g50
g51
NtRp3715
(dp3716
g54
(dp3717
g62
I4
ssg63
g3711
sg56
(lp3718
S'}}'
p3719
asbasbasbasbasbasbasbag49
(g65
g51
NtRp3720
(dp3721
g54
(dp3722
sg63
g3455
sg56
(lp3723
g49
(g70
g51
NtRp3724
(dp3725
g54
(dp3726
g74
g75
ssg63
g3720
sg56
(lp3727
S'files'
p3728
asbag49
(g70
g51
NtRp3729
(dp3730
g54
(dp3731
g81
g82
ssg63
g3720
sg56
(lp3732
S':'
asbag49
(g70
g51
NtRp3733
(dp3734
g54
(dp3735
sg63
g3720
sg56
(lp3736
g49
(g50
g51
NtRp3737
(dp3738
g54
(dp3739
g62
I5
ssg63
g3733
sg56
(lp3740
g49
(g58
g51
NtRp3741
(dp3742
g54
(dp3743
g62
I4
ssg63
Nsg56
(lp3744
sbasbasbasbag49
(g65
g51
NtRp3745
(dp3746
g54
(dp3747
sg63
g3455
sg56
(lp3748
g49
(g70
g51
NtRp3749
(dp3750
g54
(dp3751
g74
g75
ssg63
g3745
sg56
(lp3752
S'flash'
p3753
asbag49
(g70
g51
NtRp3754
(dp3755
g54
(dp3756
g81
g82
ssg63
g3745
sg56
(lp3757
S':'
asbag49
(g70
g51
NtRp3758
(dp3759
g54
(dp3760
sg63
g3745
sg56
(lp3761
g49
(g50
g51
NtRp3762
(dp3763
g54
(dp3764
g62
I5
ssg63
g3758
sg56
(lp3765
S''
asbasbasbag49
(g65
g51
NtRp3766
(dp3767
g54
(dp3768
sg63
g3455
sg56
(lp3769
g49
(g70
g51
NtRp3770
(dp3771
g54
(dp3772
g74
g75
ssg63
g3766
sg56
(lp3773
S'generic_patterns'
p3774
asbag49
(g70
g51
NtRp3775
(dp3776
g54
(dp3777
g81
g82
ssg63
g3766
sg56
(lp3778
S':'
asbag49
(g70
g51
NtRp3779
(dp3780
g54
(dp3781
sg63
g3766
sg56
(lp3782
g49
(g50
g51
NtRp3783
(dp3784
g54
(dp3785
g62
I5
ssg63
g3779
sg56
(lp3786
g49
(g58
g51
NtRp3787
(dp3788
g54
(dp3789
g62
I4
ssg63
Nsg56
(lp3790
g49
(g65
g51
NtRp3791
(dp3792
g54
(dp3793
sg63
g3787
sg56
(lp3794
g49
(g70
g51
NtRp3795
(dp3796
g54
(dp3797
sg63
g3791
sg56
(lp3798
g49
(g50
g51
NtRp3799
(dp3800
g54
(dp3801
g62
I4
ssg63
g3795
sg56
(lp3802
S'*'
asbasbasbasbasbasbasbag49
(g65
g51
NtRp3803
(dp3804
g54
(dp3805
sg63
g3455
sg56
(lp3806
g49
(g70
g51
NtRp3807
(dp3808
g54
(dp3809
g74
g75
ssg63
g3803
sg56
(lp3810
S'google_analytics_id'
p3811
asbag49
(g70
g51
NtRp3812
(dp3813
g54
(dp3814
g81
g82
ssg63
g3803
sg56
(lp3815
S':'
asbag49
(g70
g51
NtRp3816
(dp3817
g54
(dp3818
sg63
g3803
sg56
(lp3819
g49
(g50
g51
NtRp3820
(dp3821
g54
(dp3822
g62
I5
ssg63
g3816
sg56
(lp3823
S'None'
p3824
asbasbasbag49
(g65
g51
NtRp3825
(dp3826
g54
(dp3827
sg63
g3455
sg56
(lp3828
g49
(g70
g51
NtRp3829
(dp3830
g54
(dp3831
g74
g75
ssg63
g3825
sg56
(lp3832
S'headers'
p3833
asbag49
(g70
g51
NtRp3834
(dp3835
g54
(dp3836
g81
g82
ssg63
g3825
sg56
(lp3837
S':'
asbag49
(g70
g51
NtRp3838
(dp3839
g54
(dp3840
sg63
g3825
sg56
(lp3841
g49
(g50
g51
NtRp3842
(dp3843
g54
(dp3844
g62
I5
ssg63
g3838
sg56
(lp3845
g49
(g58
g51
NtRp3846
(dp3847
g54
(dp3848
g62
I4
ssg63
Nsg56
(lp3849
g49
(g65
g51
NtRp3850
(dp3851
g54
(dp3852
sg63
g3846
sg56
(lp3853
g49
(g70
g51
NtRp3854
(dp3855
g54
(dp3856
g74
g75
ssg63
g3850
sg56
(lp3857
S'X-Powered-By'
p3858
asbag49
(g70
g51
NtRp3859
(dp3860
g54
(dp3861
g81
g82
ssg63
g3850
sg56
(lp3862
S':'
asbag49
(g70
g51
NtRp3863
(dp3864
g54
(dp3865
sg63
g3850
sg56
(lp3866
g49
(g50
g51
NtRp3867
(dp3868
g54
(dp3869
g62
I4
ssg63
g3863
sg56
(lp3870
S'web2py'
p3871
asbasbasbasbasbasbasbag49
(g65
g51
NtRp3872
(dp3873
g54
(dp3874
sg63
g3455
sg56
(lp3875
g49
(g70
g51
NtRp3876
(dp3877
g54
(dp3878
g74
g75
ssg63
g3872
sg56
(lp3879
S'logo'
p3880
asbag49
(g70
g51
NtRp3881
(dp3882
g54
(dp3883
g81
g82
ssg63
g3872
sg56
(lp3884
S':'
asbag49
(g70
g51
NtRp3885
(dp3886
g54
(dp3887
sg63
g3872
sg56
(lp3888
g49
(g50
g51
NtRp3889
(dp3890
g54
(dp3891
g62
I5
ssg63
g3885
sg56
(lp3892
g49
(cgluon.html
A
p3893
g51
NtRp3894
(dp3895
g54
(dp3896
S'_class'
p3897
S'brand'
p3898
sS'_href'
p3899
S'http://www.web2py.com/'
p3900
ssg63
Nsg56
(lp3901
g49
(cgluon.html
B
p3902
g51
NtRp3903
(dp3904
g54
(dp3905
sg63
g3894
sg56
(lp3906
S'web'
p3907
ag49
(cgluon.html
SPAN
p3908
g51
NtRp3909
(dp3910
g54
(dp3911
sg63
g3903
sg56
(lp3912
I2
asbaS'py'
p3913
asbacgluon.html
XML_unpickle
p3914
(S's\r\x00\x00\x00&trade;&nbsp;'
tRp3915
asbasbasbasbag49
(g65
g51
NtRp3916
(dp3917
g54
(dp3918
sg63
g3455
sg56
(lp3919
g49
(g70
g51
NtRp3920
(dp3921
g54
(dp3922
g74
g75
ssg63
g3916
sg56
(lp3923
S'menu'
p3924
asbag49
(g70
g51
NtRp3925
(dp3926
g54
(dp3927
g81
g82
ssg63
g3916
sg56
(lp3928
S':'
asbag49
(g70
g51
NtRp3929
(dp3930
g54
(dp3931
sg63
g3916
sg56
(lp3932
g49
(g50
g51
NtRp3933
(dp3934
g54
(dp3935
g62
I5
ssg63
g3929
sg56
(lp3936
g49
(g58
g51
NtRp3937
(dp3938
g54
(dp3939
g62
I4
ssg63
Nsg56
(lp3940
g49
(g65
g51
NtRp3941
(dp3942
g54
(dp3943
sg63
g3937
sg56
(lp3944
g49
(g70
g51
NtRp3945
(dp3946
g54
(dp3947
sg63
g3941
sg56
(lp3948
g49
(g50
g51
NtRp3949
(dp3950
g54
(dp3951
g62
I4
ssg63
g3945
sg56
(lp3952
g49
(g58
g51
NtRp3953
(dp3954
g54
(dp3955
g62
I3
ssg63
Nsg56
(lp3956
g49
(g65
g51
NtRp3957
(dp3958
g54
(dp3959
sg63
g3953
sg56
(lp3960
g49
(g70
g51
NtRp3961
(dp3962
g54
(dp3963
sg63
g3957
sg56
(lp3964
g49
(g50
g51
NtRp3965
(dp3966
g54
(dp3967
g62
I3
ssg63
g3961
sg56
(lp3968
cgluon.languages
lazyT_unpickle
p3969
(S't\x04\x00\x00\x00Home'
tRp3970
asbasbasbag49
(g65
g51
NtRp3971
(dp3972
g54
(dp3973
sg63
g3953
sg56
(lp3974
g49
(g70
g51
NtRp3975
(dp3976
g54
(dp3977
sg63
g3971
sg56
(lp3978
g49
(g50
g51
NtRp3979
(dp3980
g54
(dp3981
g62
I3
ssg63
g3975
sg56
(lp3982
g92
asbasbasbag49
(g65
g51
NtRp3983
(dp3984
g54
(dp3985
sg63
g3953
sg56
(lp3986
g49
(g70
g51
NtRp3987
(dp3988
g54
(dp3989
sg63
g3983
sg56
(lp3990
g49
(g50
g51
NtRp3991
(dp3992
g54
(dp3993
g62
I3
ssg63
g3987
sg56
(lp3994
S'/MR/default/index'
p3995
asbasbasbag49
(g65
g51
NtRp3996
(dp3997
g54
(dp3998
sg63
g3953
sg56
(lp3999
g49
(g70
g51
NtRp4000
(dp4001
g54
(dp4002
sg63
g3996
sg56
(lp4003
g49
(g50
g51
NtRp4004
(dp4005
g54
(dp4006
g62
I3
ssg63
g4000
sg56
(lp4007
g49
(g58
g51
NtRp4008
(dp4009
g54
(dp4010
g62
I2
ssg63
Nsg56
(lp4011
sbasbasbasbasbasbasbasbag49
(g65
g51
NtRp4012
(dp4013
g54
(dp4014
sg63
g3937
sg56
(lp4015
g49
(g70
g51
NtRp4016
(dp4017
g54
(dp4018
sg63
g4012
sg56
(lp4019
g49
(g50
g51
NtRp4020
(dp4021
g54
(dp4022
g62
I4
ssg63
g4016
sg56
(lp4023
g49
(g58
g51
NtRp4024
(dp4025
g54
(dp4026
g62
I3
ssg63
Nsg56
(lp4027
g49
(g65
g51
NtRp4028
(dp4029
g54
(dp4030
sg63
g4024
sg56
(lp4031
g49
(g70
g51
NtRp4032
(dp4033
g54
(dp4034
sg63
g4028
sg56
(lp4035
g49
(g50
g51
NtRp4036
(dp4037
g54
(dp4038
g62
I3
ssg63
g4032
sg56
(lp4039
g49
(g3908
g51
NtRp4040
(dp4041
g54
(dp4042
g3897
S'highlighted'
p4043
ssg63
Nsg56
(lp4044
g3871
asbasbasbasbag49
(g65
g51
NtRp4045
(dp4046
g54
(dp4047
sg63
g4024
sg56
(lp4048
g49
(g70
g51
NtRp4049
(dp4050
g54
(dp4051
sg63
g4045
sg56
(lp4052
g49
(g50
g51
NtRp4053
(dp4054
g54
(dp4055
g62
I3
ssg63
g4049
sg56
(lp4056
g92
asbasbasbag49
(g65
g51
NtRp4057
(dp4058
g54
(dp4059
sg63
g4024
sg56
(lp4060
g49
(g70
g51
NtRp4061
(dp4062
g54
(dp4063
sg63
g4057
sg56
(lp4064
g49
(g50
g51
NtRp4065
(dp4066
g54
(dp4067
g62
I3
ssg63
g4061
sg56
(lp4068
S'http://web2py.com'
p4069
asbasbasbag49
(g65
g51
NtRp4070
(dp4071
g54
(dp4072
sg63
g4024
sg56
(lp4073
g49
(g70
g51
NtRp4074
(dp4075
g54
(dp4076
sg63
g4070
sg56
(lp4077
g49
(g50
g51
NtRp4078
(dp4079
g54
(dp4080
g62
I3
ssg63
g4074
sg56
(lp4081
g49
(g58
g51
NtRp4082
(dp4083
g54
(dp4084
g62
I2
ssg63
Nsg56
(lp4085
g49
(g65
g51
NtRp4086
(dp4087
g54
(dp4088
sg63
g4082
sg56
(lp4089
g49
(g70
g51
NtRp4090
(dp4091
g54
(dp4092
sg63
g4086
sg56
(lp4093
g49
(g50
g51
NtRp4094
(dp4095
g54
(dp4096
g62
I2
ssg63
g4090
sg56
(lp4097
g49
(g58
g51
NtRp4098
(dp4099
g54
(dp4100
g62
I1
ssg63
Nsg56
(lp4101
g49
(g65
g51
NtRp4102
(dp4103
g54
(dp4104
sg63
g4098
sg56
(lp4105
g49
(g70
g51
NtRp4106
(dp4107
g54
(dp4108
sg63
g4102
sg56
(lp4109
g49
(g50
g51
NtRp4110
(dp4111
g54
(dp4112
g62
I1
ssg63
g4106
sg56
(lp4113
g3969
(S's\x08\x00\x00\x00My Sites'
tRp4114
asbasbasbag49
(g65
g51
NtRp4115
(dp4116
g54
(dp4117
sg63
g4098
sg56
(lp4118
g49
(g70
g51
NtRp4119
(dp4120
g54
(dp4121
sg63
g4115
sg56
(lp4122
g49
(g50
g51
NtRp4123
(dp4124
g54
(dp4125
g62
I1
ssg63
g4119
sg56
(lp4126
I00
asbasbasbag49
(g65
g51
NtRp4127
(dp4128
g54
(dp4129
sg63
g4098
sg56
(lp4130
g49
(g70
g51
NtRp4131
(dp4132
g54
(dp4133
sg63
g4127
sg56
(lp4134
g49
(g50
g51
NtRp4135
(dp4136
g54
(dp4137
g62
I1
ssg63
g4131
sg56
(lp4138
S'/admin/default/site'
p4139
asbasbasbasbasbasbasbag49
(g65
g51
NtRp4140
(dp4141
g54
(dp4142
sg63
g4082
sg56
(lp4143
g49
(g70
g51
NtRp4144
(dp4145
g54
(dp4146
sg63
g4140
sg56
(lp4147
g49
(g50
g51
NtRp4148
(dp4149
g54
(dp4150
g62
I2
ssg63
g4144
sg56
(lp4151
g49
(g58
g51
NtRp4152
(dp4153
g54
(dp4154
g62
I1
ssg63
Nsg56
(lp4155
g49
(g65
g51
NtRp4156
(dp4157
g54
(dp4158
sg63
g4152
sg56
(lp4159
g49
(g70
g51
NtRp4160
(dp4161
g54
(dp4162
sg63
g4156
sg56
(lp4163
g49
(g50
g51
NtRp4164
(dp4165
g54
(dp4166
g62
I1
ssg63
g4160
sg56
(lp4167
g3969
(S's\x08\x00\x00\x00This App'
tRp4168
asbasbasbag49
(g65
g51
NtRp4169
(dp4170
g54
(dp4171
sg63
g4152
sg56
(lp4172
g49
(g70
g51
NtRp4173
(dp4174
g54
(dp4175
sg63
g4169
sg56
(lp4176
g49
(g50
g51
NtRp4177
(dp4178
g54
(dp4179
g62
I1
ssg63
g4173
sg56
(lp4180
I00
asbasbasbag49
(g65
g51
NtRp4181
(dp4182
g54
(dp4183
sg63
g4152
sg56
(lp4184
g49
(g70
g51
NtRp4185
(dp4186
g54
(dp4187
sg63
g4181
sg56
(lp4188
g49
(g50
g51
NtRp4189
(dp4190
g54
(dp4191
g62
I1
ssg63
g4185
sg56
(lp4192
S'/admin/default/design/MR'
p4193
asbasbasbag49
(g65
g51
NtRp4194
(dp4195
g54
(dp4196
sg63
g4152
sg56
(lp4197
g49
(g70
g51
NtRp4198
(dp4199
g54
(dp4200
sg63
g4194
sg56
(lp4201
g49
(g50
g51
NtRp4202
(dp4203
g54
(dp4204
g62
I1
ssg63
g4198
sg56
(lp4205
(lp4206
(g3969
(S's\x06\x00\x00\x00\xe6\x8e\xa7\xe4\xbb\xb6'
tRp4207
I00
S'/admin/default/edit/MR/controllers/default.py'
tp4208
a(g3969
(S's\x06\x00\x00\x00\xe8\xa6\x96\xe5\x9c\x96'
tRp4209
I00
S'/admin/default/edit/MR/views/default/mobile_user_register.html'
tp4210
a(g3969
(S's\x0c\x00\x00\x00\xe7\xb6\xb2\xe9\xa0\x81\xe9\x85\x8d\xe7\xbd\xae'
tRp4211
I00
S'/admin/default/edit/MR/views/layout.html'
tp4212
a(g3969
(S's\x0f\x00\x00\x00\xe7\xb6\xb2\xe9\xa0\x81\xe9\xa2\xa8\xe6\xa0\xbc\xe6\xaa\x94'
tRp4213
I00
S'/admin/default/edit/MR/static/css/web2py.css'
tp4214
a(g3969
(S's\x0f\x00\x00\x00\xe8\xb3\x87\xe6\x96\x99\xe5\xba\xab\xe6\xa8\xa1\xe7\xb5\x84'
tRp4215
I00
S'/admin/default/edit/MR/models/db.py'
tp4216
a(g3969
(S's\x12\x00\x00\x00\xe9\x81\xb8\xe5\x96\xae\xe6\xa8\xa1\xe7\xb5\x84(menu)'
tRp4217
I00
S'/admin/default/edit/MR/models/menu.py'
tp4218
a(g3969
(S's\t\x00\x00\x00\xe8\xb3\x87\xe6\x96\x99\xe5\xba\xab'
tRp4219
I00
S'/MR/appadmin/index'
tp4220
a(g3969
(S't\x06\x00\x00\x00Errors'
tRp4221
I00
S'/admin/default/errors/MR'
tp4222
a(g3969
(S's\x06\x00\x00\x00\xe9\x97\x9c\xe6\x96\xbc'
tRp4223
I00
S'/admin/default/about/MR'
tp4224
aasbasbasbasbasbasbasbag49
(g65
g51
NtRp4225
(dp4226
g54
(dp4227
sg63
g4082
sg56
(lp4228
g49
(g70
g51
NtRp4229
(dp4230
g54
(dp4231
sg63
g4225
sg56
(lp4232
g49
(g50
g51
NtRp4233
(dp4234
g54
(dp4235
g62
I2
ssg63
g4229
sg56
(lp4236
g49
(g58
g51
NtRp4237
(dp4238
g54
(dp4239
g62
I1
ssg63
Nsg56
(lp4240
g49
(g65
g51
NtRp4241
(dp4242
g54
(dp4243
sg63
g4237
sg56
(lp4244
g49
(g70
g51
NtRp4245
(dp4246
g54
(dp4247
sg63
g4241
sg56
(lp4248
g49
(g50
g51
NtRp4249
(dp4250
g54
(dp4251
g62
I1
ssg63
g4245
sg56
(lp4252
S'web2py.com'
p4253
asbasbasbag49
(g65
g51
NtRp4254
(dp4255
g54
(dp4256
sg63
g4237
sg56
(lp4257
g49
(g70
g51
NtRp4258
(dp4259
g54
(dp4260
sg63
g4254
sg56
(lp4261
g49
(g50
g51
NtRp4262
(dp4263
g54
(dp4264
g62
I1
ssg63
g4258
sg56
(lp4265
I00
asbasbasbag49
(g65
g51
NtRp4266
(dp4267
g54
(dp4268
sg63
g4237
sg56
(lp4269
g49
(g70
g51
NtRp4270
(dp4271
g54
(dp4272
sg63
g4266
sg56
(lp4273
g49
(g50
g51
NtRp4274
(dp4275
g54
(dp4276
g62
I1
ssg63
g4270
sg56
(lp4277
S'http://www.web2py.com'
p4278
asbasbasbag49
(g65
g51
NtRp4279
(dp4280
g54
(dp4281
sg63
g4237
sg56
(lp4282
g49
(g70
g51
NtRp4283
(dp4284
g54
(dp4285
sg63
g4279
sg56
(lp4286
g49
(g50
g51
NtRp4287
(dp4288
g54
(dp4289
g62
I1
ssg63
g4283
sg56
(lp4290
(lp4291
(g3969
(S't\x08\x00\x00\x00Download'
tRp4292
I00
S'http://www.web2py.com/examples/default/download'
p4293
tp4294
a(g3969
(S't\x07\x00\x00\x00Support'
tRp4295
I00
S'http://www.web2py.com/examples/default/support'
p4296
tp4297
a(g3969
(S't\x04\x00\x00\x00Demo'
tRp4298
I00
S'http://web2py.com/demo_admin'
p4299
tp4300
a(g3969
(S's\x0e\x00\x00\x00Quick Examples'
tRp4301
I00
S'http://web2py.com/examples/default/examples'
p4302
tp4303
a(g3969
(S't\x03\x00\x00\x00FAQ'
tRp4304
I00
S'http://web2py.com/AlterEgo'
p4305
tp4306
a(g3969
(S't\x06\x00\x00\x00Videos'
tRp4307
I00
S'http://www.web2py.com/examples/default/videos/'
p4308
tp4309
a(g3969
(S's\x11\x00\x00\x00Free Applications'
tRp4310
I00
S'http://web2py.com/appliances'
p4311
tp4312
a(g3969
(S't\x07\x00\x00\x00Plugins'
tRp4313
I00
S'http://web2py.com/plugins'
p4314
tp4315
a(g3969
(S't\x07\x00\x00\x00Layouts'
tRp4316
I00
S'http://web2py.com/layouts'
p4317
tp4318
a(g3969
(S't\x07\x00\x00\x00Recipes'
tRp4319
I00
S'http://web2pyslices.com/'
p4320
tp4321
a(g3969
(S't\x08\x00\x00\x00Semantic'
tRp4322
I00
S'http://web2py.com/semantic'
p4323
tp4324
aasbasbasbasbasbasbasbag49
(g65
g51
NtRp4325
(dp4326
g54
(dp4327
sg63
g4082
sg56
(lp4328
g49
(g70
g51
NtRp4329
(dp4330
g54
(dp4331
sg63
g4325
sg56
(lp4332
g49
(g50
g51
NtRp4333
(dp4334
g54
(dp4335
g62
I2
ssg63
g4329
sg56
(lp4336
g49
(g58
g51
NtRp4337
(dp4338
g54
(dp4339
g62
I1
ssg63
Nsg56
(lp4340
g49
(g65
g51
NtRp4341
(dp4342
g54
(dp4343
sg63
g4337
sg56
(lp4344
g49
(g70
g51
NtRp4345
(dp4346
g54
(dp4347
sg63
g4341
sg56
(lp4348
g49
(g50
g51
NtRp4349
(dp4350
g54
(dp4351
g62
I1
ssg63
g4345
sg56
(lp4352
g3969
(S't\r\x00\x00\x00Documentation'
tRp4353
asbasbasbag49
(g65
g51
NtRp4354
(dp4355
g54
(dp4356
sg63
g4337
sg56
(lp4357
g49
(g70
g51
NtRp4358
(dp4359
g54
(dp4360
sg63
g4354
sg56
(lp4361
g49
(g50
g51
NtRp4362
(dp4363
g54
(dp4364
g62
I1
ssg63
g4358
sg56
(lp4365
I00
asbasbasbag49
(g65
g51
NtRp4366
(dp4367
g54
(dp4368
sg63
g4337
sg56
(lp4369
g49
(g70
g51
NtRp4370
(dp4371
g54
(dp4372
sg63
g4366
sg56
(lp4373
g49
(g50
g51
NtRp4374
(dp4375
g54
(dp4376
g62
I1
ssg63
g4370
sg56
(lp4377
S'http://www.web2py.com/book'
p4378
asbasbasbag49
(g65
g51
NtRp4379
(dp4380
g54
(dp4381
sg63
g4337
sg56
(lp4382
g49
(g70
g51
NtRp4383
(dp4384
g54
(dp4385
sg63
g4379
sg56
(lp4386
g49
(g50
g51
NtRp4387
(dp4388
g54
(dp4389
g62
I1
ssg63
g4383
sg56
(lp4390
(lp4391
(g3969
(S't\x07\x00\x00\x00Preface'
tRp4392
I00
S'http://www.web2py.com/book/default/chapter/00'
p4393
tp4394
a(g3969
(S't\x0c\x00\x00\x00Introduction'
tRp4395
I00
S'http://www.web2py.com/book/default/chapter/01'
p4396
tp4397
a(g3969
(S't\x06\x00\x00\x00Python'
tRp4398
I00
S'http://www.web2py.com/book/default/chapter/02'
p4399
tp4400
a(g3969
(S't\x08\x00\x00\x00Overview'
tRp4401
I00
S'http://www.web2py.com/book/default/chapter/03'
p4402
tp4403
a(g3969
(S's\x08\x00\x00\x00The Core'
tRp4404
I00
S'http://www.web2py.com/book/default/chapter/04'
p4405
tp4406
a(g3969
(S's\t\x00\x00\x00The Views'
tRp4407
I00
S'http://www.web2py.com/book/default/chapter/05'
p4408
tp4409
a(g3969
(S's\t\x00\x00\x00\xe8\xb3\x87\xe6\x96\x99\xe5\xba\xab'
tRp4410
I00
S'http://www.web2py.com/book/default/chapter/06'
p4411
tp4412
a(g3969
(S's\x14\x00\x00\x00Forms and Validators'
tRp4413
I00
S'http://www.web2py.com/book/default/chapter/07'
p4414
tp4415
a(g3969
(S's\r\x00\x00\x00Email and SMS'
tRp4416
I00
S'http://www.web2py.com/book/default/chapter/08'
p4417
tp4418
a(g3969
(S's\x0e\x00\x00\x00Access Control'
tRp4419
I00
S'http://www.web2py.com/book/default/chapter/09'
p4420
tp4421
a(g3969
(S't\x08\x00\x00\x00Services'
tRp4422
I00
S'http://www.web2py.com/book/default/chapter/10'
p4423
tp4424
a(g3969
(S's\x0c\x00\x00\x00Ajax Recipes'
tRp4425
I00
S'http://www.web2py.com/book/default/chapter/11'
p4426
tp4427
a(g3969
(S's\x16\x00\x00\x00Components and Plugins'
tRp4428
I00
S'http://www.web2py.com/book/default/chapter/12'
p4429
tp4430
a(g3969
(S's\x12\x00\x00\x00Deployment Recipes'
tRp4431
I00
S'http://www.web2py.com/book/default/chapter/13'
p4432
tp4433
a(g3969
(S's\r\x00\x00\x00Other Recipes'
tRp4434
I00
S'http://www.web2py.com/book/default/chapter/14'
p4435
tp4436
a(g3969
(S's\r\x00\x00\x00Buy this book'
tRp4437
I00
S'http://stores.lulu.com/web2py'
p4438
tp4439
aasbasbasbasbasbasbasbag49
(g65
g51
NtRp4440
(dp4441
g54
(dp4442
sg63
g4082
sg56
(lp4443
g49
(g70
g51
NtRp4444
(dp4445
g54
(dp4446
sg63
g4440
sg56
(lp4447
g49
(g50
g51
NtRp4448
(dp4449
g54
(dp4450
g62
I2
ssg63
g4444
sg56
(lp4451
g49
(g58
g51
NtRp4452
(dp4453
g54
(dp4454
g62
I1
ssg63
Nsg56
(lp4455
g49
(g65
g51
NtRp4456
(dp4457
g54
(dp4458
sg63
g4452
sg56
(lp4459
g49
(g70
g51
NtRp4460
(dp4461
g54
(dp4462
sg63
g4456
sg56
(lp4463
g49
(g50
g51
NtRp4464
(dp4465
g54
(dp4466
g62
I1
ssg63
g4460
sg56
(lp4467
g3969
(S't\t\x00\x00\x00Community'
tRp4468
asbasbasbag49
(g65
g51
NtRp4469
(dp4470
g54
(dp4471
sg63
g4452
sg56
(lp4472
g49
(g70
g51
NtRp4473
(dp4474
g54
(dp4475
sg63
g4469
sg56
(lp4476
g49
(g50
g51
NtRp4477
(dp4478
g54
(dp4479
g62
I1
ssg63
g4473
sg56
(lp4480
I00
asbasbasbag49
(g65
g51
NtRp4481
(dp4482
g54
(dp4483
sg63
g4452
sg56
(lp4484
g49
(g70
g51
NtRp4485
(dp4486
g54
(dp4487
sg63
g4481
sg56
(lp4488
g49
(g50
g51
NtRp4489
(dp4490
g54
(dp4491
g62
I1
ssg63
g4485
sg56
(lp4492
Nasbasbasbag49
(g65
g51
NtRp4493
(dp4494
g54
(dp4495
sg63
g4452
sg56
(lp4496
g49
(g70
g51
NtRp4497
(dp4498
g54
(dp4499
sg63
g4493
sg56
(lp4500
g49
(g50
g51
NtRp4501
(dp4502
g54
(dp4503
g62
I1
ssg63
g4497
sg56
(lp4504
(lp4505
(g3969
(S't\x06\x00\x00\x00Groups'
tRp4506
I00
S'http://www.web2py.com/examples/default/usergroups'
p4507
tp4508
a(g3969
(S't\x07\x00\x00\x00Twitter'
tRp4509
I00
S'http://twitter.com/web2py'
p4510
tp4511
a(g3969
(S's\t\x00\x00\x00Live Chat'
tRp4512
I00
S'http://webchat.freenode.net/?channels=web2py'
p4513
tp4514
aasbasbasbasbasbasbasbag49
(g65
g51
NtRp4515
(dp4516
g54
(dp4517
sg63
g4082
sg56
(lp4518
g49
(g70
g51
NtRp4519
(dp4520
g54
(dp4521
sg63
g4515
sg56
(lp4522
g49
(g50
g51
NtRp4523
(dp4524
g54
(dp4525
g62
I2
ssg63
g4519
sg56
(lp4526
g49
(g58
g51
NtRp4527
(dp4528
g54
(dp4529
g62
I1
ssg63
Nsg56
(lp4530
g49
(g65
g51
NtRp4531
(dp4532
g54
(dp4533
sg63
g4527
sg56
(lp4534
g49
(g70
g51
NtRp4535
(dp4536
g54
(dp4537
sg63
g4531
sg56
(lp4538
g49
(g50
g51
NtRp4539
(dp4540
g54
(dp4541
g62
I1
ssg63
g4535
sg56
(lp4542
g3969
(S't\x07\x00\x00\x00Plugins'
tRp4543
asbasbasbag49
(g65
g51
NtRp4544
(dp4545
g54
(dp4546
sg63
g4527
sg56
(lp4547
g49
(g70
g51
NtRp4548
(dp4549
g54
(dp4550
sg63
g4544
sg56
(lp4551
g49
(g50
g51
NtRp4552
(dp4553
g54
(dp4554
g62
I1
ssg63
g4548
sg56
(lp4555
I00
asbasbasbag49
(g65
g51
NtRp4556
(dp4557
g54
(dp4558
sg63
g4527
sg56
(lp4559
g49
(g70
g51
NtRp4560
(dp4561
g54
(dp4562
sg63
g4556
sg56
(lp4563
g49
(g50
g51
NtRp4564
(dp4565
g54
(dp4566
g62
I1
ssg63
g4560
sg56
(lp4567
Nasbasbasbag49
(g65
g51
NtRp4568
(dp4569
g54
(dp4570
sg63
g4527
sg56
(lp4571
g49
(g70
g51
NtRp4572
(dp4573
g54
(dp4574
sg63
g4568
sg56
(lp4575
g49
(g50
g51
NtRp4576
(dp4577
g54
(dp4578
g62
I1
ssg63
g4572
sg56
(lp4579
(lp4580
(S'plugin_wiki'
p4581
I00
S'http://web2py.com/examples/default/download'
p4582
tp4583
a(g3969
(S's\r\x00\x00\x00Other Plugins'
tRp4584
I00
g4314
tp4585
a(g3969
(S's\x0e\x00\x00\x00Layout Plugins'
tRp4586
I00
g4317
tp4587
aasbasbasbasbasbasbasbasbasbasbasbasbasbasbasbasbasbasbasbag49
(g65
g51
NtRp4588
(dp4589
g54
(dp4590
sg63
g3455
sg56
(lp4591
g49
(g70
g51
NtRp4592
(dp4593
g54
(dp4594
g74
g75
ssg63
g4588
sg56
(lp4595
S'meta'
p4596
asbag49
(g70
g51
NtRp4597
(dp4598
g54
(dp4599
g81
g82
ssg63
g4588
sg56
(lp4600
S':'
asbag49
(g70
g51
NtRp4601
(dp4602
g54
(dp4603
sg63
g4588
sg56
(lp4604
g49
(g50
g51
NtRp4605
(dp4606
g54
(dp4607
g62
I5
ssg63
g4601
sg56
(lp4608
g49
(g58
g51
NtRp4609
(dp4610
g54
(dp4611
g62
I4
ssg63
Nsg56
(lp4612
g49
(g65
g51
NtRp4613
(dp4614
g54
(dp4615
sg63
g4609
sg56
(lp4616
g49
(g70
g51
NtRp4617
(dp4618
g54
(dp4619
g74
g75
ssg63
g4613
sg56
(lp4620
S'author'
p4621
asbag49
(g70
g51
NtRp4622
(dp4623
g54
(dp4624
g81
g82
ssg63
g4613
sg56
(lp4625
S':'
asbag49
(g70
g51
NtRp4626
(dp4627
g54
(dp4628
sg63
g4613
sg56
(lp4629
g49
(g50
g51
NtRp4630
(dp4631
g54
(dp4632
g62
I4
ssg63
g4626
sg56
(lp4633
S'Your Name <you@example.com>'
p4634
asbasbasbag49
(g65
g51
NtRp4635
(dp4636
g54
(dp4637
sg63
g4609
sg56
(lp4638
g49
(g70
g51
NtRp4639
(dp4640
g54
(dp4641
g74
g75
ssg63
g4635
sg56
(lp4642
S'description'
p4643
asbag49
(g70
g51
NtRp4644
(dp4645
g54
(dp4646
g81
g82
ssg63
g4635
sg56
(lp4647
S':'
asbag49
(g70
g51
NtRp4648
(dp4649
g54
(dp4650
sg63
g4635
sg56
(lp4651
g49
(g50
g51
NtRp4652
(dp4653
g54
(dp4654
g62
I4
ssg63
g4648
sg56
(lp4655
S'a cool new app'
p4656
asbasbasbag49
(g65
g51
NtRp4657
(dp4658
g54
(dp4659
sg63
g4609
sg56
(lp4660
g49
(g70
g51
NtRp4661
(dp4662
g54
(dp4663
g74
g75
ssg63
g4657
sg56
(lp4664
S'generator'
p4665
asbag49
(g70
g51
NtRp4666
(dp4667
g54
(dp4668
g81
g82
ssg63
g4657
sg56
(lp4669
S':'
asbag49
(g70
g51
NtRp4670
(dp4671
g54
(dp4672
sg63
g4657
sg56
(lp4673
g49
(g50
g51
NtRp4674
(dp4675
g54
(dp4676
g62
I4
ssg63
g4670
sg56
(lp4677
S'Web2py Web Framework'
p4678
asbasbasbag49
(g65
g51
NtRp4679
(dp4680
g54
(dp4681
sg63
g4609
sg56
(lp4682
g49
(g70
g51
NtRp4683
(dp4684
g54
(dp4685
g74
g75
ssg63
g4679
sg56
(lp4686
S'keywords'
p4687
asbag49
(g70
g51
NtRp4688
(dp4689
g54
(dp4690
g81
g82
ssg63
g4679
sg56
(lp4691
S':'
asbag49
(g70
g51
NtRp4692
(dp4693
g54
(dp4694
sg63
g4679
sg56
(lp4695
g49
(g50
g51
NtRp4696
(dp4697
g54
(dp4698
g62
I4
ssg63
g4692
sg56
(lp4699
S'web2py, python, framework'
p4700
asbasbasbasbasbasbasbag49
(g65
g51
NtRp4701
(dp4702
g54
(dp4703
sg63
g3455
sg56
(lp4704
g49
(g70
g51
NtRp4705
(dp4706
g54
(dp4707
g74
g75
ssg63
g4701
sg56
(lp4708
S'models_to_run'
p4709
asbag49
(g70
g51
NtRp4710
(dp4711
g54
(dp4712
g81
g82
ssg63
g4701
sg56
(lp4713
S':'
asbag49
(g70
g51
NtRp4714
(dp4715
g54
(dp4716
sg63
g4701
sg56
(lp4717
g49
(g50
g51
NtRp4718
(dp4719
g54
(dp4720
g62
I5
ssg63
g4714
sg56
(lp4721
g49
(g58
g51
NtRp4722
(dp4723
g54
(dp4724
g62
I4
ssg63
Nsg56
(lp4725
g49
(g65
g51
NtRp4726
(dp4727
g54
(dp4728
sg63
g4722
sg56
(lp4729
g49
(g70
g51
NtRp4730
(dp4731
g54
(dp4732
sg63
g4726
sg56
(lp4733
g49
(g50
g51
NtRp4734
(dp4735
g54
(dp4736
g62
I4
ssg63
g4730
sg56
(lp4737
S'^\\w+\\.py$'
p4738
asbasbasbag49
(g65
g51
NtRp4739
(dp4740
g54
(dp4741
sg63
g4722
sg56
(lp4742
g49
(g70
g51
NtRp4743
(dp4744
g54
(dp4745
sg63
g4739
sg56
(lp4746
g49
(g50
g51
NtRp4747
(dp4748
g54
(dp4749
g62
I4
ssg63
g4743
sg56
(lp4750
S'^default/\\w+\\.py$'
p4751
asbasbasbag49
(g65
g51
NtRp4752
(dp4753
g54
(dp4754
sg63
g4722
sg56
(lp4755
g49
(g70
g51
NtRp4756
(dp4757
g54
(dp4758
sg63
g4752
sg56
(lp4759
g49
(g50
g51
NtRp4760
(dp4761
g54
(dp4762
g62
I4
ssg63
g4756
sg56
(lp4763
S'^default/mobile_user_register/\\w+\\.py$'
p4764
asbasbasbasbasbasbasbag49
(g65
g51
NtRp4765
(dp4766
g54
(dp4767
sg63
g3455
sg56
(lp4768
g49
(g70
g51
NtRp4769
(dp4770
g54
(dp4771
g74
g75
ssg63
g4765
sg56
(lp4772
S'postprocessing'
p4773
asbag49
(g70
g51
NtRp4774
(dp4775
g54
(dp4776
g81
g82
ssg63
g4765
sg56
(lp4777
S':'
asbag49
(g70
g51
NtRp4778
(dp4779
g54
(dp4780
sg63
g4765
sg56
(lp4781
g49
(g50
g51
NtRp4782
(dp4783
g54
(dp4784
g62
I5
ssg63
g4778
sg56
(lp4785
g49
(g58
g51
NtRp4786
(dp4787
g54
(dp4788
g62
I4
ssg63
Nsg56
(lp4789
sbasbasbasbag49
(g65
g51
NtRp4790
(dp4791
g54
(dp4792
sg63
g3455
sg56
(lp4793
g49
(g70
g51
NtRp4794
(dp4795
g54
(dp4796
g74
g75
ssg63
g4790
sg56
(lp4797
S'session_cookie_expires'
p4798
asbag49
(g70
g51
NtRp4799
(dp4800
g54
(dp4801
g81
g82
ssg63
g4790
sg56
(lp4802
S':'
asbag49
(g70
g51
NtRp4803
(dp4804
g54
(dp4805
sg63
g4790
sg56
(lp4806
g49
(g50
g51
NtRp4807
(dp4808
g54
(dp4809
g62
I5
ssg63
g4803
sg56
(lp4810
S'None'
p4811
asbasbasbag49
(g65
g51
NtRp4812
(dp4813
g54
(dp4814
sg63
g3455
sg56
(lp4815
g49
(g70
g51
NtRp4816
(dp4817
g54
(dp4818
g74
g75
ssg63
g4812
sg56
(lp4819
S'session_data_name'
p4820
asbag49
(g70
g51
NtRp4821
(dp4822
g54
(dp4823
g81
g82
ssg63
g4812
sg56
(lp4824
S':'
asbag49
(g70
g51
NtRp4825
(dp4826
g54
(dp4827
sg63
g4812
sg56
(lp4828
g49
(g50
g51
NtRp4829
(dp4830
g54
(dp4831
g62
I5
ssg63
g4825
sg56
(lp4832
S'session_data_mr'
p4833
asbasbasbag49
(g65
g51
NtRp4834
(dp4835
g54
(dp4836
sg63
g3455
sg56
(lp4837
g49
(g70
g51
NtRp4838
(dp4839
g54
(dp4840
g74
g75
ssg63
g4834
sg56
(lp4841
S'session_file'
p4842
asbag49
(g70
g51
NtRp4843
(dp4844
g54
(dp4845
g81
g82
ssg63
g4834
sg56
(lp4846
S':'
asbag49
(g70
g51
NtRp4847
(dp4848
g54
(dp4849
sg63
g4834
sg56
(lp4850
g49
(g50
g51
NtRp4851
(dp4852
g54
(dp4853
g62
I5
ssg63
g4847
sg56
(lp4854
S"<open file '/Applications/web2py.app/Contents/Resources/applications/MR/sessions/127.0.0.1-56f6c833-4495-4158-afa1-0ddb41c94ce0', mode 'rb+' at 0x925a338>"
p4855
asbasbasbag49
(g65
g51
NtRp4856
(dp4857
g54
(dp4858
sg63
g3455
sg56
(lp4859
g49
(g70
g51
NtRp4860
(dp4861
g54
(dp4862
g74
g75
ssg63
g4856
sg56
(lp4863
S'session_filename'
p4864
asbag49
(g70
g51
NtRp4865
(dp4866
g54
(dp4867
g81
g82
ssg63
g4856
sg56
(lp4868
S':'
asbag49
(g70
g51
NtRp4869
(dp4870
g54
(dp4871
sg63
g4856
sg56
(lp4872
g49
(g50
g51
NtRp4873
(dp4874
g54
(dp4875
g62
I5
ssg63
g4869
sg56
(lp4876
S'/Applications/web2py.app/Contents/Resources/applications/MR/sessions/127.0.0.1-56f6c833-4495-4158-afa1-0ddb41c94ce0'
p4877
asbasbasbag49
(g65
g51
NtRp4878
(dp4879
g54
(dp4880
sg63
g3455
sg56
(lp4881
g49
(g70
g51
NtRp4882
(dp4883
g54
(dp4884
g74
g75
ssg63
g4878
sg56
(lp4885
S'session_id'
p4886
asbag49
(g70
g51
NtRp4887
(dp4888
g54
(dp4889
g81
g82
ssg63
g4878
sg56
(lp4890
S':'
asbag49
(g70
g51
NtRp4891
(dp4892
g54
(dp4893
sg63
g4878
sg56
(lp4894
g49
(g50
g51
NtRp4895
(dp4896
g54
(dp4897
g62
I5
ssg63
g4891
sg56
(lp4898
g446
asbasbasbag49
(g65
g51
NtRp4899
(dp4900
g54
(dp4901
sg63
g3455
sg56
(lp4902
g49
(g70
g51
NtRp4903
(dp4904
g54
(dp4905
g74
g75
ssg63
g4899
sg56
(lp4906
S'session_id_name'
p4907
asbag49
(g70
g51
NtRp4908
(dp4909
g54
(dp4910
g81
g82
ssg63
g4899
sg56
(lp4911
S':'
asbag49
(g70
g51
NtRp4912
(dp4913
g54
(dp4914
sg63
g4899
sg56
(lp4915
g49
(g50
g51
NtRp4916
(dp4917
g54
(dp4918
g62
I5
ssg63
g4912
sg56
(lp4919
g3512
asbasbasbag49
(g65
g51
NtRp4920
(dp4921
g54
(dp4922
sg63
g3455
sg56
(lp4923
g49
(g70
g51
NtRp4924
(dp4925
g54
(dp4926
g74
g75
ssg63
g4920
sg56
(lp4927
S'session_locked'
p4928
asbag49
(g70
g51
NtRp4929
(dp4930
g54
(dp4931
g81
g82
ssg63
g4920
sg56
(lp4932
S':'
asbag49
(g70
g51
NtRp4933
(dp4934
g54
(dp4935
sg63
g4920
sg56
(lp4936
g49
(g50
g51
NtRp4937
(dp4938
g54
(dp4939
g62
I5
ssg63
g4933
sg56
(lp4940
g916
asbasbasbag49
(g65
g51
NtRp4941
(dp4942
g54
(dp4943
sg63
g3455
sg56
(lp4944
g49
(g70
g51
NtRp4945
(dp4946
g54
(dp4947
g74
g75
ssg63
g4941
sg56
(lp4948
S'session_new'
p4949
asbag49
(g70
g51
NtRp4950
(dp4951
g54
(dp4952
g81
g82
ssg63
g4941
sg56
(lp4953
S':'
asbag49
(g70
g51
NtRp4954
(dp4955
g54
(dp4956
sg63
g4941
sg56
(lp4957
g49
(g50
g51
NtRp4958
(dp4959
g54
(dp4960
g62
I5
ssg63
g4954
sg56
(lp4961
g92
asbasbasbag49
(g65
g51
NtRp4962
(dp4963
g54
(dp4964
sg63
g3455
sg56
(lp4965
g49
(g70
g51
NtRp4966
(dp4967
g54
(dp4968
g74
g75
ssg63
g4962
sg56
(lp4969
S'session_storage_type'
p4970
asbag49
(g70
g51
NtRp4971
(dp4972
g54
(dp4973
g81
g82
ssg63
g4962
sg56
(lp4974
S':'
asbag49
(g70
g51
NtRp4975
(dp4976
g54
(dp4977
sg63
g4962
sg56
(lp4978
g49
(g50
g51
NtRp4979
(dp4980
g54
(dp4981
g62
I5
ssg63
g4975
sg56
(lp4982
g3343
asbasbasbag49
(g65
g51
NtRp4983
(dp4984
g54
(dp4985
sg63
g3455
sg56
(lp4986
g49
(g70
g51
NtRp4987
(dp4988
g54
(dp4989
g74
g75
ssg63
g4983
sg56
(lp4990
S'status'
p4991
asbag49
(g70
g51
NtRp4992
(dp4993
g54
(dp4994
g81
g82
ssg63
g4983
sg56
(lp4995
S':'
asbag49
(g70
g51
NtRp4996
(dp4997
g54
(dp4998
sg63
g4983
sg56
(lp4999
g49
(g50
g51
NtRp5000
(dp5001
g54
(dp5002
g62
I5
ssg63
g4996
sg56
(lp5003
S'200'
p5004
asbasbasbag49
(g65
g51
NtRp5005
(dp5006
g54
(dp5007
sg63
g3455
sg56
(lp5008
g49
(g70
g51
NtRp5009
(dp5010
g54
(dp5011
g74
g75
ssg63
g5005
sg56
(lp5012
S'subtitle'
p5013
asbag49
(g70
g51
NtRp5014
(dp5015
g54
(dp5016
g81
g82
ssg63
g5005
sg56
(lp5017
S':'
asbag49
(g70
g51
NtRp5018
(dp5019
g54
(dp5020
sg63
g5005
sg56
(lp5021
g49
(g50
g51
NtRp5022
(dp5023
g54
(dp5024
g62
I5
ssg63
g5018
sg56
(lp5025
g3969
(S's\r\x00\x00\x00\xe8\xab\x8b\xe8\xaa\xbf\xe6\x95\xb4\xe6\x88\x91!'
tRp5026
asbasbasbag49
(g65
g51
NtRp5027
(dp5028
g54
(dp5029
sg63
g3455
sg56
(lp5030
g49
(g70
g51
NtRp5031
(dp5032
g54
(dp5033
g74
g75
ssg63
g5027
sg56
(lp5034
S'title'
p5035
asbag49
(g70
g51
NtRp5036
(dp5037
g54
(dp5038
g81
g82
ssg63
g5027
sg56
(lp5039
S':'
asbag49
(g70
g51
NtRp5040
(dp5041
g54
(dp5042
sg63
g5027
sg56
(lp5043
g49
(g50
g51
NtRp5044
(dp5045
g54
(dp5046
g62
I5
ssg63
g5040
sg56
(lp5047
S'Mr'
p5048
asbasbasbag49
(g65
g51
NtRp5049
(dp5050
g54
(dp5051
sg63
g3455
sg56
(lp5052
g49
(g70
g51
NtRp5053
(dp5054
g54
(dp5055
g74
g75
ssg63
g5049
sg56
(lp5056
S'view'
p5057
asbag49
(g70
g51
NtRp5058
(dp5059
g54
(dp5060
g81
g82
ssg63
g5049
sg56
(lp5061
S':'
asbag49
(g70
g51
NtRp5062
(dp5063
g54
(dp5064
sg63
g5049
sg56
(lp5065
g49
(g50
g51
NtRp5066
(dp5067
g54
(dp5068
g62
I5
ssg63
g5062
sg56
(lp5069
S'default/mobile_user_register.html'
p5070
asbasbasbasbasbsS'locals'
p5071
(dp5072
S'rows'
p5073
S'<Rows (0)>'
p5074
sS'firstname'
p5075
S"'asdf'"
p5076
sS'lastname'
p5077
S"'asdf'"
p5078
sS'country'
p5079
S"'asdf'"
p5080
sS'password'
p5081
S"'adsf'"
p5082
sS'email'
p5083
S"'adsf'"
p5084
sssS'traceback'
p5085
S'Traceback (most recent call last):\n  File "/home/mdipierro/web2py/gluon/restricted.py", line 212, in restricted\n  File "/Applications/web2py.app/Contents/Resources/applications/MR/controllers/default.py", line 93, in <module>\n  File "/home/mdipierro/web2py/gluon/globals.py", line 193, in <lambda>\n  File "/Applications/web2py.app/Contents/Resources/applications/MR/controllers/default.py", line 58, in mobile_user_register\nNameError: global name \'count\' is not defined\n'
p5086
s.