(dp1
S'output'
p2
S"<type 'exceptions.AttributeError'> 'DAL' object has no attribute 'prof'"
p3
sS'layer'
p4
S'/Applications/web2py.app/Contents/Resources/applications/MR/controllers/default.py'
p5
sS'code'
p6
S'# -*- coding: utf-8 -*-\n# this file is released under public domain and you can use without limitations\n\n#########################################################################\n## This is a samples controller\n## - index is the default action of any application\n## - user is required for authentication and authorization\n## - download is for downloading files uploaded in the db (does streaming)\n## - call exposes all registered services (none by default)\n#########################################################################\nimport gluon.utils as TT\n\ndef index():\n    # return dict(message=T(\'Hello World\'))\n    return "index"\n\ndef user():\n    """\n    exposes:\n    http://..../[app]/default/user/login\n    http://..../[app]/default/user/logout\n    http://..../[app]/default/user/register\n    http://..../[app]/default/user/profile\n    http://..../[app]/default/user/retrieve_password\n    http://..../[app]/default/user/change_password\n    use @auth.requires_login()\n        @auth.requires_membership(\'group name\')\n        @auth.requires_permission(\'read\',\'table name\',record_id)\n    to decorate functions that need access control\n    """\n    return dict(form=auth())\n\ndef download():\n    """\n    allows downloading of uploaded files\n    http://..../[app]/default/download/[filename]\n    """\n    return response.download(request, db)\n\n\ndef call():\n    """\n    exposes services. for example:\n    http://..../[app]/default/call/jsonrpc\n    decorate with @services.jsonrpc the functions to expose\n    supports xml, json, xmlrpc, jsonrpc, amfrpc, rss, csv\n    """\n    return service()\n\ndef mobile_patient_register():\n    email = request.vars.email\n    password = request.vars.password\n    firstname = request.vars.firstname\n    middlename = request.vars.middlename\n    lastname = request.vars.lastname\n    country = request.vars.country\n    rows = db(db.patient.email==email).select()\n    result = {}\n    \n    if len(rows) != 0:\n        result[\'status\'] = "exist"\n        return response.json(result)\n    \n    return_result = TT.md5_hash(password)\n    ret = db.patient.validate_and_insert(email=email, password=password, first_name=firstname, middle_name=middlename, last_name=lastname, md5=return_result, country=country)\n\n    if ret.errors:\n        result[\'status\'] = "ERROR"\n        return response.json(result)        \n    else:\n        result[\'status\'] = "success"\n        result[\'result\'] = return_result   \n        return response.json(result)\n\n    \ndef mobile_prof_register():\n    email = request.vars.email\n    password = request.vars.password\n    firstname = request.vars.firstname\n    middlename = request.vars.middlename\n    lastname = request.vars.lastname\n    country = request.vars.country\n    rows = db(db.prof.email==email).select()\n    result = {}\n    \n    if len(rows) != 0:\n        result[\'status\'] = "exist"\n        return response.json(result)\n    \n    return_result = TT.md5_hash(password)\n    ret = db.prof.validate_and_insert(email=email, password=password, first_name=firstname, middle_name=middlename, last_name=lastname, md5=return_result, country=country)\n\n    if ret.errors:\n        result[\'status\'] = "ERROR"\n        return response.json(result)        \n    else:\n        result[\'status\'] = "success"\n        result[\'result\'] = return_result   \n        return response.json(result)\n    \n#@service.jsonrpc\ndef mobile_user_login(email, password):\n    rows = db(db.mobile_user.email==email).select()\n    if len(rows) != 1:\n        return {\'status\': \'ERROR\'}\n    user = rows[0]\n    return {\'status\':\'success\', \'result\': user.md5}\n\n@auth.requires_signature()\ndef data():\n    """\n    http://..../[app]/default/data/tables\n    http://..../[app]/default/data/create/[table]\n    http://..../[app]/default/data/read/[table]/[id]\n    http://..../[app]/default/data/update/[table]/[id]\n    http://..../[app]/default/data/delete/[table]/[id]\n    http://..../[app]/default/data/select/[table]\n    http://..../[app]/default/data/search/[table]\n    but URLs must be signed, i.e. linked with\n      A(\'table\',_href=URL(\'data/tables\',user_signature=True))\n    or with the signed load operator\n      LOAD(\'default\',\'data.load\',args=\'tables\',ajax=True,user_signature=True)\n    """\n    return dict(form=crud())\n\nresponse._vars=response._caller(mobile_prof_register)\n'
p7
sS'snapshot'
p8
(dp9
S'exception'
p10
(dp11
S'__hash__'
p12
S"<method-wrapper '__hash__' of exceptions.AttributeError object at 0x8d34210>"
p13
sS'__setattr__'
p14
S"<method-wrapper '__setattr__' of exceptions.AttributeError object at 0x8d34210>"
p15
sS'__reduce_ex__'
p16
S'<built-in method __reduce_ex__ of exceptions.AttributeError object at 0x8d34210>'
p17
sS'__getslice__'
p18
S"<method-wrapper '__getslice__' of exceptions.AttributeError object at 0x8d34210>"
p19
sS'__getitem__'
p20
S"<method-wrapper '__getitem__' of exceptions.AttributeError object at 0x8d34210>"
p21
sS'__setstate__'
p22
S'<built-in method __setstate__ of exceptions.AttributeError object at 0x8d34210>'
p23
sS'__reduce__'
p24
S'<built-in method __reduce__ of exceptions.AttributeError object at 0x8d34210>'
p25
sS'__str__'
p26
S"<method-wrapper '__str__' of exceptions.AttributeError object at 0x8d34210>"
p27
sS'args'
p28
S'("\'DAL\' object has no attribute \'prof\'",)'
p29
sS'__getattribute__'
p30
S"<method-wrapper '__getattribute__' of exceptions.AttributeError object at 0x8d34210>"
p31
sS'__class__'
p32
S"<type 'exceptions.AttributeError'>"
p33
sS'__delattr__'
p34
S"<method-wrapper '__delattr__' of exceptions.AttributeError object at 0x8d34210>"
p35
sS'__repr__'
p36
S"<method-wrapper '__repr__' of exceptions.AttributeError object at 0x8d34210>"
p37
sS'__dict__'
p38
S'{}'
p39
sS'__doc__'
p40
S"'Attribute not found.'"
p41
sS'__init__'
p42
S"<method-wrapper '__init__' of exceptions.AttributeError object at 0x8d34210>"
p43
sS'__new__'
p44
S'<built-in method __new__ of type object at 0x5f94a0>'
p45
ssS'evalue'
p46
S"'DAL' object has no attribute 'prof'"
p47
sS'request'
p48
ccopy_reg
_reconstructor
p49
(cgluon.html
BEAUTIFY
p50
c__builtin__
object
p51
NtRp52
(dp53
S'attributes'
p54
(dp55
sS'components'
p56
(lp57
g49
(cgluon.html
TABLE
p58
g51
NtRp59
(dp60
g54
(dp61
S'level'
p62
I5
ssS'parent'
p63
Nsg56
(lp64
g49
(cgluon.html
TR
p65
g51
NtRp66
(dp67
g54
(dp68
sg63
g59
sg56
(lp69
g49
(cgluon.html
TD
p70
g51
NtRp71
(dp72
g54
(dp73
S'_style'
p74
S'font-weight:bold;vertical-align:top'
p75
ssg63
g66
sg56
(lp76
S'ajax'
p77
asbag49
(g70
g51
NtRp78
(dp79
g54
(dp80
S'_valign'
p81
S'top'
p82
ssg63
g66
sg56
(lp83
S':'
asbag49
(g70
g51
NtRp84
(dp85
g54
(dp86
sg63
g66
sg56
(lp87
g49
(g50
g51
NtRp88
(dp89
g54
(dp90
g62
I5
ssg63
g84
sg56
(lp91
S'False'
p92
asbasbasbag49
(g65
g51
NtRp93
(dp94
g54
(dp95
sg63
g59
sg56
(lp96
g49
(g70
g51
NtRp97
(dp98
g54
(dp99
g74
g75
ssg63
g93
sg56
(lp100
S'application'
p101
asbag49
(g70
g51
NtRp102
(dp103
g54
(dp104
g81
g82
ssg63
g93
sg56
(lp105
S':'
asbag49
(g70
g51
NtRp106
(dp107
g54
(dp108
sg63
g93
sg56
(lp109
g49
(g50
g51
NtRp110
(dp111
g54
(dp112
g62
I5
ssg63
g106
sg56
(lp113
S'MR'
p114
asbasbasbag49
(g65
g51
NtRp115
(dp116
g54
(dp117
sg63
g59
sg56
(lp118
g49
(g70
g51
NtRp119
(dp120
g54
(dp121
g74
g75
ssg63
g115
sg56
(lp122
g28
asbag49
(g70
g51
NtRp123
(dp124
g54
(dp125
g81
g82
ssg63
g115
sg56
(lp126
S':'
asbag49
(g70
g51
NtRp127
(dp128
g54
(dp129
sg63
g115
sg56
(lp130
g49
(g50
g51
NtRp131
(dp132
g54
(dp133
g62
I5
ssg63
g127
sg56
(lp134
g49
(g58
g51
NtRp135
(dp136
g54
(dp137
g62
I4
ssg63
Nsg56
(lp138
sbasbasbasbag49
(g65
g51
NtRp139
(dp140
g54
(dp141
sg63
g59
sg56
(lp142
g49
(g70
g51
NtRp143
(dp144
g54
(dp145
g74
g75
ssg63
g139
sg56
(lp146
S'body'
p147
asbag49
(g70
g51
NtRp148
(dp149
g54
(dp150
g81
g82
ssg63
g139
sg56
(lp151
S':'
asbag49
(g70
g51
NtRp152
(dp153
g54
(dp154
sg63
g139
sg56
(lp155
g49
(g50
g51
NtRp156
(dp157
g54
(dp158
g62
I5
ssg63
g152
sg56
(lp159
S'<cStringIO.StringO object at 0x7811c60>'
p160
asbasbasbag49
(g65
g51
NtRp161
(dp162
g54
(dp163
sg63
g59
sg56
(lp164
g49
(g70
g51
NtRp165
(dp166
g54
(dp167
g74
g75
ssg63
g161
sg56
(lp168
S'cid'
p169
asbag49
(g70
g51
NtRp170
(dp171
g54
(dp172
g81
g82
ssg63
g161
sg56
(lp173
S':'
asbag49
(g70
g51
NtRp174
(dp175
g54
(dp176
sg63
g161
sg56
(lp177
g49
(g50
g51
NtRp178
(dp179
g54
(dp180
g62
I5
ssg63
g174
sg56
(lp181
S'None'
p182
asbasbasbag49
(g65
g51
NtRp183
(dp184
g54
(dp185
sg63
g59
sg56
(lp186
g49
(g70
g51
NtRp187
(dp188
g54
(dp189
g74
g75
ssg63
g183
sg56
(lp190
S'client'
p191
asbag49
(g70
g51
NtRp192
(dp193
g54
(dp194
g81
g82
ssg63
g183
sg56
(lp195
S':'
asbag49
(g70
g51
NtRp196
(dp197
g54
(dp198
sg63
g183
sg56
(lp199
g49
(g50
g51
NtRp200
(dp201
g54
(dp202
g62
I5
ssg63
g196
sg56
(lp203
S'127.0.0.1'
p204
asbasbasbag49
(g65
g51
NtRp205
(dp206
g54
(dp207
sg63
g59
sg56
(lp208
g49
(g70
g51
NtRp209
(dp210
g54
(dp211
g74
g75
ssg63
g205
sg56
(lp212
S'controller'
p213
asbag49
(g70
g51
NtRp214
(dp215
g54
(dp216
g81
g82
ssg63
g205
sg56
(lp217
S':'
asbag49
(g70
g51
NtRp218
(dp219
g54
(dp220
sg63
g205
sg56
(lp221
g49
(g50
g51
NtRp222
(dp223
g54
(dp224
g62
I5
ssg63
g218
sg56
(lp225
S'default'
p226
asbasbasbag49
(g65
g51
NtRp227
(dp228
g54
(dp229
sg63
g59
sg56
(lp230
g49
(g70
g51
NtRp231
(dp232
g54
(dp233
g74
g75
ssg63
g227
sg56
(lp234
S'cookies'
p235
asbag49
(g70
g51
NtRp236
(dp237
g54
(dp238
g81
g82
ssg63
g227
sg56
(lp239
S':'
asbag49
(g70
g51
NtRp240
(dp241
g54
(dp242
sg63
g227
sg56
(lp243
g49
(g50
g51
NtRp244
(dp245
g54
(dp246
g62
I5
ssg63
g240
sg56
(lp247
g49
(g58
g51
NtRp248
(dp249
g54
(dp250
g62
I4
ssg63
Nsg56
(lp251
g49
(g65
g51
NtRp252
(dp253
g54
(dp254
sg63
g248
sg56
(lp255
g49
(g70
g51
NtRp256
(dp257
g54
(dp258
g74
g75
ssg63
g252
sg56
(lp259
S'session_id_admin'
p260
asbag49
(g70
g51
NtRp261
(dp262
g54
(dp263
g81
g82
ssg63
g252
sg56
(lp264
S':'
asbag49
(g70
g51
NtRp265
(dp266
g54
(dp267
sg63
g252
sg56
(lp268
g49
(g50
g51
NtRp269
(dp270
g54
(dp271
g62
I4
ssg63
g265
sg56
(lp272
S'127.0.0.1-571b3d08-1b04-4205-803c-964130795403'
p273
ag49
(g58
g51
NtRp274
(dp275
g54
(dp276
g62
I3
ssg63
Nsg56
(lp277
g49
(g65
g51
NtRp278
(dp279
g54
(dp280
sg63
g274
sg56
(lp281
g49
(g70
g51
NtRp282
(dp283
g54
(dp284
g74
g75
ssg63
g278
sg56
(lp285
S'comment'
p286
asbag49
(g70
g51
NtRp287
(dp288
g54
(dp289
g81
g82
ssg63
g278
sg56
(lp290
S':'
asbag49
(g70
g51
NtRp291
(dp292
g54
(dp293
sg63
g278
sg56
(lp294
g49
(g50
g51
NtRp295
(dp296
g54
(dp297
g62
I3
ssg63
g291
sg56
(lp298
S''
asbasbasbag49
(g65
g51
NtRp299
(dp300
g54
(dp301
sg63
g274
sg56
(lp302
g49
(g70
g51
NtRp303
(dp304
g54
(dp305
g74
g75
ssg63
g299
sg56
(lp306
S'domain'
p307
asbag49
(g70
g51
NtRp308
(dp309
g54
(dp310
g81
g82
ssg63
g299
sg56
(lp311
S':'
asbag49
(g70
g51
NtRp312
(dp313
g54
(dp314
sg63
g299
sg56
(lp315
g49
(g50
g51
NtRp316
(dp317
g54
(dp318
g62
I3
ssg63
g312
sg56
(lp319
S''
asbasbasbag49
(g65
g51
NtRp320
(dp321
g54
(dp322
sg63
g274
sg56
(lp323
g49
(g70
g51
NtRp324
(dp325
g54
(dp326
g74
g75
ssg63
g320
sg56
(lp327
S'expires'
p328
asbag49
(g70
g51
NtRp329
(dp330
g54
(dp331
g81
g82
ssg63
g320
sg56
(lp332
S':'
asbag49
(g70
g51
NtRp333
(dp334
g54
(dp335
sg63
g320
sg56
(lp336
g49
(g50
g51
NtRp337
(dp338
g54
(dp339
g62
I3
ssg63
g333
sg56
(lp340
S''
asbasbasbag49
(g65
g51
NtRp341
(dp342
g54
(dp343
sg63
g274
sg56
(lp344
g49
(g70
g51
NtRp345
(dp346
g54
(dp347
g74
g75
ssg63
g341
sg56
(lp348
S'max-age'
p349
asbag49
(g70
g51
NtRp350
(dp351
g54
(dp352
g81
g82
ssg63
g341
sg56
(lp353
S':'
asbag49
(g70
g51
NtRp354
(dp355
g54
(dp356
sg63
g341
sg56
(lp357
g49
(g50
g51
NtRp358
(dp359
g54
(dp360
g62
I3
ssg63
g354
sg56
(lp361
S''
asbasbasbag49
(g65
g51
NtRp362
(dp363
g54
(dp364
sg63
g274
sg56
(lp365
g49
(g70
g51
NtRp366
(dp367
g54
(dp368
g74
g75
ssg63
g362
sg56
(lp369
S'path'
p370
asbag49
(g70
g51
NtRp371
(dp372
g54
(dp373
g81
g82
ssg63
g362
sg56
(lp374
S':'
asbag49
(g70
g51
NtRp375
(dp376
g54
(dp377
sg63
g362
sg56
(lp378
g49
(g50
g51
NtRp379
(dp380
g54
(dp381
g62
I3
ssg63
g375
sg56
(lp382
S''
asbasbasbag49
(g65
g51
NtRp383
(dp384
g54
(dp385
sg63
g274
sg56
(lp386
g49
(g70
g51
NtRp387
(dp388
g54
(dp389
g74
g75
ssg63
g383
sg56
(lp390
S'secure'
p391
asbag49
(g70
g51
NtRp392
(dp393
g54
(dp394
g81
g82
ssg63
g383
sg56
(lp395
S':'
asbag49
(g70
g51
NtRp396
(dp397
g54
(dp398
sg63
g383
sg56
(lp399
g49
(g50
g51
NtRp400
(dp401
g54
(dp402
g62
I3
ssg63
g396
sg56
(lp403
S''
asbasbasbag49
(g65
g51
NtRp404
(dp405
g54
(dp406
sg63
g274
sg56
(lp407
g49
(g70
g51
NtRp408
(dp409
g54
(dp410
g74
g75
ssg63
g404
sg56
(lp411
S'version'
p412
asbag49
(g70
g51
NtRp413
(dp414
g54
(dp415
g81
g82
ssg63
g404
sg56
(lp416
S':'
asbag49
(g70
g51
NtRp417
(dp418
g54
(dp419
sg63
g404
sg56
(lp420
g49
(g50
g51
NtRp421
(dp422
g54
(dp423
g62
I3
ssg63
g417
sg56
(lp424
S''
asbasbasbasbasbasbasbag49
(g65
g51
NtRp425
(dp426
g54
(dp427
sg63
g248
sg56
(lp428
g49
(g70
g51
NtRp429
(dp430
g54
(dp431
g74
g75
ssg63
g425
sg56
(lp432
S'session_id_mr'
p433
asbag49
(g70
g51
NtRp434
(dp435
g54
(dp436
g81
g82
ssg63
g425
sg56
(lp437
S':'
asbag49
(g70
g51
NtRp438
(dp439
g54
(dp440
sg63
g425
sg56
(lp441
g49
(g50
g51
NtRp442
(dp443
g54
(dp444
g62
I4
ssg63
g438
sg56
(lp445
S'127.0.0.1-93356ae9-d6eb-42c1-bf89-8f42dc924ebb'
p446
ag49
(g58
g51
NtRp447
(dp448
g54
(dp449
g62
I3
ssg63
Nsg56
(lp450
g49
(g65
g51
NtRp451
(dp452
g54
(dp453
sg63
g447
sg56
(lp454
g49
(g70
g51
NtRp455
(dp456
g54
(dp457
g74
g75
ssg63
g451
sg56
(lp458
g286
asbag49
(g70
g51
NtRp459
(dp460
g54
(dp461
g81
g82
ssg63
g451
sg56
(lp462
S':'
asbag49
(g70
g51
NtRp463
(dp464
g54
(dp465
sg63
g451
sg56
(lp466
g49
(g50
g51
NtRp467
(dp468
g54
(dp469
g62
I3
ssg63
g463
sg56
(lp470
S''
asbasbasbag49
(g65
g51
NtRp471
(dp472
g54
(dp473
sg63
g447
sg56
(lp474
g49
(g70
g51
NtRp475
(dp476
g54
(dp477
g74
g75
ssg63
g471
sg56
(lp478
g307
asbag49
(g70
g51
NtRp479
(dp480
g54
(dp481
g81
g82
ssg63
g471
sg56
(lp482
S':'
asbag49
(g70
g51
NtRp483
(dp484
g54
(dp485
sg63
g471
sg56
(lp486
g49
(g50
g51
NtRp487
(dp488
g54
(dp489
g62
I3
ssg63
g483
sg56
(lp490
S''
asbasbasbag49
(g65
g51
NtRp491
(dp492
g54
(dp493
sg63
g447
sg56
(lp494
g49
(g70
g51
NtRp495
(dp496
g54
(dp497
g74
g75
ssg63
g491
sg56
(lp498
g328
asbag49
(g70
g51
NtRp499
(dp500
g54
(dp501
g81
g82
ssg63
g491
sg56
(lp502
S':'
asbag49
(g70
g51
NtRp503
(dp504
g54
(dp505
sg63
g491
sg56
(lp506
g49
(g50
g51
NtRp507
(dp508
g54
(dp509
g62
I3
ssg63
g503
sg56
(lp510
S''
asbasbasbag49
(g65
g51
NtRp511
(dp512
g54
(dp513
sg63
g447
sg56
(lp514
g49
(g70
g51
NtRp515
(dp516
g54
(dp517
g74
g75
ssg63
g511
sg56
(lp518
g349
asbag49
(g70
g51
NtRp519
(dp520
g54
(dp521
g81
g82
ssg63
g511
sg56
(lp522
S':'
asbag49
(g70
g51
NtRp523
(dp524
g54
(dp525
sg63
g511
sg56
(lp526
g49
(g50
g51
NtRp527
(dp528
g54
(dp529
g62
I3
ssg63
g523
sg56
(lp530
S''
asbasbasbag49
(g65
g51
NtRp531
(dp532
g54
(dp533
sg63
g447
sg56
(lp534
g49
(g70
g51
NtRp535
(dp536
g54
(dp537
g74
g75
ssg63
g531
sg56
(lp538
g370
asbag49
(g70
g51
NtRp539
(dp540
g54
(dp541
g81
g82
ssg63
g531
sg56
(lp542
S':'
asbag49
(g70
g51
NtRp543
(dp544
g54
(dp545
sg63
g531
sg56
(lp546
g49
(g50
g51
NtRp547
(dp548
g54
(dp549
g62
I3
ssg63
g543
sg56
(lp550
S''
asbasbasbag49
(g65
g51
NtRp551
(dp552
g54
(dp553
sg63
g447
sg56
(lp554
g49
(g70
g51
NtRp555
(dp556
g54
(dp557
g74
g75
ssg63
g551
sg56
(lp558
g391
asbag49
(g70
g51
NtRp559
(dp560
g54
(dp561
g81
g82
ssg63
g551
sg56
(lp562
S':'
asbag49
(g70
g51
NtRp563
(dp564
g54
(dp565
sg63
g551
sg56
(lp566
g49
(g50
g51
NtRp567
(dp568
g54
(dp569
g62
I3
ssg63
g563
sg56
(lp570
S''
asbasbasbag49
(g65
g51
NtRp571
(dp572
g54
(dp573
sg63
g447
sg56
(lp574
g49
(g70
g51
NtRp575
(dp576
g54
(dp577
g74
g75
ssg63
g571
sg56
(lp578
g412
asbag49
(g70
g51
NtRp579
(dp580
g54
(dp581
g81
g82
ssg63
g571
sg56
(lp582
S':'
asbag49
(g70
g51
NtRp583
(dp584
g54
(dp585
sg63
g571
sg56
(lp586
g49
(g50
g51
NtRp587
(dp588
g54
(dp589
g62
I3
ssg63
g583
sg56
(lp590
S''
asbasbasbasbasbasbasbag49
(g65
g51
NtRp591
(dp592
g54
(dp593
sg63
g248
sg56
(lp594
g49
(g70
g51
NtRp595
(dp596
g54
(dp597
g74
g75
ssg63
g591
sg56
(lp598
S'session_id_welcome'
p599
asbag49
(g70
g51
NtRp600
(dp601
g54
(dp602
g81
g82
ssg63
g591
sg56
(lp603
S':'
asbag49
(g70
g51
NtRp604
(dp605
g54
(dp606
sg63
g591
sg56
(lp607
g49
(g50
g51
NtRp608
(dp609
g54
(dp610
g62
I4
ssg63
g604
sg56
(lp611
S'127.0.0.1-689c372b-4c09-4573-a459-6c50cc578d9b'
p612
ag49
(g58
g51
NtRp613
(dp614
g54
(dp615
g62
I3
ssg63
Nsg56
(lp616
g49
(g65
g51
NtRp617
(dp618
g54
(dp619
sg63
g613
sg56
(lp620
g49
(g70
g51
NtRp621
(dp622
g54
(dp623
g74
g75
ssg63
g617
sg56
(lp624
g286
asbag49
(g70
g51
NtRp625
(dp626
g54
(dp627
g81
g82
ssg63
g617
sg56
(lp628
S':'
asbag49
(g70
g51
NtRp629
(dp630
g54
(dp631
sg63
g617
sg56
(lp632
g49
(g50
g51
NtRp633
(dp634
g54
(dp635
g62
I3
ssg63
g629
sg56
(lp636
S''
asbasbasbag49
(g65
g51
NtRp637
(dp638
g54
(dp639
sg63
g613
sg56
(lp640
g49
(g70
g51
NtRp641
(dp642
g54
(dp643
g74
g75
ssg63
g637
sg56
(lp644
g307
asbag49
(g70
g51
NtRp645
(dp646
g54
(dp647
g81
g82
ssg63
g637
sg56
(lp648
S':'
asbag49
(g70
g51
NtRp649
(dp650
g54
(dp651
sg63
g637
sg56
(lp652
g49
(g50
g51
NtRp653
(dp654
g54
(dp655
g62
I3
ssg63
g649
sg56
(lp656
S''
asbasbasbag49
(g65
g51
NtRp657
(dp658
g54
(dp659
sg63
g613
sg56
(lp660
g49
(g70
g51
NtRp661
(dp662
g54
(dp663
g74
g75
ssg63
g657
sg56
(lp664
g328
asbag49
(g70
g51
NtRp665
(dp666
g54
(dp667
g81
g82
ssg63
g657
sg56
(lp668
S':'
asbag49
(g70
g51
NtRp669
(dp670
g54
(dp671
sg63
g657
sg56
(lp672
g49
(g50
g51
NtRp673
(dp674
g54
(dp675
g62
I3
ssg63
g669
sg56
(lp676
S''
asbasbasbag49
(g65
g51
NtRp677
(dp678
g54
(dp679
sg63
g613
sg56
(lp680
g49
(g70
g51
NtRp681
(dp682
g54
(dp683
g74
g75
ssg63
g677
sg56
(lp684
g349
asbag49
(g70
g51
NtRp685
(dp686
g54
(dp687
g81
g82
ssg63
g677
sg56
(lp688
S':'
asbag49
(g70
g51
NtRp689
(dp690
g54
(dp691
sg63
g677
sg56
(lp692
g49
(g50
g51
NtRp693
(dp694
g54
(dp695
g62
I3
ssg63
g689
sg56
(lp696
S''
asbasbasbag49
(g65
g51
NtRp697
(dp698
g54
(dp699
sg63
g613
sg56
(lp700
g49
(g70
g51
NtRp701
(dp702
g54
(dp703
g74
g75
ssg63
g697
sg56
(lp704
g370
asbag49
(g70
g51
NtRp705
(dp706
g54
(dp707
g81
g82
ssg63
g697
sg56
(lp708
S':'
asbag49
(g70
g51
NtRp709
(dp710
g54
(dp711
sg63
g697
sg56
(lp712
g49
(g50
g51
NtRp713
(dp714
g54
(dp715
g62
I3
ssg63
g709
sg56
(lp716
S''
asbasbasbag49
(g65
g51
NtRp717
(dp718
g54
(dp719
sg63
g613
sg56
(lp720
g49
(g70
g51
NtRp721
(dp722
g54
(dp723
g74
g75
ssg63
g717
sg56
(lp724
g391
asbag49
(g70
g51
NtRp725
(dp726
g54
(dp727
g81
g82
ssg63
g717
sg56
(lp728
S':'
asbag49
(g70
g51
NtRp729
(dp730
g54
(dp731
sg63
g717
sg56
(lp732
g49
(g50
g51
NtRp733
(dp734
g54
(dp735
g62
I3
ssg63
g729
sg56
(lp736
S''
asbasbasbag49
(g65
g51
NtRp737
(dp738
g54
(dp739
sg63
g613
sg56
(lp740
g49
(g70
g51
NtRp741
(dp742
g54
(dp743
g74
g75
ssg63
g737
sg56
(lp744
g412
asbag49
(g70
g51
NtRp745
(dp746
g54
(dp747
g81
g82
ssg63
g737
sg56
(lp748
S':'
asbag49
(g70
g51
NtRp749
(dp750
g54
(dp751
sg63
g737
sg56
(lp752
g49
(g50
g51
NtRp753
(dp754
g54
(dp755
g62
I3
ssg63
g749
sg56
(lp756
S''
asbasbasbasbasbasbasbasbasbasbasbag49
(g65
g51
NtRp757
(dp758
g54
(dp759
sg63
g59
sg56
(lp760
g49
(g70
g51
NtRp761
(dp762
g54
(dp763
g74
g75
ssg63
g757
sg56
(lp764
S'env'
p765
asbag49
(g70
g51
NtRp766
(dp767
g54
(dp768
g81
g82
ssg63
g757
sg56
(lp769
S':'
asbag49
(g70
g51
NtRp770
(dp771
g54
(dp772
sg63
g757
sg56
(lp773
g49
(g50
g51
NtRp774
(dp775
g54
(dp776
g62
I5
ssg63
g770
sg56
(lp777
g49
(g58
g51
NtRp778
(dp779
g54
(dp780
g62
I4
ssg63
Nsg56
(lp781
g49
(g65
g51
NtRp782
(dp783
g54
(dp784
sg63
g778
sg56
(lp785
g49
(g70
g51
NtRp786
(dp787
g54
(dp788
g74
g75
ssg63
g782
sg56
(lp789
S'app_folders'
p790
asbag49
(g70
g51
NtRp791
(dp792
g54
(dp793
g81
g82
ssg63
g782
sg56
(lp794
S':'
asbag49
(g70
g51
NtRp795
(dp796
g54
(dp797
sg63
g782
sg56
(lp798
g49
(g50
g51
NtRp799
(dp800
g54
(dp801
g62
I4
ssg63
g795
sg56
(lp802
S"set(['/Applications/web2py.app/Contents/Resources/applications/admin/', '/Applications/web2py.app/Contents/Resources/applications/welcome/', '/Applications/web2py.app/Contents/Resources/applications/MR/'])"
p803
asbasbasbag49
(g65
g51
NtRp804
(dp805
g54
(dp806
sg63
g778
sg56
(lp807
g49
(g70
g51
NtRp808
(dp809
g54
(dp810
g74
g75
ssg63
g804
sg56
(lp811
S'applications_parent'
p812
asbag49
(g70
g51
NtRp813
(dp814
g54
(dp815
g81
g82
ssg63
g804
sg56
(lp816
S':'
asbag49
(g70
g51
NtRp817
(dp818
g54
(dp819
sg63
g804
sg56
(lp820
g49
(g50
g51
NtRp821
(dp822
g54
(dp823
g62
I4
ssg63
g817
sg56
(lp824
S'/Applications/web2py.app/Contents/Resources'
p825
asbasbasbag49
(g65
g51
NtRp826
(dp827
g54
(dp828
sg63
g778
sg56
(lp829
g49
(g70
g51
NtRp830
(dp831
g54
(dp832
g74
g75
ssg63
g826
sg56
(lp833
S'cmd_args'
p834
asbag49
(g70
g51
NtRp835
(dp836
g54
(dp837
g81
g82
ssg63
g826
sg56
(lp838
S':'
asbag49
(g70
g51
NtRp839
(dp840
g54
(dp841
sg63
g826
sg56
(lp842
g49
(g50
g51
NtRp843
(dp844
g54
(dp845
g62
I4
ssg63
g839
sg56
(lp846
g49
(g58
g51
NtRp847
(dp848
g54
(dp849
g62
I3
ssg63
Nsg56
(lp850
sbasbasbasbag49
(g65
g51
NtRp851
(dp852
g54
(dp853
sg63
g778
sg56
(lp854
g49
(g70
g51
NtRp855
(dp856
g54
(dp857
g74
g75
ssg63
g851
sg56
(lp858
S'cmd_options'
p859
asbag49
(g70
g51
NtRp860
(dp861
g54
(dp862
g81
g82
ssg63
g851
sg56
(lp863
S':'
asbag49
(g70
g51
NtRp864
(dp865
g54
(dp866
sg63
g851
sg56
(lp867
g49
(g50
g51
NtRp868
(dp869
g54
(dp870
g62
I4
ssg63
g864
sg56
(lp871
S"<Values at 0x4596f58: {'verbose': False, 'ip': '127.0.0.1', 'with_scheduler': False, 'ips': [], 'shutdown_timeout': 5, 'taskbar': False, 'port': 8000, 'maxthreads': None, 'softcron': False, 'server_name': 'Liu-SiyematoMacBook-Pro.local', 'bpython': False, 'nogui': False, 'pid_filename': 'httpserver.pid', 'extcron': False, 'runcron': False, 'run_system_tests': False, 'test': None, 'folder': '/Applications/web2py.app/Contents/Resources', 'config': '', 'import_models': False, 'winservice': '', 'shell': None, 'run': '', 'log_filename': 'httpserver.log', 'debuglevel': 30, 'args': [''], 'socket_timeout': 5, 'ssl_ca_certificate': None, 'scheduler': None, 'profiler_filename': None, 'ssl_private_key': '', 'scheduler_groups': None, 'password': '<ask>', 'request_queue_size': 5, 'ssl_certificate': '', 'cronjob': False, 'numthreads': None, 'quiet': False, 'interfaces': None, 'minthreads': None, 'timeout': 10, 'plain': False, 'nobanner': False}>"
p872
asbasbasbag49
(g65
g51
NtRp873
(dp874
g54
(dp875
sg63
g778
sg56
(lp876
g49
(g70
g51
NtRp877
(dp878
g54
(dp879
g74
g75
ssg63
g873
sg56
(lp880
S'db_sessions'
p881
asbag49
(g70
g51
NtRp882
(dp883
g54
(dp884
g81
g82
ssg63
g873
sg56
(lp885
S':'
asbag49
(g70
g51
NtRp886
(dp887
g54
(dp888
sg63
g873
sg56
(lp889
g49
(g50
g51
NtRp890
(dp891
g54
(dp892
g62
I4
ssg63
g886
sg56
(lp893
S'set([])'
p894
asbasbasbag49
(g65
g51
NtRp895
(dp896
g54
(dp897
sg63
g778
sg56
(lp898
g49
(g70
g51
NtRp899
(dp900
g54
(dp901
g74
g75
ssg63
g895
sg56
(lp902
S'debugging'
p903
asbag49
(g70
g51
NtRp904
(dp905
g54
(dp906
g81
g82
ssg63
g895
sg56
(lp907
S':'
asbag49
(g70
g51
NtRp908
(dp909
g54
(dp910
sg63
g895
sg56
(lp911
g49
(g50
g51
NtRp912
(dp913
g54
(dp914
g62
I4
ssg63
g908
sg56
(lp915
S'True'
p916
asbasbasbag49
(g65
g51
NtRp917
(dp918
g54
(dp919
sg63
g778
sg56
(lp920
g49
(g70
g51
NtRp921
(dp922
g54
(dp923
g74
g75
ssg63
g917
sg56
(lp924
S'gluon_parent'
p925
asbag49
(g70
g51
NtRp926
(dp927
g54
(dp928
g81
g82
ssg63
g917
sg56
(lp929
S':'
asbag49
(g70
g51
NtRp930
(dp931
g54
(dp932
sg63
g917
sg56
(lp933
g49
(g50
g51
NtRp934
(dp935
g54
(dp936
g62
I4
ssg63
g930
sg56
(lp937
S'/Applications/web2py.app/Contents/Resources'
p938
asbasbasbag49
(g65
g51
NtRp939
(dp940
g54
(dp941
sg63
g778
sg56
(lp942
g49
(g70
g51
NtRp943
(dp944
g54
(dp945
g74
g75
ssg63
g939
sg56
(lp946
S'http_accept'
p947
asbag49
(g70
g51
NtRp948
(dp949
g54
(dp950
g81
g82
ssg63
g939
sg56
(lp951
S':'
asbag49
(g70
g51
NtRp952
(dp953
g54
(dp954
sg63
g939
sg56
(lp955
g49
(g50
g51
NtRp956
(dp957
g54
(dp958
g62
I4
ssg63
g952
sg56
(lp959
S'text/html,application/xhtml+xml,application/xml;q=0.9,*/*;q=0.8'
p960
asbasbasbag49
(g65
g51
NtRp961
(dp962
g54
(dp963
sg63
g778
sg56
(lp964
g49
(g70
g51
NtRp965
(dp966
g54
(dp967
g74
g75
ssg63
g961
sg56
(lp968
S'http_accept_charset'
p969
asbag49
(g70
g51
NtRp970
(dp971
g54
(dp972
g81
g82
ssg63
g961
sg56
(lp973
S':'
asbag49
(g70
g51
NtRp974
(dp975
g54
(dp976
sg63
g961
sg56
(lp977
g49
(g50
g51
NtRp978
(dp979
g54
(dp980
g62
I4
ssg63
g974
sg56
(lp981
S'GBK,utf-8;q=0.7,*;q=0.3'
p982
asbasbasbag49
(g65
g51
NtRp983
(dp984
g54
(dp985
sg63
g778
sg56
(lp986
g49
(g70
g51
NtRp987
(dp988
g54
(dp989
g74
g75
ssg63
g983
sg56
(lp990
S'http_accept_encoding'
p991
asbag49
(g70
g51
NtRp992
(dp993
g54
(dp994
g81
g82
ssg63
g983
sg56
(lp995
S':'
asbag49
(g70
g51
NtRp996
(dp997
g54
(dp998
sg63
g983
sg56
(lp999
g49
(g50
g51
NtRp1000
(dp1001
g54
(dp1002
g62
I4
ssg63
g996
sg56
(lp1003
S'gzip,deflate,sdch'
p1004
asbasbasbag49
(g65
g51
NtRp1005
(dp1006
g54
(dp1007
sg63
g778
sg56
(lp1008
g49
(g70
g51
NtRp1009
(dp1010
g54
(dp1011
g74
g75
ssg63
g1005
sg56
(lp1012
S'http_accept_language'
p1013
asbag49
(g70
g51
NtRp1014
(dp1015
g54
(dp1016
g81
g82
ssg63
g1005
sg56
(lp1017
S':'
asbag49
(g70
g51
NtRp1018
(dp1019
g54
(dp1020
sg63
g1005
sg56
(lp1021
g49
(g50
g51
NtRp1022
(dp1023
g54
(dp1024
g62
I4
ssg63
g1018
sg56
(lp1025
S'zh-CN,zh;q=0.8'
p1026
asbasbasbag49
(g65
g51
NtRp1027
(dp1028
g54
(dp1029
sg63
g778
sg56
(lp1030
g49
(g70
g51
NtRp1031
(dp1032
g54
(dp1033
g74
g75
ssg63
g1027
sg56
(lp1034
S'http_connection'
p1035
asbag49
(g70
g51
NtRp1036
(dp1037
g54
(dp1038
g81
g82
ssg63
g1027
sg56
(lp1039
S':'
asbag49
(g70
g51
NtRp1040
(dp1041
g54
(dp1042
sg63
g1027
sg56
(lp1043
g49
(g50
g51
NtRp1044
(dp1045
g54
(dp1046
g62
I4
ssg63
g1040
sg56
(lp1047
S'keep-alive'
p1048
asbasbasbag49
(g65
g51
NtRp1049
(dp1050
g54
(dp1051
sg63
g778
sg56
(lp1052
g49
(g70
g51
NtRp1053
(dp1054
g54
(dp1055
g74
g75
ssg63
g1049
sg56
(lp1056
S'http_cookie'
p1057
asbag49
(g70
g51
NtRp1058
(dp1059
g54
(dp1060
g81
g82
ssg63
g1049
sg56
(lp1061
S':'
asbag49
(g70
g51
NtRp1062
(dp1063
g54
(dp1064
sg63
g1049
sg56
(lp1065
g49
(g50
g51
NtRp1066
(dp1067
g54
(dp1068
g62
I4
ssg63
g1062
sg56
(lp1069
S'session_id_welcome=127.0.0.1-689c372b-4c09-4573-a459-6c50cc578d9b; session_id_admin=127.0.0.1-571b3d08-1b04-4205-803c-964130795403; session_id_mr=127.0.0.1-93356ae9-d6eb-42c1-bf89-8f42dc924ebb'
p1070
asbasbasbag49
(g65
g51
NtRp1071
(dp1072
g54
(dp1073
sg63
g778
sg56
(lp1074
g49
(g70
g51
NtRp1075
(dp1076
g54
(dp1077
g74
g75
ssg63
g1071
sg56
(lp1078
S'http_host'
p1079
asbag49
(g70
g51
NtRp1080
(dp1081
g54
(dp1082
g81
g82
ssg63
g1071
sg56
(lp1083
S':'
asbag49
(g70
g51
NtRp1084
(dp1085
g54
(dp1086
sg63
g1071
sg56
(lp1087
g49
(g50
g51
NtRp1088
(dp1089
g54
(dp1090
g62
I4
ssg63
g1084
sg56
(lp1091
S'127.0.0.1:8000'
p1092
asbasbasbag49
(g65
g51
NtRp1093
(dp1094
g54
(dp1095
sg63
g778
sg56
(lp1096
g49
(g70
g51
NtRp1097
(dp1098
g54
(dp1099
g74
g75
ssg63
g1093
sg56
(lp1100
S'http_user_agent'
p1101
asbag49
(g70
g51
NtRp1102
(dp1103
g54
(dp1104
g81
g82
ssg63
g1093
sg56
(lp1105
S':'
asbag49
(g70
g51
NtRp1106
(dp1107
g54
(dp1108
sg63
g1093
sg56
(lp1109
g49
(g50
g51
NtRp1110
(dp1111
g54
(dp1112
g62
I4
ssg63
g1106
sg56
(lp1113
S'Mozilla/5.0 (Macintosh; Intel Mac OS X 10_8_3) AppleWebKit/537.31 (KHTML, like Gecko) Chrome/26.0.1410.65 Safari/537.31'
p1114
asbasbasbag49
(g65
g51
NtRp1115
(dp1116
g54
(dp1117
sg63
g778
sg56
(lp1118
g49
(g70
g51
NtRp1119
(dp1120
g54
(dp1121
g74
g75
ssg63
g1115
sg56
(lp1122
S'is_jython'
p1123
asbag49
(g70
g51
NtRp1124
(dp1125
g54
(dp1126
g81
g82
ssg63
g1115
sg56
(lp1127
S':'
asbag49
(g70
g51
NtRp1128
(dp1129
g54
(dp1130
sg63
g1115
sg56
(lp1131
g49
(g50
g51
NtRp1132
(dp1133
g54
(dp1134
g62
I4
ssg63
g1128
sg56
(lp1135
g92
asbasbasbag49
(g65
g51
NtRp1136
(dp1137
g54
(dp1138
sg63
g778
sg56
(lp1139
g49
(g70
g51
NtRp1140
(dp1141
g54
(dp1142
g74
g75
ssg63
g1136
sg56
(lp1143
S'is_pypy'
p1144
asbag49
(g70
g51
NtRp1145
(dp1146
g54
(dp1147
g81
g82
ssg63
g1136
sg56
(lp1148
S':'
asbag49
(g70
g51
NtRp1149
(dp1150
g54
(dp1151
sg63
g1136
sg56
(lp1152
g49
(g50
g51
NtRp1153
(dp1154
g54
(dp1155
g62
I4
ssg63
g1149
sg56
(lp1156
g92
asbasbasbag49
(g65
g51
NtRp1157
(dp1158
g54
(dp1159
sg63
g778
sg56
(lp1160
g49
(g70
g51
NtRp1161
(dp1162
g54
(dp1163
g74
g75
ssg63
g1157
sg56
(lp1164
S'local_hosts'
p1165
asbag49
(g70
g51
NtRp1166
(dp1167
g54
(dp1168
g81
g82
ssg63
g1157
sg56
(lp1169
S':'
asbag49
(g70
g51
NtRp1170
(dp1171
g54
(dp1172
sg63
g1157
sg56
(lp1173
g49
(g50
g51
NtRp1174
(dp1175
g54
(dp1176
g62
I4
ssg63
g1170
sg56
(lp1177
g49
(g58
g51
NtRp1178
(dp1179
g54
(dp1180
g62
I3
ssg63
Nsg56
(lp1181
g49
(g65
g51
NtRp1182
(dp1183
g54
(dp1184
sg63
g1178
sg56
(lp1185
g49
(g70
g51
NtRp1186
(dp1187
g54
(dp1188
sg63
g1182
sg56
(lp1189
g49
(g50
g51
NtRp1190
(dp1191
g54
(dp1192
g62
I3
ssg63
g1186
sg56
(lp1193
S'Liu-SiyematoMacBook-Pro.local'
p1194
asbasbasbag49
(g65
g51
NtRp1195
(dp1196
g54
(dp1197
sg63
g1178
sg56
(lp1198
g49
(g70
g51
NtRp1199
(dp1200
g54
(dp1201
sg63
g1195
sg56
(lp1202
g49
(g50
g51
NtRp1203
(dp1204
g54
(dp1205
g62
I3
ssg63
g1199
sg56
(lp1206
S'::1'
p1207
asbasbasbag49
(g65
g51
NtRp1208
(dp1209
g54
(dp1210
sg63
g1178
sg56
(lp1211
g49
(g70
g51
NtRp1212
(dp1213
g54
(dp1214
sg63
g1208
sg56
(lp1215
g49
(g50
g51
NtRp1216
(dp1217
g54
(dp1218
g62
I3
ssg63
g1212
sg56
(lp1219
S'1.0.0.0.0.0.0.0.0.0.0.0.0.0.0.0.0.0.0.0.0.0.0.0.0.0.0.0.0.0.0.0.ip6.arpa'
p1220
asbasbasbag49
(g65
g51
NtRp1221
(dp1222
g54
(dp1223
sg63
g1178
sg56
(lp1224
g49
(g70
g51
NtRp1225
(dp1226
g54
(dp1227
sg63
g1221
sg56
(lp1228
g49
(g50
g51
NtRp1229
(dp1230
g54
(dp1231
g62
I3
ssg63
g1225
sg56
(lp1232
S'::ffff:127.0.0.1'
p1233
asbasbasbag49
(g65
g51
NtRp1234
(dp1235
g54
(dp1236
sg63
g1178
sg56
(lp1237
g49
(g70
g51
NtRp1238
(dp1239
g54
(dp1240
sg63
g1234
sg56
(lp1241
g49
(g50
g51
NtRp1242
(dp1243
g54
(dp1244
g62
I3
ssg63
g1238
sg56
(lp1245
S'127.0.0.1'
p1246
asbasbasbasbasbasbasbag49
(g65
g51
NtRp1247
(dp1248
g54
(dp1249
sg63
g778
sg56
(lp1250
g49
(g70
g51
NtRp1251
(dp1252
g54
(dp1253
g74
g75
ssg63
g1247
sg56
(lp1254
S'path_info'
p1255
asbag49
(g70
g51
NtRp1256
(dp1257
g54
(dp1258
g81
g82
ssg63
g1247
sg56
(lp1259
S':'
asbag49
(g70
g51
NtRp1260
(dp1261
g54
(dp1262
sg63
g1247
sg56
(lp1263
g49
(g50
g51
NtRp1264
(dp1265
g54
(dp1266
g62
I4
ssg63
g1260
sg56
(lp1267
S'/MR/default/mobile_prof_register'
p1268
asbasbasbag49
(g65
g51
NtRp1269
(dp1270
g54
(dp1271
sg63
g778
sg56
(lp1272
g49
(g70
g51
NtRp1273
(dp1274
g54
(dp1275
g74
g75
ssg63
g1269
sg56
(lp1276
S'query_string'
p1277
asbag49
(g70
g51
NtRp1278
(dp1279
g54
(dp1280
g81
g82
ssg63
g1269
sg56
(lp1281
S':'
asbag49
(g70
g51
NtRp1282
(dp1283
g54
(dp1284
sg63
g1269
sg56
(lp1285
g49
(g50
g51
NtRp1286
(dp1287
g54
(dp1288
g62
I4
ssg63
g1282
sg56
(lp1289
S'email=adsfsadf&firstname=asdfasdf&lastname=asdfasdf&password=asdfsdaf'
p1290
asbasbasbag49
(g65
g51
NtRp1291
(dp1292
g54
(dp1293
sg63
g778
sg56
(lp1294
g49
(g70
g51
NtRp1295
(dp1296
g54
(dp1297
g74
g75
ssg63
g1291
sg56
(lp1298
S'remote_addr'
p1299
asbag49
(g70
g51
NtRp1300
(dp1301
g54
(dp1302
g81
g82
ssg63
g1291
sg56
(lp1303
S':'
asbag49
(g70
g51
NtRp1304
(dp1305
g54
(dp1306
sg63
g1291
sg56
(lp1307
g49
(g50
g51
NtRp1308
(dp1309
g54
(dp1310
g62
I4
ssg63
g1304
sg56
(lp1311
g204
asbasbasbag49
(g65
g51
NtRp1312
(dp1313
g54
(dp1314
sg63
g778
sg56
(lp1315
g49
(g70
g51
NtRp1316
(dp1317
g54
(dp1318
g74
g75
ssg63
g1312
sg56
(lp1319
S'remote_port'
p1320
asbag49
(g70
g51
NtRp1321
(dp1322
g54
(dp1323
g81
g82
ssg63
g1312
sg56
(lp1324
S':'
asbag49
(g70
g51
NtRp1325
(dp1326
g54
(dp1327
sg63
g1312
sg56
(lp1328
g49
(g50
g51
NtRp1329
(dp1330
g54
(dp1331
g62
I4
ssg63
g1325
sg56
(lp1332
S'62634'
p1333
asbasbasbag49
(g65
g51
NtRp1334
(dp1335
g54
(dp1336
sg63
g778
sg56
(lp1337
g49
(g70
g51
NtRp1338
(dp1339
g54
(dp1340
g74
g75
ssg63
g1334
sg56
(lp1341
S'request_method'
p1342
asbag49
(g70
g51
NtRp1343
(dp1344
g54
(dp1345
g81
g82
ssg63
g1334
sg56
(lp1346
S':'
asbag49
(g70
g51
NtRp1347
(dp1348
g54
(dp1349
sg63
g1334
sg56
(lp1350
g49
(g50
g51
NtRp1351
(dp1352
g54
(dp1353
g62
I4
ssg63
g1347
sg56
(lp1354
S'GET'
p1355
asbasbasbag49
(g65
g51
NtRp1356
(dp1357
g54
(dp1358
sg63
g778
sg56
(lp1359
g49
(g70
g51
NtRp1360
(dp1361
g54
(dp1362
g74
g75
ssg63
g1356
sg56
(lp1363
S'request_uri'
p1364
asbag49
(g70
g51
NtRp1365
(dp1366
g54
(dp1367
g81
g82
ssg63
g1356
sg56
(lp1368
S':'
asbag49
(g70
g51
NtRp1369
(dp1370
g54
(dp1371
sg63
g1356
sg56
(lp1372
g49
(g50
g51
NtRp1373
(dp1374
g54
(dp1375
g62
I4
ssg63
g1369
sg56
(lp1376
S'/MR/default/mobile_prof_register?email=adsfsadf&firstname=asdfasdf&lastname=asdfasdf&password=asdfsdaf'
p1377
asbasbasbag49
(g65
g51
NtRp1378
(dp1379
g54
(dp1380
sg63
g778
sg56
(lp1381
g49
(g70
g51
NtRp1382
(dp1383
g54
(dp1384
g74
g75
ssg63
g1378
sg56
(lp1385
S'script_name'
p1386
asbag49
(g70
g51
NtRp1387
(dp1388
g54
(dp1389
g81
g82
ssg63
g1378
sg56
(lp1390
S':'
asbag49
(g70
g51
NtRp1391
(dp1392
g54
(dp1393
sg63
g1378
sg56
(lp1394
g49
(g50
g51
NtRp1395
(dp1396
g54
(dp1397
g62
I4
ssg63
g1391
sg56
(lp1398
S''
asbasbasbag49
(g65
g51
NtRp1399
(dp1400
g54
(dp1401
sg63
g778
sg56
(lp1402
g49
(g70
g51
NtRp1403
(dp1404
g54
(dp1405
g74
g75
ssg63
g1399
sg56
(lp1406
S'server_name'
p1407
asbag49
(g70
g51
NtRp1408
(dp1409
g54
(dp1410
g81
g82
ssg63
g1399
sg56
(lp1411
S':'
asbag49
(g70
g51
NtRp1412
(dp1413
g54
(dp1414
sg63
g1399
sg56
(lp1415
g49
(g50
g51
NtRp1416
(dp1417
g54
(dp1418
g62
I4
ssg63
g1412
sg56
(lp1419
S'Liu-SiyematoMacBook-Pro.local'
p1420
asbasbasbag49
(g65
g51
NtRp1421
(dp1422
g54
(dp1423
sg63
g778
sg56
(lp1424
g49
(g70
g51
NtRp1425
(dp1426
g54
(dp1427
g74
g75
ssg63
g1421
sg56
(lp1428
S'server_port'
p1429
asbag49
(g70
g51
NtRp1430
(dp1431
g54
(dp1432
g81
g82
ssg63
g1421
sg56
(lp1433
S':'
asbag49
(g70
g51
NtRp1434
(dp1435
g54
(dp1436
sg63
g1421
sg56
(lp1437
g49
(g50
g51
NtRp1438
(dp1439
g54
(dp1440
g62
I4
ssg63
g1434
sg56
(lp1441
S'8000'
p1442
asbasbasbag49
(g65
g51
NtRp1443
(dp1444
g54
(dp1445
sg63
g778
sg56
(lp1446
g49
(g70
g51
NtRp1447
(dp1448
g54
(dp1449
g74
g75
ssg63
g1443
sg56
(lp1450
S'server_protocol'
p1451
asbag49
(g70
g51
NtRp1452
(dp1453
g54
(dp1454
g81
g82
ssg63
g1443
sg56
(lp1455
S':'
asbag49
(g70
g51
NtRp1456
(dp1457
g54
(dp1458
sg63
g1443
sg56
(lp1459
g49
(g50
g51
NtRp1460
(dp1461
g54
(dp1462
g62
I4
ssg63
g1456
sg56
(lp1463
S'HTTP/1.1'
p1464
asbasbasbag49
(g65
g51
NtRp1465
(dp1466
g54
(dp1467
sg63
g778
sg56
(lp1468
g49
(g70
g51
NtRp1469
(dp1470
g54
(dp1471
g74
g75
ssg63
g1465
sg56
(lp1472
S'server_software'
p1473
asbag49
(g70
g51
NtRp1474
(dp1475
g54
(dp1476
g81
g82
ssg63
g1465
sg56
(lp1477
S':'
asbag49
(g70
g51
NtRp1478
(dp1479
g54
(dp1480
sg63
g1465
sg56
(lp1481
g49
(g50
g51
NtRp1482
(dp1483
g54
(dp1484
g62
I4
ssg63
g1478
sg56
(lp1485
S'Rocket 1.2.6'
p1486
asbasbasbag49
(g65
g51
NtRp1487
(dp1488
g54
(dp1489
sg63
g778
sg56
(lp1490
g49
(g70
g51
NtRp1491
(dp1492
g54
(dp1493
g74
g75
ssg63
g1487
sg56
(lp1494
S'web2py_path'
p1495
asbag49
(g70
g51
NtRp1496
(dp1497
g54
(dp1498
g81
g82
ssg63
g1487
sg56
(lp1499
S':'
asbag49
(g70
g51
NtRp1500
(dp1501
g54
(dp1502
sg63
g1487
sg56
(lp1503
g49
(g50
g51
NtRp1504
(dp1505
g54
(dp1506
g62
I4
ssg63
g1500
sg56
(lp1507
g825
asbasbasbag49
(g65
g51
NtRp1508
(dp1509
g54
(dp1510
sg63
g778
sg56
(lp1511
g49
(g70
g51
NtRp1512
(dp1513
g54
(dp1514
g74
g75
ssg63
g1508
sg56
(lp1515
S'web2py_version'
p1516
asbag49
(g70
g51
NtRp1517
(dp1518
g54
(dp1519
g81
g82
ssg63
g1508
sg56
(lp1520
S':'
asbag49
(g70
g51
NtRp1521
(dp1522
g54
(dp1523
sg63
g1508
sg56
(lp1524
g49
(g50
g51
NtRp1525
(dp1526
g54
(dp1527
g62
I4
ssg63
g1521
sg56
(lp1528
g49
(g58
g51
NtRp1529
(dp1530
g54
(dp1531
g62
I3
ssg63
Nsg56
(lp1532
g49
(g65
g51
NtRp1533
(dp1534
g54
(dp1535
sg63
g1529
sg56
(lp1536
g49
(g70
g51
NtRp1537
(dp1538
g54
(dp1539
sg63
g1533
sg56
(lp1540
g49
(g50
g51
NtRp1541
(dp1542
g54
(dp1543
g62
I3
ssg63
g1537
sg56
(lp1544
S'2'
asbasbasbag49
(g65
g51
NtRp1545
(dp1546
g54
(dp1547
sg63
g1529
sg56
(lp1548
g49
(g70
g51
NtRp1549
(dp1550
g54
(dp1551
sg63
g1545
sg56
(lp1552
g49
(g50
g51
NtRp1553
(dp1554
g54
(dp1555
g62
I3
ssg63
g1549
sg56
(lp1556
S'4'
asbasbasbag49
(g65
g51
NtRp1557
(dp1558
g54
(dp1559
sg63
g1529
sg56
(lp1560
g49
(g70
g51
NtRp1561
(dp1562
g54
(dp1563
sg63
g1557
sg56
(lp1564
g49
(g50
g51
NtRp1565
(dp1566
g54
(dp1567
g62
I3
ssg63
g1561
sg56
(lp1568
S'5'
asbasbasbag49
(g65
g51
NtRp1569
(dp1570
g54
(dp1571
sg63
g1529
sg56
(lp1572
g49
(g70
g51
NtRp1573
(dp1574
g54
(dp1575
sg63
g1569
sg56
(lp1576
g49
(g50
g51
NtRp1577
(dp1578
g54
(dp1579
g62
I3
ssg63
g1573
sg56
(lp1580
S'stable'
p1581
asbasbasbag49
(g65
g51
NtRp1582
(dp1583
g54
(dp1584
sg63
g1529
sg56
(lp1585
g49
(g70
g51
NtRp1586
(dp1587
g54
(dp1588
sg63
g1582
sg56
(lp1589
g49
(g50
g51
NtRp1590
(dp1591
g54
(dp1592
g62
I3
ssg63
g1586
sg56
(lp1593
S'datetime.datetime(2013, 3, 18, 22, 46, 22)'
p1594
asbasbasbasbasbasbasbag49
(g65
g51
NtRp1595
(dp1596
g54
(dp1597
sg63
g778
sg56
(lp1598
g49
(g70
g51
NtRp1599
(dp1600
g54
(dp1601
g74
g75
ssg63
g1595
sg56
(lp1602
S'wsgi_errors'
p1603
asbag49
(g70
g51
NtRp1604
(dp1605
g54
(dp1606
g81
g82
ssg63
g1595
sg56
(lp1607
S':'
asbag49
(g70
g51
NtRp1608
(dp1609
g54
(dp1610
sg63
g1595
sg56
(lp1611
g49
(g50
g51
NtRp1612
(dp1613
g54
(dp1614
g62
I4
ssg63
g1608
sg56
(lp1615
S"<open file '<stderr>', mode 'w' at 0x660b0>"
p1616
asbasbasbag49
(g65
g51
NtRp1617
(dp1618
g54
(dp1619
sg63
g778
sg56
(lp1620
g49
(g70
g51
NtRp1621
(dp1622
g54
(dp1623
g74
g75
ssg63
g1617
sg56
(lp1624
S'wsgi_file_wrapper'
p1625
asbag49
(g70
g51
NtRp1626
(dp1627
g54
(dp1628
g81
g82
ssg63
g1617
sg56
(lp1629
S':'
asbag49
(g70
g51
NtRp1630
(dp1631
g54
(dp1632
sg63
g1617
sg56
(lp1633
g49
(g50
g51
NtRp1634
(dp1635
g54
(dp1636
g62
I4
ssg63
g1630
sg56
(lp1637
S'<class wsgiref.util.FileWrapper at 0x456e060>'
p1638
asbasbasbag49
(g65
g51
NtRp1639
(dp1640
g54
(dp1641
sg63
g778
sg56
(lp1642
g49
(g70
g51
NtRp1643
(dp1644
g54
(dp1645
g74
g75
ssg63
g1639
sg56
(lp1646
S'wsgi_input'
p1647
asbag49
(g70
g51
NtRp1648
(dp1649
g54
(dp1650
g81
g82
ssg63
g1639
sg56
(lp1651
S':'
asbag49
(g70
g51
NtRp1652
(dp1653
g54
(dp1654
sg63
g1639
sg56
(lp1655
g49
(g50
g51
NtRp1656
(dp1657
g54
(dp1658
g62
I4
ssg63
g1652
sg56
(lp1659
S'<socket._fileobject object at 0x78530f0>'
p1660
asbasbasbag49
(g65
g51
NtRp1661
(dp1662
g54
(dp1663
sg63
g778
sg56
(lp1664
g49
(g70
g51
NtRp1665
(dp1666
g54
(dp1667
g74
g75
ssg63
g1661
sg56
(lp1668
S'wsgi_multiprocess'
p1669
asbag49
(g70
g51
NtRp1670
(dp1671
g54
(dp1672
g81
g82
ssg63
g1661
sg56
(lp1673
S':'
asbag49
(g70
g51
NtRp1674
(dp1675
g54
(dp1676
sg63
g1661
sg56
(lp1677
g49
(g50
g51
NtRp1678
(dp1679
g54
(dp1680
g62
I4
ssg63
g1674
sg56
(lp1681
g92
asbasbasbag49
(g65
g51
NtRp1682
(dp1683
g54
(dp1684
sg63
g778
sg56
(lp1685
g49
(g70
g51
NtRp1686
(dp1687
g54
(dp1688
g74
g75
ssg63
g1682
sg56
(lp1689
S'wsgi_multithread'
p1690
asbag49
(g70
g51
NtRp1691
(dp1692
g54
(dp1693
g81
g82
ssg63
g1682
sg56
(lp1694
S':'
asbag49
(g70
g51
NtRp1695
(dp1696
g54
(dp1697
sg63
g1682
sg56
(lp1698
g49
(g50
g51
NtRp1699
(dp1700
g54
(dp1701
g62
I4
ssg63
g1695
sg56
(lp1702
g916
asbasbasbag49
(g65
g51
NtRp1703
(dp1704
g54
(dp1705
sg63
g778
sg56
(lp1706
g49
(g70
g51
NtRp1707
(dp1708
g54
(dp1709
g74
g75
ssg63
g1703
sg56
(lp1710
S'wsgi_run_once'
p1711
asbag49
(g70
g51
NtRp1712
(dp1713
g54
(dp1714
g81
g82
ssg63
g1703
sg56
(lp1715
S':'
asbag49
(g70
g51
NtRp1716
(dp1717
g54
(dp1718
sg63
g1703
sg56
(lp1719
g49
(g50
g51
NtRp1720
(dp1721
g54
(dp1722
g62
I4
ssg63
g1716
sg56
(lp1723
g92
asbasbasbag49
(g65
g51
NtRp1724
(dp1725
g54
(dp1726
sg63
g778
sg56
(lp1727
g49
(g70
g51
NtRp1728
(dp1729
g54
(dp1730
g74
g75
ssg63
g1724
sg56
(lp1731
S'wsgi_url_scheme'
p1732
asbag49
(g70
g51
NtRp1733
(dp1734
g54
(dp1735
g81
g82
ssg63
g1724
sg56
(lp1736
S':'
asbag49
(g70
g51
NtRp1737
(dp1738
g54
(dp1739
sg63
g1724
sg56
(lp1740
g49
(g50
g51
NtRp1741
(dp1742
g54
(dp1743
g62
I4
ssg63
g1737
sg56
(lp1744
S'http'
p1745
asbasbasbag49
(g65
g51
NtRp1746
(dp1747
g54
(dp1748
sg63
g778
sg56
(lp1749
g49
(g70
g51
NtRp1750
(dp1751
g54
(dp1752
g74
g75
ssg63
g1746
sg56
(lp1753
S'wsgi_version'
p1754
asbag49
(g70
g51
NtRp1755
(dp1756
g54
(dp1757
g81
g82
ssg63
g1746
sg56
(lp1758
S':'
asbag49
(g70
g51
NtRp1759
(dp1760
g54
(dp1761
sg63
g1746
sg56
(lp1762
g49
(g50
g51
NtRp1763
(dp1764
g54
(dp1765
g62
I4
ssg63
g1759
sg56
(lp1766
g49
(g58
g51
NtRp1767
(dp1768
g54
(dp1769
g62
I3
ssg63
Nsg56
(lp1770
g49
(g65
g51
NtRp1771
(dp1772
g54
(dp1773
sg63
g1767
sg56
(lp1774
g49
(g70
g51
NtRp1775
(dp1776
g54
(dp1777
sg63
g1771
sg56
(lp1778
g49
(g50
g51
NtRp1779
(dp1780
g54
(dp1781
g62
I3
ssg63
g1775
sg56
(lp1782
S'1'
asbasbasbag49
(g65
g51
NtRp1783
(dp1784
g54
(dp1785
sg63
g1767
sg56
(lp1786
g49
(g70
g51
NtRp1787
(dp1788
g54
(dp1789
sg63
g1783
sg56
(lp1790
g49
(g50
g51
NtRp1791
(dp1792
g54
(dp1793
g62
I3
ssg63
g1787
sg56
(lp1794
S'0'
asbasbasbasbasbasbasbasbasbasbasbag49
(g65
g51
NtRp1795
(dp1796
g54
(dp1797
sg63
g59
sg56
(lp1798
g49
(g70
g51
NtRp1799
(dp1800
g54
(dp1801
g74
g75
ssg63
g1795
sg56
(lp1802
S'extension'
p1803
asbag49
(g70
g51
NtRp1804
(dp1805
g54
(dp1806
g81
g82
ssg63
g1795
sg56
(lp1807
S':'
asbag49
(g70
g51
NtRp1808
(dp1809
g54
(dp1810
sg63
g1795
sg56
(lp1811
g49
(g50
g51
NtRp1812
(dp1813
g54
(dp1814
g62
I5
ssg63
g1808
sg56
(lp1815
S'html'
p1816
asbasbasbag49
(g65
g51
NtRp1817
(dp1818
g54
(dp1819
sg63
g59
sg56
(lp1820
g49
(g70
g51
NtRp1821
(dp1822
g54
(dp1823
g74
g75
ssg63
g1817
sg56
(lp1824
S'folder'
p1825
asbag49
(g70
g51
NtRp1826
(dp1827
g54
(dp1828
g81
g82
ssg63
g1817
sg56
(lp1829
S':'
asbag49
(g70
g51
NtRp1830
(dp1831
g54
(dp1832
sg63
g1817
sg56
(lp1833
g49
(g50
g51
NtRp1834
(dp1835
g54
(dp1836
g62
I5
ssg63
g1830
sg56
(lp1837
S'/Applications/web2py.app/Contents/Resources/applications/MR/'
p1838
asbasbasbag49
(g65
g51
NtRp1839
(dp1840
g54
(dp1841
sg63
g59
sg56
(lp1842
g49
(g70
g51
NtRp1843
(dp1844
g54
(dp1845
g74
g75
ssg63
g1839
sg56
(lp1846
S'function'
p1847
asbag49
(g70
g51
NtRp1848
(dp1849
g54
(dp1850
g81
g82
ssg63
g1839
sg56
(lp1851
S':'
asbag49
(g70
g51
NtRp1852
(dp1853
g54
(dp1854
sg63
g1839
sg56
(lp1855
g49
(g50
g51
NtRp1856
(dp1857
g54
(dp1858
g62
I5
ssg63
g1852
sg56
(lp1859
S'mobile_prof_register'
p1860
asbasbasbag49
(g65
g51
NtRp1861
(dp1862
g54
(dp1863
sg63
g59
sg56
(lp1864
g49
(g70
g51
NtRp1865
(dp1866
g54
(dp1867
g74
g75
ssg63
g1861
sg56
(lp1868
S'get_vars'
p1869
asbag49
(g70
g51
NtRp1870
(dp1871
g54
(dp1872
g81
g82
ssg63
g1861
sg56
(lp1873
S':'
asbag49
(g70
g51
NtRp1874
(dp1875
g54
(dp1876
sg63
g1861
sg56
(lp1877
g49
(g50
g51
NtRp1878
(dp1879
g54
(dp1880
g62
I5
ssg63
g1874
sg56
(lp1881
g49
(g58
g51
NtRp1882
(dp1883
g54
(dp1884
g62
I4
ssg63
Nsg56
(lp1885
g49
(g65
g51
NtRp1886
(dp1887
g54
(dp1888
sg63
g1882
sg56
(lp1889
g49
(g70
g51
NtRp1890
(dp1891
g54
(dp1892
g74
g75
ssg63
g1886
sg56
(lp1893
S'email'
p1894
asbag49
(g70
g51
NtRp1895
(dp1896
g54
(dp1897
g81
g82
ssg63
g1886
sg56
(lp1898
S':'
asbag49
(g70
g51
NtRp1899
(dp1900
g54
(dp1901
sg63
g1886
sg56
(lp1902
g49
(g50
g51
NtRp1903
(dp1904
g54
(dp1905
g62
I4
ssg63
g1899
sg56
(lp1906
S'adsfsadf'
p1907
asbasbasbag49
(g65
g51
NtRp1908
(dp1909
g54
(dp1910
sg63
g1882
sg56
(lp1911
g49
(g70
g51
NtRp1912
(dp1913
g54
(dp1914
g74
g75
ssg63
g1908
sg56
(lp1915
S'firstname'
p1916
asbag49
(g70
g51
NtRp1917
(dp1918
g54
(dp1919
g81
g82
ssg63
g1908
sg56
(lp1920
S':'
asbag49
(g70
g51
NtRp1921
(dp1922
g54
(dp1923
sg63
g1908
sg56
(lp1924
g49
(g50
g51
NtRp1925
(dp1926
g54
(dp1927
g62
I4
ssg63
g1921
sg56
(lp1928
S'asdfasdf'
p1929
asbasbasbag49
(g65
g51
NtRp1930
(dp1931
g54
(dp1932
sg63
g1882
sg56
(lp1933
g49
(g70
g51
NtRp1934
(dp1935
g54
(dp1936
g74
g75
ssg63
g1930
sg56
(lp1937
S'lastname'
p1938
asbag49
(g70
g51
NtRp1939
(dp1940
g54
(dp1941
g81
g82
ssg63
g1930
sg56
(lp1942
S':'
asbag49
(g70
g51
NtRp1943
(dp1944
g54
(dp1945
sg63
g1930
sg56
(lp1946
g49
(g50
g51
NtRp1947
(dp1948
g54
(dp1949
g62
I4
ssg63
g1943
sg56
(lp1950
S'asdfasdf'
p1951
asbasbasbag49
(g65
g51
NtRp1952
(dp1953
g54
(dp1954
sg63
g1882
sg56
(lp1955
g49
(g70
g51
NtRp1956
(dp1957
g54
(dp1958
g74
g75
ssg63
g1952
sg56
(lp1959
S'password'
p1960
asbag49
(g70
g51
NtRp1961
(dp1962
g54
(dp1963
g81
g82
ssg63
g1952
sg56
(lp1964
S':'
asbag49
(g70
g51
NtRp1965
(dp1966
g54
(dp1967
sg63
g1952
sg56
(lp1968
g49
(g50
g51
NtRp1969
(dp1970
g54
(dp1971
g62
I4
ssg63
g1965
sg56
(lp1972
S'asdfsdaf'
p1973
asbasbasbasbasbasbasbag49
(g65
g51
NtRp1974
(dp1975
g54
(dp1976
sg63
g59
sg56
(lp1977
g49
(g70
g51
NtRp1978
(dp1979
g54
(dp1980
g74
g75
ssg63
g1974
sg56
(lp1981
S'global_settings'
p1982
asbag49
(g70
g51
NtRp1983
(dp1984
g54
(dp1985
g81
g82
ssg63
g1974
sg56
(lp1986
S':'
asbag49
(g70
g51
NtRp1987
(dp1988
g54
(dp1989
sg63
g1974
sg56
(lp1990
g49
(g50
g51
NtRp1991
(dp1992
g54
(dp1993
g62
I5
ssg63
g1987
sg56
(lp1994
g49
(g58
g51
NtRp1995
(dp1996
g54
(dp1997
g62
I4
ssg63
Nsg56
(lp1998
g49
(g65
g51
NtRp1999
(dp2000
g54
(dp2001
sg63
g1995
sg56
(lp2002
g49
(g70
g51
NtRp2003
(dp2004
g54
(dp2005
g74
g75
ssg63
g1999
sg56
(lp2006
g790
asbag49
(g70
g51
NtRp2007
(dp2008
g54
(dp2009
g81
g82
ssg63
g1999
sg56
(lp2010
S':'
asbag49
(g70
g51
NtRp2011
(dp2012
g54
(dp2013
sg63
g1999
sg56
(lp2014
g49
(g50
g51
NtRp2015
(dp2016
g54
(dp2017
g62
I4
ssg63
g2011
sg56
(lp2018
S"set(['/Applications/web2py.app/Contents/Resources/applications/admin/', '/Applications/web2py.app/Contents/Resources/applications/welcome/', '/Applications/web2py.app/Contents/Resources/applications/MR/'])"
p2019
asbasbasbag49
(g65
g51
NtRp2020
(dp2021
g54
(dp2022
sg63
g1995
sg56
(lp2023
g49
(g70
g51
NtRp2024
(dp2025
g54
(dp2026
g74
g75
ssg63
g2020
sg56
(lp2027
g812
asbag49
(g70
g51
NtRp2028
(dp2029
g54
(dp2030
g81
g82
ssg63
g2020
sg56
(lp2031
S':'
asbag49
(g70
g51
NtRp2032
(dp2033
g54
(dp2034
sg63
g2020
sg56
(lp2035
g49
(g50
g51
NtRp2036
(dp2037
g54
(dp2038
g62
I4
ssg63
g2032
sg56
(lp2039
g825
asbasbasbag49
(g65
g51
NtRp2040
(dp2041
g54
(dp2042
sg63
g1995
sg56
(lp2043
g49
(g70
g51
NtRp2044
(dp2045
g54
(dp2046
g74
g75
ssg63
g2040
sg56
(lp2047
g834
asbag49
(g70
g51
NtRp2048
(dp2049
g54
(dp2050
g81
g82
ssg63
g2040
sg56
(lp2051
S':'
asbag49
(g70
g51
NtRp2052
(dp2053
g54
(dp2054
sg63
g2040
sg56
(lp2055
g49
(g50
g51
NtRp2056
(dp2057
g54
(dp2058
g62
I4
ssg63
g2052
sg56
(lp2059
g49
(g58
g51
NtRp2060
(dp2061
g54
(dp2062
g62
I3
ssg63
Nsg56
(lp2063
sbasbasbasbag49
(g65
g51
NtRp2064
(dp2065
g54
(dp2066
sg63
g1995
sg56
(lp2067
g49
(g70
g51
NtRp2068
(dp2069
g54
(dp2070
g74
g75
ssg63
g2064
sg56
(lp2071
g859
asbag49
(g70
g51
NtRp2072
(dp2073
g54
(dp2074
g81
g82
ssg63
g2064
sg56
(lp2075
S':'
asbag49
(g70
g51
NtRp2076
(dp2077
g54
(dp2078
sg63
g2064
sg56
(lp2079
g49
(g50
g51
NtRp2080
(dp2081
g54
(dp2082
g62
I4
ssg63
g2076
sg56
(lp2083
S"<Values at 0x4596f58: {'verbose': False, 'ip': '127.0.0.1', 'with_scheduler': False, 'ips': [], 'shutdown_timeout': 5, 'taskbar': False, 'port': 8000, 'maxthreads': None, 'softcron': False, 'server_name': 'Liu-SiyematoMacBook-Pro.local', 'bpython': False, 'nogui': False, 'pid_filename': 'httpserver.pid', 'extcron': False, 'runcron': False, 'run_system_tests': False, 'test': None, 'folder': '/Applications/web2py.app/Contents/Resources', 'config': '', 'import_models': False, 'winservice': '', 'shell': None, 'run': '', 'log_filename': 'httpserver.log', 'debuglevel': 30, 'args': [''], 'socket_timeout': 5, 'ssl_ca_certificate': None, 'scheduler': None, 'profiler_filename': None, 'ssl_private_key': '', 'scheduler_groups': None, 'password': '<ask>', 'request_queue_size': 5, 'ssl_certificate': '', 'cronjob': False, 'numthreads': None, 'quiet': False, 'interfaces': None, 'minthreads': None, 'timeout': 10, 'plain': False, 'nobanner': False}>"
p2084
asbasbasbag49
(g65
g51
NtRp2085
(dp2086
g54
(dp2087
sg63
g1995
sg56
(lp2088
g49
(g70
g51
NtRp2089
(dp2090
g54
(dp2091
g74
g75
ssg63
g2085
sg56
(lp2092
g881
asbag49
(g70
g51
NtRp2093
(dp2094
g54
(dp2095
g81
g82
ssg63
g2085
sg56
(lp2096
S':'
asbag49
(g70
g51
NtRp2097
(dp2098
g54
(dp2099
sg63
g2085
sg56
(lp2100
g49
(g50
g51
NtRp2101
(dp2102
g54
(dp2103
g62
I4
ssg63
g2097
sg56
(lp2104
S'set([])'
p2105
asbasbasbag49
(g65
g51
NtRp2106
(dp2107
g54
(dp2108
sg63
g1995
sg56
(lp2109
g49
(g70
g51
NtRp2110
(dp2111
g54
(dp2112
g74
g75
ssg63
g2106
sg56
(lp2113
g903
asbag49
(g70
g51
NtRp2114
(dp2115
g54
(dp2116
g81
g82
ssg63
g2106
sg56
(lp2117
S':'
asbag49
(g70
g51
NtRp2118
(dp2119
g54
(dp2120
sg63
g2106
sg56
(lp2121
g49
(g50
g51
NtRp2122
(dp2123
g54
(dp2124
g62
I4
ssg63
g2118
sg56
(lp2125
g916
asbasbasbag49
(g65
g51
NtRp2126
(dp2127
g54
(dp2128
sg63
g1995
sg56
(lp2129
g49
(g70
g51
NtRp2130
(dp2131
g54
(dp2132
g74
g75
ssg63
g2126
sg56
(lp2133
g925
asbag49
(g70
g51
NtRp2134
(dp2135
g54
(dp2136
g81
g82
ssg63
g2126
sg56
(lp2137
S':'
asbag49
(g70
g51
NtRp2138
(dp2139
g54
(dp2140
sg63
g2126
sg56
(lp2141
g49
(g50
g51
NtRp2142
(dp2143
g54
(dp2144
g62
I4
ssg63
g2138
sg56
(lp2145
g938
asbasbasbag49
(g65
g51
NtRp2146
(dp2147
g54
(dp2148
sg63
g1995
sg56
(lp2149
g49
(g70
g51
NtRp2150
(dp2151
g54
(dp2152
g74
g75
ssg63
g2146
sg56
(lp2153
g1123
asbag49
(g70
g51
NtRp2154
(dp2155
g54
(dp2156
g81
g82
ssg63
g2146
sg56
(lp2157
S':'
asbag49
(g70
g51
NtRp2158
(dp2159
g54
(dp2160
sg63
g2146
sg56
(lp2161
g49
(g50
g51
NtRp2162
(dp2163
g54
(dp2164
g62
I4
ssg63
g2158
sg56
(lp2165
g92
asbasbasbag49
(g65
g51
NtRp2166
(dp2167
g54
(dp2168
sg63
g1995
sg56
(lp2169
g49
(g70
g51
NtRp2170
(dp2171
g54
(dp2172
g74
g75
ssg63
g2166
sg56
(lp2173
g1144
asbag49
(g70
g51
NtRp2174
(dp2175
g54
(dp2176
g81
g82
ssg63
g2166
sg56
(lp2177
S':'
asbag49
(g70
g51
NtRp2178
(dp2179
g54
(dp2180
sg63
g2166
sg56
(lp2181
g49
(g50
g51
NtRp2182
(dp2183
g54
(dp2184
g62
I4
ssg63
g2178
sg56
(lp2185
g92
asbasbasbag49
(g65
g51
NtRp2186
(dp2187
g54
(dp2188
sg63
g1995
sg56
(lp2189
g49
(g70
g51
NtRp2190
(dp2191
g54
(dp2192
g74
g75
ssg63
g2186
sg56
(lp2193
g1165
asbag49
(g70
g51
NtRp2194
(dp2195
g54
(dp2196
g81
g82
ssg63
g2186
sg56
(lp2197
S':'
asbag49
(g70
g51
NtRp2198
(dp2199
g54
(dp2200
sg63
g2186
sg56
(lp2201
g49
(g50
g51
NtRp2202
(dp2203
g54
(dp2204
g62
I4
ssg63
g2198
sg56
(lp2205
g49
(g58
g51
NtRp2206
(dp2207
g54
(dp2208
g62
I3
ssg63
Nsg56
(lp2209
g49
(g65
g51
NtRp2210
(dp2211
g54
(dp2212
sg63
g2206
sg56
(lp2213
g49
(g70
g51
NtRp2214
(dp2215
g54
(dp2216
sg63
g2210
sg56
(lp2217
g49
(g50
g51
NtRp2218
(dp2219
g54
(dp2220
g62
I3
ssg63
g2214
sg56
(lp2221
g1194
asbasbasbag49
(g65
g51
NtRp2222
(dp2223
g54
(dp2224
sg63
g2206
sg56
(lp2225
g49
(g70
g51
NtRp2226
(dp2227
g54
(dp2228
sg63
g2222
sg56
(lp2229
g49
(g50
g51
NtRp2230
(dp2231
g54
(dp2232
g62
I3
ssg63
g2226
sg56
(lp2233
g1207
asbasbasbag49
(g65
g51
NtRp2234
(dp2235
g54
(dp2236
sg63
g2206
sg56
(lp2237
g49
(g70
g51
NtRp2238
(dp2239
g54
(dp2240
sg63
g2234
sg56
(lp2241
g49
(g50
g51
NtRp2242
(dp2243
g54
(dp2244
g62
I3
ssg63
g2238
sg56
(lp2245
g1220
asbasbasbag49
(g65
g51
NtRp2246
(dp2247
g54
(dp2248
sg63
g2206
sg56
(lp2249
g49
(g70
g51
NtRp2250
(dp2251
g54
(dp2252
sg63
g2246
sg56
(lp2253
g49
(g50
g51
NtRp2254
(dp2255
g54
(dp2256
g62
I3
ssg63
g2250
sg56
(lp2257
g1233
asbasbasbag49
(g65
g51
NtRp2258
(dp2259
g54
(dp2260
sg63
g2206
sg56
(lp2261
g49
(g70
g51
NtRp2262
(dp2263
g54
(dp2264
sg63
g2258
sg56
(lp2265
g49
(g50
g51
NtRp2266
(dp2267
g54
(dp2268
g62
I3
ssg63
g2262
sg56
(lp2269
g1246
asbasbasbasbasbasbasbag49
(g65
g51
NtRp2270
(dp2271
g54
(dp2272
sg63
g1995
sg56
(lp2273
g49
(g70
g51
NtRp2274
(dp2275
g54
(dp2276
g74
g75
ssg63
g2270
sg56
(lp2277
g1516
asbag49
(g70
g51
NtRp2278
(dp2279
g54
(dp2280
g81
g82
ssg63
g2270
sg56
(lp2281
S':'
asbag49
(g70
g51
NtRp2282
(dp2283
g54
(dp2284
sg63
g2270
sg56
(lp2285
g49
(g50
g51
NtRp2286
(dp2287
g54
(dp2288
g62
I4
ssg63
g2282
sg56
(lp2289
g49
(g58
g51
NtRp2290
(dp2291
g54
(dp2292
g62
I3
ssg63
Nsg56
(lp2293
g49
(g65
g51
NtRp2294
(dp2295
g54
(dp2296
sg63
g2290
sg56
(lp2297
g49
(g70
g51
NtRp2298
(dp2299
g54
(dp2300
sg63
g2294
sg56
(lp2301
g49
(g50
g51
NtRp2302
(dp2303
g54
(dp2304
g62
I3
ssg63
g2298
sg56
(lp2305
S'2'
asbasbasbag49
(g65
g51
NtRp2306
(dp2307
g54
(dp2308
sg63
g2290
sg56
(lp2309
g49
(g70
g51
NtRp2310
(dp2311
g54
(dp2312
sg63
g2306
sg56
(lp2313
g49
(g50
g51
NtRp2314
(dp2315
g54
(dp2316
g62
I3
ssg63
g2310
sg56
(lp2317
S'4'
asbasbasbag49
(g65
g51
NtRp2318
(dp2319
g54
(dp2320
sg63
g2290
sg56
(lp2321
g49
(g70
g51
NtRp2322
(dp2323
g54
(dp2324
sg63
g2318
sg56
(lp2325
g49
(g50
g51
NtRp2326
(dp2327
g54
(dp2328
g62
I3
ssg63
g2322
sg56
(lp2329
S'5'
asbasbasbag49
(g65
g51
NtRp2330
(dp2331
g54
(dp2332
sg63
g2290
sg56
(lp2333
g49
(g70
g51
NtRp2334
(dp2335
g54
(dp2336
sg63
g2330
sg56
(lp2337
g49
(g50
g51
NtRp2338
(dp2339
g54
(dp2340
g62
I3
ssg63
g2334
sg56
(lp2341
g1581
asbasbasbag49
(g65
g51
NtRp2342
(dp2343
g54
(dp2344
sg63
g2290
sg56
(lp2345
g49
(g70
g51
NtRp2346
(dp2347
g54
(dp2348
sg63
g2342
sg56
(lp2349
g49
(g50
g51
NtRp2350
(dp2351
g54
(dp2352
g62
I3
ssg63
g2346
sg56
(lp2353
S'datetime.datetime(2013, 3, 18, 22, 46, 22)'
p2354
asbasbasbasbasbasbasbasbasbasbasbag49
(g65
g51
NtRp2355
(dp2356
g54
(dp2357
sg63
g59
sg56
(lp2358
g49
(g70
g51
NtRp2359
(dp2360
g54
(dp2361
g74
g75
ssg63
g2355
sg56
(lp2362
S'is_https'
p2363
asbag49
(g70
g51
NtRp2364
(dp2365
g54
(dp2366
g81
g82
ssg63
g2355
sg56
(lp2367
S':'
asbag49
(g70
g51
NtRp2368
(dp2369
g54
(dp2370
sg63
g2355
sg56
(lp2371
g49
(g50
g51
NtRp2372
(dp2373
g54
(dp2374
g62
I5
ssg63
g2368
sg56
(lp2375
g92
asbasbasbag49
(g65
g51
NtRp2376
(dp2377
g54
(dp2378
sg63
g59
sg56
(lp2379
g49
(g70
g51
NtRp2380
(dp2381
g54
(dp2382
g74
g75
ssg63
g2376
sg56
(lp2383
S'is_local'
p2384
asbag49
(g70
g51
NtRp2385
(dp2386
g54
(dp2387
g81
g82
ssg63
g2376
sg56
(lp2388
S':'
asbag49
(g70
g51
NtRp2389
(dp2390
g54
(dp2391
sg63
g2376
sg56
(lp2392
g49
(g50
g51
NtRp2393
(dp2394
g54
(dp2395
g62
I5
ssg63
g2389
sg56
(lp2396
g916
asbasbasbag49
(g65
g51
NtRp2397
(dp2398
g54
(dp2399
sg63
g59
sg56
(lp2400
g49
(g70
g51
NtRp2401
(dp2402
g54
(dp2403
g74
g75
ssg63
g2397
sg56
(lp2404
S'is_restful'
p2405
asbag49
(g70
g51
NtRp2406
(dp2407
g54
(dp2408
g81
g82
ssg63
g2397
sg56
(lp2409
S':'
asbag49
(g70
g51
NtRp2410
(dp2411
g54
(dp2412
sg63
g2397
sg56
(lp2413
g49
(g50
g51
NtRp2414
(dp2415
g54
(dp2416
g62
I5
ssg63
g2410
sg56
(lp2417
g92
asbasbasbag49
(g65
g51
NtRp2418
(dp2419
g54
(dp2420
sg63
g59
sg56
(lp2421
g49
(g70
g51
NtRp2422
(dp2423
g54
(dp2424
g74
g75
ssg63
g2418
sg56
(lp2425
S'now'
p2426
asbag49
(g70
g51
NtRp2427
(dp2428
g54
(dp2429
g81
g82
ssg63
g2418
sg56
(lp2430
S':'
asbag49
(g70
g51
NtRp2431
(dp2432
g54
(dp2433
sg63
g2418
sg56
(lp2434
g49
(g50
g51
NtRp2435
(dp2436
g54
(dp2437
g62
I5
ssg63
g2431
sg56
(lp2438
S'datetime.datetime(2013, 5, 6, 21, 50, 46, 229871)'
p2439
asbasbasbag49
(g65
g51
NtRp2440
(dp2441
g54
(dp2442
sg63
g59
sg56
(lp2443
g49
(g70
g51
NtRp2444
(dp2445
g54
(dp2446
g74
g75
ssg63
g2440
sg56
(lp2447
S'post_vars'
p2448
asbag49
(g70
g51
NtRp2449
(dp2450
g54
(dp2451
g81
g82
ssg63
g2440
sg56
(lp2452
S':'
asbag49
(g70
g51
NtRp2453
(dp2454
g54
(dp2455
sg63
g2440
sg56
(lp2456
g49
(g50
g51
NtRp2457
(dp2458
g54
(dp2459
g62
I5
ssg63
g2453
sg56
(lp2460
g49
(g58
g51
NtRp2461
(dp2462
g54
(dp2463
g62
I4
ssg63
Nsg56
(lp2464
sbasbasbasbag49
(g65
g51
NtRp2465
(dp2466
g54
(dp2467
sg63
g59
sg56
(lp2468
g49
(g70
g51
NtRp2469
(dp2470
g54
(dp2471
g74
g75
ssg63
g2465
sg56
(lp2472
S'raw_args'
p2473
asbag49
(g70
g51
NtRp2474
(dp2475
g54
(dp2476
g81
g82
ssg63
g2465
sg56
(lp2477
S':'
asbag49
(g70
g51
NtRp2478
(dp2479
g54
(dp2480
sg63
g2465
sg56
(lp2481
g49
(g50
g51
NtRp2482
(dp2483
g54
(dp2484
g62
I5
ssg63
g2478
sg56
(lp2485
S''
asbasbasbag49
(g65
g51
NtRp2486
(dp2487
g54
(dp2488
sg63
g59
sg56
(lp2489
g49
(g70
g51
NtRp2490
(dp2491
g54
(dp2492
g74
g75
ssg63
g2486
sg56
(lp2493
S'raw_extension'
p2494
asbag49
(g70
g51
NtRp2495
(dp2496
g54
(dp2497
g81
g82
ssg63
g2486
sg56
(lp2498
S':'
asbag49
(g70
g51
NtRp2499
(dp2500
g54
(dp2501
sg63
g2486
sg56
(lp2502
g49
(g50
g51
NtRp2503
(dp2504
g54
(dp2505
g62
I5
ssg63
g2499
sg56
(lp2506
S'None'
p2507
asbasbasbag49
(g65
g51
NtRp2508
(dp2509
g54
(dp2510
sg63
g59
sg56
(lp2511
g49
(g70
g51
NtRp2512
(dp2513
g54
(dp2514
g74
g75
ssg63
g2508
sg56
(lp2515
S'url'
p2516
asbag49
(g70
g51
NtRp2517
(dp2518
g54
(dp2519
g81
g82
ssg63
g2508
sg56
(lp2520
S':'
asbag49
(g70
g51
NtRp2521
(dp2522
g54
(dp2523
sg63
g2508
sg56
(lp2524
g49
(g50
g51
NtRp2525
(dp2526
g54
(dp2527
g62
I5
ssg63
g2521
sg56
(lp2528
g1268
asbasbasbag49
(g65
g51
NtRp2529
(dp2530
g54
(dp2531
sg63
g59
sg56
(lp2532
g49
(g70
g51
NtRp2533
(dp2534
g54
(dp2535
g74
g75
ssg63
g2529
sg56
(lp2536
S'utcnow'
p2537
asbag49
(g70
g51
NtRp2538
(dp2539
g54
(dp2540
g81
g82
ssg63
g2529
sg56
(lp2541
S':'
asbag49
(g70
g51
NtRp2542
(dp2543
g54
(dp2544
sg63
g2529
sg56
(lp2545
g49
(g50
g51
NtRp2546
(dp2547
g54
(dp2548
g62
I5
ssg63
g2542
sg56
(lp2549
S'datetime.datetime(2013, 5, 7, 1, 50, 46, 229883)'
p2550
asbasbasbag49
(g65
g51
NtRp2551
(dp2552
g54
(dp2553
sg63
g59
sg56
(lp2554
g49
(g70
g51
NtRp2555
(dp2556
g54
(dp2557
g74
g75
ssg63
g2551
sg56
(lp2558
S'uuid'
p2559
asbag49
(g70
g51
NtRp2560
(dp2561
g54
(dp2562
g81
g82
ssg63
g2551
sg56
(lp2563
S':'
asbag49
(g70
g51
NtRp2564
(dp2565
g54
(dp2566
sg63
g2551
sg56
(lp2567
g49
(g50
g51
NtRp2568
(dp2569
g54
(dp2570
g62
I5
ssg63
g2564
sg56
(lp2571
S'MR/127.0.0.1.2013-05-06.21-50-46.3d4320f2-3132-4a1a-9aa5-97f31e9d57df'
p2572
asbasbasbag49
(g65
g51
NtRp2573
(dp2574
g54
(dp2575
sg63
g59
sg56
(lp2576
g49
(g70
g51
NtRp2577
(dp2578
g54
(dp2579
g74
g75
ssg63
g2573
sg56
(lp2580
S'vars'
p2581
asbag49
(g70
g51
NtRp2582
(dp2583
g54
(dp2584
g81
g82
ssg63
g2573
sg56
(lp2585
S':'
asbag49
(g70
g51
NtRp2586
(dp2587
g54
(dp2588
sg63
g2573
sg56
(lp2589
g49
(g50
g51
NtRp2590
(dp2591
g54
(dp2592
g62
I5
ssg63
g2586
sg56
(lp2593
g49
(g58
g51
NtRp2594
(dp2595
g54
(dp2596
g62
I4
ssg63
Nsg56
(lp2597
g49
(g65
g51
NtRp2598
(dp2599
g54
(dp2600
sg63
g2594
sg56
(lp2601
g49
(g70
g51
NtRp2602
(dp2603
g54
(dp2604
g74
g75
ssg63
g2598
sg56
(lp2605
g1894
asbag49
(g70
g51
NtRp2606
(dp2607
g54
(dp2608
g81
g82
ssg63
g2598
sg56
(lp2609
S':'
asbag49
(g70
g51
NtRp2610
(dp2611
g54
(dp2612
sg63
g2598
sg56
(lp2613
g49
(g50
g51
NtRp2614
(dp2615
g54
(dp2616
g62
I4
ssg63
g2610
sg56
(lp2617
g1907
asbasbasbag49
(g65
g51
NtRp2618
(dp2619
g54
(dp2620
sg63
g2594
sg56
(lp2621
g49
(g70
g51
NtRp2622
(dp2623
g54
(dp2624
g74
g75
ssg63
g2618
sg56
(lp2625
g1916
asbag49
(g70
g51
NtRp2626
(dp2627
g54
(dp2628
g81
g82
ssg63
g2618
sg56
(lp2629
S':'
asbag49
(g70
g51
NtRp2630
(dp2631
g54
(dp2632
sg63
g2618
sg56
(lp2633
g49
(g50
g51
NtRp2634
(dp2635
g54
(dp2636
g62
I4
ssg63
g2630
sg56
(lp2637
g1929
asbasbasbag49
(g65
g51
NtRp2638
(dp2639
g54
(dp2640
sg63
g2594
sg56
(lp2641
g49
(g70
g51
NtRp2642
(dp2643
g54
(dp2644
g74
g75
ssg63
g2638
sg56
(lp2645
g1938
asbag49
(g70
g51
NtRp2646
(dp2647
g54
(dp2648
g81
g82
ssg63
g2638
sg56
(lp2649
S':'
asbag49
(g70
g51
NtRp2650
(dp2651
g54
(dp2652
sg63
g2638
sg56
(lp2653
g49
(g50
g51
NtRp2654
(dp2655
g54
(dp2656
g62
I4
ssg63
g2650
sg56
(lp2657
g1951
asbasbasbag49
(g65
g51
NtRp2658
(dp2659
g54
(dp2660
sg63
g2594
sg56
(lp2661
g49
(g70
g51
NtRp2662
(dp2663
g54
(dp2664
g74
g75
ssg63
g2658
sg56
(lp2665
g1960
asbag49
(g70
g51
NtRp2666
(dp2667
g54
(dp2668
g81
g82
ssg63
g2658
sg56
(lp2669
S':'
asbag49
(g70
g51
NtRp2670
(dp2671
g54
(dp2672
sg63
g2658
sg56
(lp2673
g49
(g50
g51
NtRp2674
(dp2675
g54
(dp2676
g62
I4
ssg63
g2670
sg56
(lp2677
g1973
asbasbasbasbasbasbasbag49
(g65
g51
NtRp2678
(dp2679
g54
(dp2680
sg63
g59
sg56
(lp2681
g49
(g70
g51
NtRp2682
(dp2683
g54
(dp2684
g74
g75
ssg63
g2678
sg56
(lp2685
S'wsgi'
p2686
asbag49
(g70
g51
NtRp2687
(dp2688
g54
(dp2689
g81
g82
ssg63
g2678
sg56
(lp2690
S':'
asbag49
(g70
g51
NtRp2691
(dp2692
g54
(dp2693
sg63
g2678
sg56
(lp2694
g49
(g50
g51
NtRp2695
(dp2696
g54
(dp2697
g62
I5
ssg63
g2691
sg56
(lp2698
g49
(g58
g51
NtRp2699
(dp2700
g54
(dp2701
g62
I4
ssg63
Nsg56
(lp2702
g49
(g65
g51
NtRp2703
(dp2704
g54
(dp2705
sg63
g2699
sg56
(lp2706
g49
(g70
g51
NtRp2707
(dp2708
g54
(dp2709
g74
g75
ssg63
g2703
sg56
(lp2710
S'environ'
p2711
asbag49
(g70
g51
NtRp2712
(dp2713
g54
(dp2714
g81
g82
ssg63
g2703
sg56
(lp2715
S':'
asbag49
(g70
g51
NtRp2716
(dp2717
g54
(dp2718
sg63
g2703
sg56
(lp2719
g49
(g50
g51
NtRp2720
(dp2721
g54
(dp2722
g62
I4
ssg63
g2716
sg56
(lp2723
g49
(g58
g51
NtRp2724
(dp2725
g54
(dp2726
g62
I3
ssg63
Nsg56
(lp2727
g49
(g65
g51
NtRp2728
(dp2729
g54
(dp2730
sg63
g2724
sg56
(lp2731
g49
(g70
g51
NtRp2732
(dp2733
g54
(dp2734
g74
g75
ssg63
g2728
sg56
(lp2735
S'HTTP_ACCEPT'
p2736
asbag49
(g70
g51
NtRp2737
(dp2738
g54
(dp2739
g81
g82
ssg63
g2728
sg56
(lp2740
S':'
asbag49
(g70
g51
NtRp2741
(dp2742
g54
(dp2743
sg63
g2728
sg56
(lp2744
g49
(g50
g51
NtRp2745
(dp2746
g54
(dp2747
g62
I3
ssg63
g2741
sg56
(lp2748
g960
asbasbasbag49
(g65
g51
NtRp2749
(dp2750
g54
(dp2751
sg63
g2724
sg56
(lp2752
g49
(g70
g51
NtRp2753
(dp2754
g54
(dp2755
g74
g75
ssg63
g2749
sg56
(lp2756
S'HTTP_ACCEPT_CHARSET'
p2757
asbag49
(g70
g51
NtRp2758
(dp2759
g54
(dp2760
g81
g82
ssg63
g2749
sg56
(lp2761
S':'
asbag49
(g70
g51
NtRp2762
(dp2763
g54
(dp2764
sg63
g2749
sg56
(lp2765
g49
(g50
g51
NtRp2766
(dp2767
g54
(dp2768
g62
I3
ssg63
g2762
sg56
(lp2769
g982
asbasbasbag49
(g65
g51
NtRp2770
(dp2771
g54
(dp2772
sg63
g2724
sg56
(lp2773
g49
(g70
g51
NtRp2774
(dp2775
g54
(dp2776
g74
g75
ssg63
g2770
sg56
(lp2777
S'HTTP_ACCEPT_ENCODING'
p2778
asbag49
(g70
g51
NtRp2779
(dp2780
g54
(dp2781
g81
g82
ssg63
g2770
sg56
(lp2782
S':'
asbag49
(g70
g51
NtRp2783
(dp2784
g54
(dp2785
sg63
g2770
sg56
(lp2786
g49
(g50
g51
NtRp2787
(dp2788
g54
(dp2789
g62
I3
ssg63
g2783
sg56
(lp2790
g1004
asbasbasbag49
(g65
g51
NtRp2791
(dp2792
g54
(dp2793
sg63
g2724
sg56
(lp2794
g49
(g70
g51
NtRp2795
(dp2796
g54
(dp2797
g74
g75
ssg63
g2791
sg56
(lp2798
S'HTTP_ACCEPT_LANGUAGE'
p2799
asbag49
(g70
g51
NtRp2800
(dp2801
g54
(dp2802
g81
g82
ssg63
g2791
sg56
(lp2803
S':'
asbag49
(g70
g51
NtRp2804
(dp2805
g54
(dp2806
sg63
g2791
sg56
(lp2807
g49
(g50
g51
NtRp2808
(dp2809
g54
(dp2810
g62
I3
ssg63
g2804
sg56
(lp2811
g1026
asbasbasbag49
(g65
g51
NtRp2812
(dp2813
g54
(dp2814
sg63
g2724
sg56
(lp2815
g49
(g70
g51
NtRp2816
(dp2817
g54
(dp2818
g74
g75
ssg63
g2812
sg56
(lp2819
S'HTTP_CONNECTION'
p2820
asbag49
(g70
g51
NtRp2821
(dp2822
g54
(dp2823
g81
g82
ssg63
g2812
sg56
(lp2824
S':'
asbag49
(g70
g51
NtRp2825
(dp2826
g54
(dp2827
sg63
g2812
sg56
(lp2828
g49
(g50
g51
NtRp2829
(dp2830
g54
(dp2831
g62
I3
ssg63
g2825
sg56
(lp2832
g1048
asbasbasbag49
(g65
g51
NtRp2833
(dp2834
g54
(dp2835
sg63
g2724
sg56
(lp2836
g49
(g70
g51
NtRp2837
(dp2838
g54
(dp2839
g74
g75
ssg63
g2833
sg56
(lp2840
S'HTTP_COOKIE'
p2841
asbag49
(g70
g51
NtRp2842
(dp2843
g54
(dp2844
g81
g82
ssg63
g2833
sg56
(lp2845
S':'
asbag49
(g70
g51
NtRp2846
(dp2847
g54
(dp2848
sg63
g2833
sg56
(lp2849
g49
(g50
g51
NtRp2850
(dp2851
g54
(dp2852
g62
I3
ssg63
g2846
sg56
(lp2853
g1070
asbasbasbag49
(g65
g51
NtRp2854
(dp2855
g54
(dp2856
sg63
g2724
sg56
(lp2857
g49
(g70
g51
NtRp2858
(dp2859
g54
(dp2860
g74
g75
ssg63
g2854
sg56
(lp2861
S'HTTP_HOST'
p2862
asbag49
(g70
g51
NtRp2863
(dp2864
g54
(dp2865
g81
g82
ssg63
g2854
sg56
(lp2866
S':'
asbag49
(g70
g51
NtRp2867
(dp2868
g54
(dp2869
sg63
g2854
sg56
(lp2870
g49
(g50
g51
NtRp2871
(dp2872
g54
(dp2873
g62
I3
ssg63
g2867
sg56
(lp2874
g1092
asbasbasbag49
(g65
g51
NtRp2875
(dp2876
g54
(dp2877
sg63
g2724
sg56
(lp2878
g49
(g70
g51
NtRp2879
(dp2880
g54
(dp2881
g74
g75
ssg63
g2875
sg56
(lp2882
S'HTTP_USER_AGENT'
p2883
asbag49
(g70
g51
NtRp2884
(dp2885
g54
(dp2886
g81
g82
ssg63
g2875
sg56
(lp2887
S':'
asbag49
(g70
g51
NtRp2888
(dp2889
g54
(dp2890
sg63
g2875
sg56
(lp2891
g49
(g50
g51
NtRp2892
(dp2893
g54
(dp2894
g62
I3
ssg63
g2888
sg56
(lp2895
g1114
asbasbasbag49
(g65
g51
NtRp2896
(dp2897
g54
(dp2898
sg63
g2724
sg56
(lp2899
g49
(g70
g51
NtRp2900
(dp2901
g54
(dp2902
g74
g75
ssg63
g2896
sg56
(lp2903
S'PATH_INFO'
p2904
asbag49
(g70
g51
NtRp2905
(dp2906
g54
(dp2907
g81
g82
ssg63
g2896
sg56
(lp2908
S':'
asbag49
(g70
g51
NtRp2909
(dp2910
g54
(dp2911
sg63
g2896
sg56
(lp2912
g49
(g50
g51
NtRp2913
(dp2914
g54
(dp2915
g62
I3
ssg63
g2909
sg56
(lp2916
g1268
asbasbasbag49
(g65
g51
NtRp2917
(dp2918
g54
(dp2919
sg63
g2724
sg56
(lp2920
g49
(g70
g51
NtRp2921
(dp2922
g54
(dp2923
g74
g75
ssg63
g2917
sg56
(lp2924
S'QUERY_STRING'
p2925
asbag49
(g70
g51
NtRp2926
(dp2927
g54
(dp2928
g81
g82
ssg63
g2917
sg56
(lp2929
S':'
asbag49
(g70
g51
NtRp2930
(dp2931
g54
(dp2932
sg63
g2917
sg56
(lp2933
g49
(g50
g51
NtRp2934
(dp2935
g54
(dp2936
g62
I3
ssg63
g2930
sg56
(lp2937
g1290
asbasbasbag49
(g65
g51
NtRp2938
(dp2939
g54
(dp2940
sg63
g2724
sg56
(lp2941
g49
(g70
g51
NtRp2942
(dp2943
g54
(dp2944
g74
g75
ssg63
g2938
sg56
(lp2945
S'REMOTE_ADDR'
p2946
asbag49
(g70
g51
NtRp2947
(dp2948
g54
(dp2949
g81
g82
ssg63
g2938
sg56
(lp2950
S':'
asbag49
(g70
g51
NtRp2951
(dp2952
g54
(dp2953
sg63
g2938
sg56
(lp2954
g49
(g50
g51
NtRp2955
(dp2956
g54
(dp2957
g62
I3
ssg63
g2951
sg56
(lp2958
g204
asbasbasbag49
(g65
g51
NtRp2959
(dp2960
g54
(dp2961
sg63
g2724
sg56
(lp2962
g49
(g70
g51
NtRp2963
(dp2964
g54
(dp2965
g74
g75
ssg63
g2959
sg56
(lp2966
S'REMOTE_PORT'
p2967
asbag49
(g70
g51
NtRp2968
(dp2969
g54
(dp2970
g81
g82
ssg63
g2959
sg56
(lp2971
S':'
asbag49
(g70
g51
NtRp2972
(dp2973
g54
(dp2974
sg63
g2959
sg56
(lp2975
g49
(g50
g51
NtRp2976
(dp2977
g54
(dp2978
g62
I3
ssg63
g2972
sg56
(lp2979
g1333
asbasbasbag49
(g65
g51
NtRp2980
(dp2981
g54
(dp2982
sg63
g2724
sg56
(lp2983
g49
(g70
g51
NtRp2984
(dp2985
g54
(dp2986
g74
g75
ssg63
g2980
sg56
(lp2987
S'REQUEST_METHOD'
p2988
asbag49
(g70
g51
NtRp2989
(dp2990
g54
(dp2991
g81
g82
ssg63
g2980
sg56
(lp2992
S':'
asbag49
(g70
g51
NtRp2993
(dp2994
g54
(dp2995
sg63
g2980
sg56
(lp2996
g49
(g50
g51
NtRp2997
(dp2998
g54
(dp2999
g62
I3
ssg63
g2993
sg56
(lp3000
g1355
asbasbasbag49
(g65
g51
NtRp3001
(dp3002
g54
(dp3003
sg63
g2724
sg56
(lp3004
g49
(g70
g51
NtRp3005
(dp3006
g54
(dp3007
g74
g75
ssg63
g3001
sg56
(lp3008
S'REQUEST_URI'
p3009
asbag49
(g70
g51
NtRp3010
(dp3011
g54
(dp3012
g81
g82
ssg63
g3001
sg56
(lp3013
S':'
asbag49
(g70
g51
NtRp3014
(dp3015
g54
(dp3016
sg63
g3001
sg56
(lp3017
g49
(g50
g51
NtRp3018
(dp3019
g54
(dp3020
g62
I3
ssg63
g3014
sg56
(lp3021
g1377
asbasbasbag49
(g65
g51
NtRp3022
(dp3023
g54
(dp3024
sg63
g2724
sg56
(lp3025
g49
(g70
g51
NtRp3026
(dp3027
g54
(dp3028
g74
g75
ssg63
g3022
sg56
(lp3029
S'SCRIPT_NAME'
p3030
asbag49
(g70
g51
NtRp3031
(dp3032
g54
(dp3033
g81
g82
ssg63
g3022
sg56
(lp3034
S':'
asbag49
(g70
g51
NtRp3035
(dp3036
g54
(dp3037
sg63
g3022
sg56
(lp3038
g49
(g50
g51
NtRp3039
(dp3040
g54
(dp3041
g62
I3
ssg63
g3035
sg56
(lp3042
S''
asbasbasbag49
(g65
g51
NtRp3043
(dp3044
g54
(dp3045
sg63
g2724
sg56
(lp3046
g49
(g70
g51
NtRp3047
(dp3048
g54
(dp3049
g74
g75
ssg63
g3043
sg56
(lp3050
S'SERVER_NAME'
p3051
asbag49
(g70
g51
NtRp3052
(dp3053
g54
(dp3054
g81
g82
ssg63
g3043
sg56
(lp3055
S':'
asbag49
(g70
g51
NtRp3056
(dp3057
g54
(dp3058
sg63
g3043
sg56
(lp3059
g49
(g50
g51
NtRp3060
(dp3061
g54
(dp3062
g62
I3
ssg63
g3056
sg56
(lp3063
g1420
asbasbasbag49
(g65
g51
NtRp3064
(dp3065
g54
(dp3066
sg63
g2724
sg56
(lp3067
g49
(g70
g51
NtRp3068
(dp3069
g54
(dp3070
g74
g75
ssg63
g3064
sg56
(lp3071
S'SERVER_PORT'
p3072
asbag49
(g70
g51
NtRp3073
(dp3074
g54
(dp3075
g81
g82
ssg63
g3064
sg56
(lp3076
S':'
asbag49
(g70
g51
NtRp3077
(dp3078
g54
(dp3079
sg63
g3064
sg56
(lp3080
g49
(g50
g51
NtRp3081
(dp3082
g54
(dp3083
g62
I3
ssg63
g3077
sg56
(lp3084
g1442
asbasbasbag49
(g65
g51
NtRp3085
(dp3086
g54
(dp3087
sg63
g2724
sg56
(lp3088
g49
(g70
g51
NtRp3089
(dp3090
g54
(dp3091
g74
g75
ssg63
g3085
sg56
(lp3092
S'SERVER_PROTOCOL'
p3093
asbag49
(g70
g51
NtRp3094
(dp3095
g54
(dp3096
g81
g82
ssg63
g3085
sg56
(lp3097
S':'
asbag49
(g70
g51
NtRp3098
(dp3099
g54
(dp3100
sg63
g3085
sg56
(lp3101
g49
(g50
g51
NtRp3102
(dp3103
g54
(dp3104
g62
I3
ssg63
g3098
sg56
(lp3105
g1464
asbasbasbag49
(g65
g51
NtRp3106
(dp3107
g54
(dp3108
sg63
g2724
sg56
(lp3109
g49
(g70
g51
NtRp3110
(dp3111
g54
(dp3112
g74
g75
ssg63
g3106
sg56
(lp3113
S'SERVER_SOFTWARE'
p3114
asbag49
(g70
g51
NtRp3115
(dp3116
g54
(dp3117
g81
g82
ssg63
g3106
sg56
(lp3118
S':'
asbag49
(g70
g51
NtRp3119
(dp3120
g54
(dp3121
sg63
g3106
sg56
(lp3122
g49
(g50
g51
NtRp3123
(dp3124
g54
(dp3125
g62
I3
ssg63
g3119
sg56
(lp3126
g1486
asbasbasbag49
(g65
g51
NtRp3127
(dp3128
g54
(dp3129
sg63
g2724
sg56
(lp3130
g49
(g70
g51
NtRp3131
(dp3132
g54
(dp3133
g74
g75
ssg63
g3127
sg56
(lp3134
S'wsgi.errors'
p3135
asbag49
(g70
g51
NtRp3136
(dp3137
g54
(dp3138
g81
g82
ssg63
g3127
sg56
(lp3139
S':'
asbag49
(g70
g51
NtRp3140
(dp3141
g54
(dp3142
sg63
g3127
sg56
(lp3143
g49
(g50
g51
NtRp3144
(dp3145
g54
(dp3146
g62
I3
ssg63
g3140
sg56
(lp3147
S"<open file '<stderr>', mode 'w' at 0x660b0>"
p3148
asbasbasbag49
(g65
g51
NtRp3149
(dp3150
g54
(dp3151
sg63
g2724
sg56
(lp3152
g49
(g70
g51
NtRp3153
(dp3154
g54
(dp3155
g74
g75
ssg63
g3149
sg56
(lp3156
S'wsgi.file_wrapper'
p3157
asbag49
(g70
g51
NtRp3158
(dp3159
g54
(dp3160
g81
g82
ssg63
g3149
sg56
(lp3161
S':'
asbag49
(g70
g51
NtRp3162
(dp3163
g54
(dp3164
sg63
g3149
sg56
(lp3165
g49
(g50
g51
NtRp3166
(dp3167
g54
(dp3168
g62
I3
ssg63
g3162
sg56
(lp3169
S'<class wsgiref.util.FileWrapper at 0x456e060>'
p3170
asbasbasbag49
(g65
g51
NtRp3171
(dp3172
g54
(dp3173
sg63
g2724
sg56
(lp3174
g49
(g70
g51
NtRp3175
(dp3176
g54
(dp3177
g74
g75
ssg63
g3171
sg56
(lp3178
S'wsgi.input'
p3179
asbag49
(g70
g51
NtRp3180
(dp3181
g54
(dp3182
g81
g82
ssg63
g3171
sg56
(lp3183
S':'
asbag49
(g70
g51
NtRp3184
(dp3185
g54
(dp3186
sg63
g3171
sg56
(lp3187
g49
(g50
g51
NtRp3188
(dp3189
g54
(dp3190
g62
I3
ssg63
g3184
sg56
(lp3191
S'<cStringIO.StringO object at 0x7811c60>'
p3192
asbasbasbag49
(g65
g51
NtRp3193
(dp3194
g54
(dp3195
sg63
g2724
sg56
(lp3196
g49
(g70
g51
NtRp3197
(dp3198
g54
(dp3199
g74
g75
ssg63
g3193
sg56
(lp3200
S'wsgi.multiprocess'
p3201
asbag49
(g70
g51
NtRp3202
(dp3203
g54
(dp3204
g81
g82
ssg63
g3193
sg56
(lp3205
S':'
asbag49
(g70
g51
NtRp3206
(dp3207
g54
(dp3208
sg63
g3193
sg56
(lp3209
g49
(g50
g51
NtRp3210
(dp3211
g54
(dp3212
g62
I3
ssg63
g3206
sg56
(lp3213
g92
asbasbasbag49
(g65
g51
NtRp3214
(dp3215
g54
(dp3216
sg63
g2724
sg56
(lp3217
g49
(g70
g51
NtRp3218
(dp3219
g54
(dp3220
g74
g75
ssg63
g3214
sg56
(lp3221
S'wsgi.multithread'
p3222
asbag49
(g70
g51
NtRp3223
(dp3224
g54
(dp3225
g81
g82
ssg63
g3214
sg56
(lp3226
S':'
asbag49
(g70
g51
NtRp3227
(dp3228
g54
(dp3229
sg63
g3214
sg56
(lp3230
g49
(g50
g51
NtRp3231
(dp3232
g54
(dp3233
g62
I3
ssg63
g3227
sg56
(lp3234
g916
asbasbasbag49
(g65
g51
NtRp3235
(dp3236
g54
(dp3237
sg63
g2724
sg56
(lp3238
g49
(g70
g51
NtRp3239
(dp3240
g54
(dp3241
g74
g75
ssg63
g3235
sg56
(lp3242
S'wsgi.run_once'
p3243
asbag49
(g70
g51
NtRp3244
(dp3245
g54
(dp3246
g81
g82
ssg63
g3235
sg56
(lp3247
S':'
asbag49
(g70
g51
NtRp3248
(dp3249
g54
(dp3250
sg63
g3235
sg56
(lp3251
g49
(g50
g51
NtRp3252
(dp3253
g54
(dp3254
g62
I3
ssg63
g3248
sg56
(lp3255
g92
asbasbasbag49
(g65
g51
NtRp3256
(dp3257
g54
(dp3258
sg63
g2724
sg56
(lp3259
g49
(g70
g51
NtRp3260
(dp3261
g54
(dp3262
g74
g75
ssg63
g3256
sg56
(lp3263
S'wsgi.url_scheme'
p3264
asbag49
(g70
g51
NtRp3265
(dp3266
g54
(dp3267
g81
g82
ssg63
g3256
sg56
(lp3268
S':'
asbag49
(g70
g51
NtRp3269
(dp3270
g54
(dp3271
sg63
g3256
sg56
(lp3272
g49
(g50
g51
NtRp3273
(dp3274
g54
(dp3275
g62
I3
ssg63
g3269
sg56
(lp3276
g1745
asbasbasbag49
(g65
g51
NtRp3277
(dp3278
g54
(dp3279
sg63
g2724
sg56
(lp3280
g49
(g70
g51
NtRp3281
(dp3282
g54
(dp3283
g74
g75
ssg63
g3277
sg56
(lp3284
S'wsgi.version'
p3285
asbag49
(g70
g51
NtRp3286
(dp3287
g54
(dp3288
g81
g82
ssg63
g3277
sg56
(lp3289
S':'
asbag49
(g70
g51
NtRp3290
(dp3291
g54
(dp3292
sg63
g3277
sg56
(lp3293
g49
(g50
g51
NtRp3294
(dp3295
g54
(dp3296
g62
I3
ssg63
g3290
sg56
(lp3297
S'1'
asbasbasbasbasbasbasbasbasbasbasbasbasbsS'frames'
p3298
(lp3299
(dp3300
S'file'
p3301
S'/home/mdipierro/web2py/gluon/restricted.py'
p3302
sS'dump'
p3303
(dp3304
sS'lnum'
p3305
I212
sS'lines'
p3306
(dp3307
sS'call'
p3308
S"(code='# -*- coding: utf-8 -*-\\n# this file is released ...nse._vars=response._caller(mobile_prof_register)\\n', environment={'A': <class 'gluon.html.A'>, 'Auth': <class 'gluon.tools.Auth'>, 'B': <class 'gluon.html.B'>, 'BEAUTIFY': <class 'gluon.html.BEAUTIFY'>, 'BODY': <class 'gluon.html.BODY'>, 'BR': <class 'gluon.html.BR'>, 'BUTTON': <class 'gluon.html.BUTTON'>, 'CAT': <class 'gluon.html.CAT'>, 'CENTER': <class 'gluon.html.CENTER'>, 'CLEANUP': <class 'gluon.validators.CLEANUP'>, ...}, layer='/Applications/web2py.app/Contents/Resources/applications/MR/controllers/default.py')"
p3309
sS'func'
p3310
S'restricted'
p3311
sa(dp3312
g3301
S'/Applications/web2py.app/Contents/Resources/applications/MR/controllers/default.py'
p3313
sg3303
(dp3314
sg3305
I126
sg3306
(dp3315
I115
S'    http://..../[app]/default/data/update/[table]/[id]'
p3316
sI116
S'    http://..../[app]/default/data/delete/[table]/[id]'
p3317
sI117
S'    http://..../[app]/default/data/select/[table]'
p3318
sI118
S'    http://..../[app]/default/data/search/[table]'
p3319
sI119
S'    but URLs must be signed, i.e. linked with'
p3320
sI120
S"      A('table',_href=URL('data/tables',user_signature=True))"
p3321
sI121
S'    or with the signed load operator'
p3322
sI122
S"      LOAD('default','data.load',args='tables',ajax=True,user_signature=True)"
p3323
sI123
S'    """'
p3324
sI124
S'    return dict(form=crud())'
p3325
ssg3308
S'()'
p3326
sg3310
S'<module>'
p3327
sa(dp3328
g3301
S'/home/mdipierro/web2py/gluon/globals.py'
p3329
sg3303
(dp3330
sg3305
I193
sg3306
(dp3331
sg3308
S'(f=<function mobile_prof_register at 0x933eab0>)'
p3332
sg3310
S'<lambda>'
p3333
sa(dp3334
g3301
S'/Applications/web2py.app/Contents/Resources/applications/MR/controllers/default.py'
p3335
sg3303
(dp3336
sg3305
I83
sg3306
(dp3337
I78
S'    password = request.vars.password'
p3338
sI79
S'    firstname = request.vars.firstname'
p3339
sI80
S'    middlename = request.vars.middlename'
p3340
sI81
S'    lastname = request.vars.lastname'
p3341
sI82
S'    country = request.vars.country'
p3342
sI83
S'    rows = db(db.prof.email==email).select()'
p3343
sI84
S'    result = {}'
p3344
sI85
S''
sI86
S'    if len(rows) != 0:'
p3345
sI87
S'        result[\'status\'] = "exist"'
p3346
ssg3308
S'()'
p3347
sg3310
S'mobile_prof_register'
p3348
sa(dp3349
g3301
S'/home/mdipierro/web2py/gluon/dal.py'
p3350
sg3303
(dp3351
sg3305
I7421
sg3306
(dp3352
sg3308
S'(self=<DAL uri="sqlite://storage.sqlite">, key=\'prof\')'
p3353
sg3310
S'__getattr__'
p3354
sasS'pyver'
p3355
S'Python 2.5.1: /Applications/web2py.app/Contents/MacOS/python'
p3356
sS'session'
p3357
g49
(g50
g51
NtRp3358
(dp3359
g54
(dp3360
sg56
(lp3361
g49
(g58
g51
NtRp3362
(dp3363
g54
(dp3364
g62
I5
ssg63
Nsg56
(lp3365
g49
(g65
g51
NtRp3366
(dp3367
g54
(dp3368
sg63
g3362
sg56
(lp3369
g49
(g70
g51
NtRp3370
(dp3371
g54
(dp3372
g74
g75
ssg63
g3366
sg56
(lp3373
S'last_orderby'
p3374
asbag49
(g70
g51
NtRp3375
(dp3376
g54
(dp3377
g81
g82
ssg63
g3366
sg56
(lp3378
S':'
asbag49
(g70
g51
NtRp3379
(dp3380
g54
(dp3381
sg63
g3366
sg56
(lp3382
g49
(g50
g51
NtRp3383
(dp3384
g54
(dp3385
g62
I5
ssg63
g3379
sg56
(lp3386
S'None'
p3387
asbasbasbag49
(g65
g51
NtRp3388
(dp3389
g54
(dp3390
sg63
g3362
sg56
(lp3391
g49
(g70
g51
NtRp3392
(dp3393
g54
(dp3394
g74
g75
ssg63
g3388
sg56
(lp3395
S'last_query'
p3396
asbag49
(g70
g51
NtRp3397
(dp3398
g54
(dp3399
g81
g82
ssg63
g3388
sg56
(lp3400
S':'
asbag49
(g70
g51
NtRp3401
(dp3402
g54
(dp3403
sg63
g3388
sg56
(lp3404
g49
(g50
g51
NtRp3405
(dp3406
g54
(dp3407
g62
I5
ssg63
g3401
sg56
(lp3408
S'db.doctor.id>0'
p3409
asbasbasbasbasbsS'etype'
p3410
S"<type 'exceptions.AttributeError'>"
p3411
sS'date'
p3412
S'Mon May  6 21:50:46 2013'
p3413
sS'response'
p3414
g49
(g50
g51
NtRp3415
(dp3416
g54
(dp3417
sg56
(lp3418
g49
(g58
g51
NtRp3419
(dp3420
g54
(dp3421
g62
I5
ssg63
Nsg56
(lp3422
g49
(g65
g51
NtRp3423
(dp3424
g54
(dp3425
sg63
g3419
sg56
(lp3426
g49
(g70
g51
NtRp3427
(dp3428
g54
(dp3429
g74
g75
ssg63
g3423
sg56
(lp3430
g147
asbag49
(g70
g51
NtRp3431
(dp3432
g54
(dp3433
g81
g82
ssg63
g3423
sg56
(lp3434
S':'
asbag49
(g70
g51
NtRp3435
(dp3436
g54
(dp3437
sg63
g3423
sg56
(lp3438
g49
(g50
g51
NtRp3439
(dp3440
g54
(dp3441
g62
I5
ssg63
g3435
sg56
(lp3442
S'<cStringIO.StringO object at 0x7811ee0>'
p3443
asbasbasbag49
(g65
g51
NtRp3444
(dp3445
g54
(dp3446
sg63
g3419
sg56
(lp3447
g49
(g70
g51
NtRp3448
(dp3449
g54
(dp3450
g74
g75
ssg63
g3444
sg56
(lp3451
g235
asbag49
(g70
g51
NtRp3452
(dp3453
g54
(dp3454
g81
g82
ssg63
g3444
sg56
(lp3455
S':'
asbag49
(g70
g51
NtRp3456
(dp3457
g54
(dp3458
sg63
g3444
sg56
(lp3459
g49
(g50
g51
NtRp3460
(dp3461
g54
(dp3462
g62
I5
ssg63
g3456
sg56
(lp3463
g49
(g58
g51
NtRp3464
(dp3465
g54
(dp3466
g62
I4
ssg63
Nsg56
(lp3467
g49
(g65
g51
NtRp3468
(dp3469
g54
(dp3470
sg63
g3464
sg56
(lp3471
g49
(g70
g51
NtRp3472
(dp3473
g54
(dp3474
g74
g75
ssg63
g3468
sg56
(lp3475
S'session_id_mr'
p3476
asbag49
(g70
g51
NtRp3477
(dp3478
g54
(dp3479
g81
g82
ssg63
g3468
sg56
(lp3480
S':'
asbag49
(g70
g51
NtRp3481
(dp3482
g54
(dp3483
sg63
g3468
sg56
(lp3484
g49
(g50
g51
NtRp3485
(dp3486
g54
(dp3487
g62
I4
ssg63
g3481
sg56
(lp3488
g446
ag49
(g58
g51
NtRp3489
(dp3490
g54
(dp3491
g62
I3
ssg63
Nsg56
(lp3492
g49
(g65
g51
NtRp3493
(dp3494
g54
(dp3495
sg63
g3489
sg56
(lp3496
g49
(g70
g51
NtRp3497
(dp3498
g54
(dp3499
g74
g75
ssg63
g3493
sg56
(lp3500
g286
asbag49
(g70
g51
NtRp3501
(dp3502
g54
(dp3503
g81
g82
ssg63
g3493
sg56
(lp3504
S':'
asbag49
(g70
g51
NtRp3505
(dp3506
g54
(dp3507
sg63
g3493
sg56
(lp3508
g49
(g50
g51
NtRp3509
(dp3510
g54
(dp3511
g62
I3
ssg63
g3505
sg56
(lp3512
S''
asbasbasbag49
(g65
g51
NtRp3513
(dp3514
g54
(dp3515
sg63
g3489
sg56
(lp3516
g49
(g70
g51
NtRp3517
(dp3518
g54
(dp3519
g74
g75
ssg63
g3513
sg56
(lp3520
g307
asbag49
(g70
g51
NtRp3521
(dp3522
g54
(dp3523
g81
g82
ssg63
g3513
sg56
(lp3524
S':'
asbag49
(g70
g51
NtRp3525
(dp3526
g54
(dp3527
sg63
g3513
sg56
(lp3528
g49
(g50
g51
NtRp3529
(dp3530
g54
(dp3531
g62
I3
ssg63
g3525
sg56
(lp3532
S''
asbasbasbag49
(g65
g51
NtRp3533
(dp3534
g54
(dp3535
sg63
g3489
sg56
(lp3536
g49
(g70
g51
NtRp3537
(dp3538
g54
(dp3539
g74
g75
ssg63
g3533
sg56
(lp3540
g328
asbag49
(g70
g51
NtRp3541
(dp3542
g54
(dp3543
g81
g82
ssg63
g3533
sg56
(lp3544
S':'
asbag49
(g70
g51
NtRp3545
(dp3546
g54
(dp3547
sg63
g3533
sg56
(lp3548
g49
(g50
g51
NtRp3549
(dp3550
g54
(dp3551
g62
I3
ssg63
g3545
sg56
(lp3552
S''
asbasbasbag49
(g65
g51
NtRp3553
(dp3554
g54
(dp3555
sg63
g3489
sg56
(lp3556
g49
(g70
g51
NtRp3557
(dp3558
g54
(dp3559
g74
g75
ssg63
g3553
sg56
(lp3560
g349
asbag49
(g70
g51
NtRp3561
(dp3562
g54
(dp3563
g81
g82
ssg63
g3553
sg56
(lp3564
S':'
asbag49
(g70
g51
NtRp3565
(dp3566
g54
(dp3567
sg63
g3553
sg56
(lp3568
g49
(g50
g51
NtRp3569
(dp3570
g54
(dp3571
g62
I3
ssg63
g3565
sg56
(lp3572
S''
asbasbasbag49
(g65
g51
NtRp3573
(dp3574
g54
(dp3575
sg63
g3489
sg56
(lp3576
g49
(g70
g51
NtRp3577
(dp3578
g54
(dp3579
g74
g75
ssg63
g3573
sg56
(lp3580
g370
asbag49
(g70
g51
NtRp3581
(dp3582
g54
(dp3583
g81
g82
ssg63
g3573
sg56
(lp3584
S':'
asbag49
(g70
g51
NtRp3585
(dp3586
g54
(dp3587
sg63
g3573
sg56
(lp3588
g49
(g50
g51
NtRp3589
(dp3590
g54
(dp3591
g62
I3
ssg63
g3585
sg56
(lp3592
S'/'
asbasbasbag49
(g65
g51
NtRp3593
(dp3594
g54
(dp3595
sg63
g3489
sg56
(lp3596
g49
(g70
g51
NtRp3597
(dp3598
g54
(dp3599
g74
g75
ssg63
g3593
sg56
(lp3600
g391
asbag49
(g70
g51
NtRp3601
(dp3602
g54
(dp3603
g81
g82
ssg63
g3593
sg56
(lp3604
S':'
asbag49
(g70
g51
NtRp3605
(dp3606
g54
(dp3607
sg63
g3593
sg56
(lp3608
g49
(g50
g51
NtRp3609
(dp3610
g54
(dp3611
g62
I3
ssg63
g3605
sg56
(lp3612
S''
asbasbasbag49
(g65
g51
NtRp3613
(dp3614
g54
(dp3615
sg63
g3489
sg56
(lp3616
g49
(g70
g51
NtRp3617
(dp3618
g54
(dp3619
g74
g75
ssg63
g3613
sg56
(lp3620
g412
asbag49
(g70
g51
NtRp3621
(dp3622
g54
(dp3623
g81
g82
ssg63
g3613
sg56
(lp3624
S':'
asbag49
(g70
g51
NtRp3625
(dp3626
g54
(dp3627
sg63
g3613
sg56
(lp3628
g49
(g50
g51
NtRp3629
(dp3630
g54
(dp3631
g62
I3
ssg63
g3625
sg56
(lp3632
S''
asbasbasbasbasbasbasbasbasbasbasbag49
(g65
g51
NtRp3633
(dp3634
g54
(dp3635
sg63
g3419
sg56
(lp3636
g49
(g70
g51
NtRp3637
(dp3638
g54
(dp3639
g74
g75
ssg63
g3633
sg56
(lp3640
S'delimiters'
p3641
asbag49
(g70
g51
NtRp3642
(dp3643
g54
(dp3644
g81
g82
ssg63
g3633
sg56
(lp3645
S':'
asbag49
(g70
g51
NtRp3646
(dp3647
g54
(dp3648
sg63
g3633
sg56
(lp3649
g49
(g50
g51
NtRp3650
(dp3651
g54
(dp3652
g62
I5
ssg63
g3646
sg56
(lp3653
g49
(g58
g51
NtRp3654
(dp3655
g54
(dp3656
g62
I4
ssg63
Nsg56
(lp3657
g49
(g65
g51
NtRp3658
(dp3659
g54
(dp3660
sg63
g3654
sg56
(lp3661
g49
(g70
g51
NtRp3662
(dp3663
g54
(dp3664
sg63
g3658
sg56
(lp3665
g49
(g50
g51
NtRp3666
(dp3667
g54
(dp3668
g62
I4
ssg63
g3662
sg56
(lp3669
S'{{'
p3670
asbasbasbag49
(g65
g51
NtRp3671
(dp3672
g54
(dp3673
sg63
g3654
sg56
(lp3674
g49
(g70
g51
NtRp3675
(dp3676
g54
(dp3677
sg63
g3671
sg56
(lp3678
g49
(g50
g51
NtRp3679
(dp3680
g54
(dp3681
g62
I4
ssg63
g3675
sg56
(lp3682
S'}}'
p3683
asbasbasbasbasbasbasbag49
(g65
g51
NtRp3684
(dp3685
g54
(dp3686
sg63
g3419
sg56
(lp3687
g49
(g70
g51
NtRp3688
(dp3689
g54
(dp3690
g74
g75
ssg63
g3684
sg56
(lp3691
S'files'
p3692
asbag49
(g70
g51
NtRp3693
(dp3694
g54
(dp3695
g81
g82
ssg63
g3684
sg56
(lp3696
S':'
asbag49
(g70
g51
NtRp3697
(dp3698
g54
(dp3699
sg63
g3684
sg56
(lp3700
g49
(g50
g51
NtRp3701
(dp3702
g54
(dp3703
g62
I5
ssg63
g3697
sg56
(lp3704
g49
(g58
g51
NtRp3705
(dp3706
g54
(dp3707
g62
I4
ssg63
Nsg56
(lp3708
sbasbasbasbag49
(g65
g51
NtRp3709
(dp3710
g54
(dp3711
sg63
g3419
sg56
(lp3712
g49
(g70
g51
NtRp3713
(dp3714
g54
(dp3715
g74
g75
ssg63
g3709
sg56
(lp3716
S'flash'
p3717
asbag49
(g70
g51
NtRp3718
(dp3719
g54
(dp3720
g81
g82
ssg63
g3709
sg56
(lp3721
S':'
asbag49
(g70
g51
NtRp3722
(dp3723
g54
(dp3724
sg63
g3709
sg56
(lp3725
g49
(g50
g51
NtRp3726
(dp3727
g54
(dp3728
g62
I5
ssg63
g3722
sg56
(lp3729
S''
asbasbasbag49
(g65
g51
NtRp3730
(dp3731
g54
(dp3732
sg63
g3419
sg56
(lp3733
g49
(g70
g51
NtRp3734
(dp3735
g54
(dp3736
g74
g75
ssg63
g3730
sg56
(lp3737
S'generic_patterns'
p3738
asbag49
(g70
g51
NtRp3739
(dp3740
g54
(dp3741
g81
g82
ssg63
g3730
sg56
(lp3742
S':'
asbag49
(g70
g51
NtRp3743
(dp3744
g54
(dp3745
sg63
g3730
sg56
(lp3746
g49
(g50
g51
NtRp3747
(dp3748
g54
(dp3749
g62
I5
ssg63
g3743
sg56
(lp3750
g49
(g58
g51
NtRp3751
(dp3752
g54
(dp3753
g62
I4
ssg63
Nsg56
(lp3754
g49
(g65
g51
NtRp3755
(dp3756
g54
(dp3757
sg63
g3751
sg56
(lp3758
g49
(g70
g51
NtRp3759
(dp3760
g54
(dp3761
sg63
g3755
sg56
(lp3762
g49
(g50
g51
NtRp3763
(dp3764
g54
(dp3765
g62
I4
ssg63
g3759
sg56
(lp3766
S'*'
asbasbasbasbasbasbasbag49
(g65
g51
NtRp3767
(dp3768
g54
(dp3769
sg63
g3419
sg56
(lp3770
g49
(g70
g51
NtRp3771
(dp3772
g54
(dp3773
g74
g75
ssg63
g3767
sg56
(lp3774
S'google_analytics_id'
p3775
asbag49
(g70
g51
NtRp3776
(dp3777
g54
(dp3778
g81
g82
ssg63
g3767
sg56
(lp3779
S':'
asbag49
(g70
g51
NtRp3780
(dp3781
g54
(dp3782
sg63
g3767
sg56
(lp3783
g49
(g50
g51
NtRp3784
(dp3785
g54
(dp3786
g62
I5
ssg63
g3780
sg56
(lp3787
S'None'
p3788
asbasbasbag49
(g65
g51
NtRp3789
(dp3790
g54
(dp3791
sg63
g3419
sg56
(lp3792
g49
(g70
g51
NtRp3793
(dp3794
g54
(dp3795
g74
g75
ssg63
g3789
sg56
(lp3796
S'headers'
p3797
asbag49
(g70
g51
NtRp3798
(dp3799
g54
(dp3800
g81
g82
ssg63
g3789
sg56
(lp3801
S':'
asbag49
(g70
g51
NtRp3802
(dp3803
g54
(dp3804
sg63
g3789
sg56
(lp3805
g49
(g50
g51
NtRp3806
(dp3807
g54
(dp3808
g62
I5
ssg63
g3802
sg56
(lp3809
g49
(g58
g51
NtRp3810
(dp3811
g54
(dp3812
g62
I4
ssg63
Nsg56
(lp3813
g49
(g65
g51
NtRp3814
(dp3815
g54
(dp3816
sg63
g3810
sg56
(lp3817
g49
(g70
g51
NtRp3818
(dp3819
g54
(dp3820
g74
g75
ssg63
g3814
sg56
(lp3821
S'X-Powered-By'
p3822
asbag49
(g70
g51
NtRp3823
(dp3824
g54
(dp3825
g81
g82
ssg63
g3814
sg56
(lp3826
S':'
asbag49
(g70
g51
NtRp3827
(dp3828
g54
(dp3829
sg63
g3814
sg56
(lp3830
g49
(g50
g51
NtRp3831
(dp3832
g54
(dp3833
g62
I4
ssg63
g3827
sg56
(lp3834
S'web2py'
p3835
asbasbasbasbasbasbasbag49
(g65
g51
NtRp3836
(dp3837
g54
(dp3838
sg63
g3419
sg56
(lp3839
g49
(g70
g51
NtRp3840
(dp3841
g54
(dp3842
g74
g75
ssg63
g3836
sg56
(lp3843
S'logo'
p3844
asbag49
(g70
g51
NtRp3845
(dp3846
g54
(dp3847
g81
g82
ssg63
g3836
sg56
(lp3848
S':'
asbag49
(g70
g51
NtRp3849
(dp3850
g54
(dp3851
sg63
g3836
sg56
(lp3852
g49
(g50
g51
NtRp3853
(dp3854
g54
(dp3855
g62
I5
ssg63
g3849
sg56
(lp3856
g49
(cgluon.html
A
p3857
g51
NtRp3858
(dp3859
g54
(dp3860
S'_class'
p3861
S'brand'
p3862
sS'_href'
p3863
S'http://www.web2py.com/'
p3864
ssg63
Nsg56
(lp3865
g49
(cgluon.html
B
p3866
g51
NtRp3867
(dp3868
g54
(dp3869
sg63
g3858
sg56
(lp3870
S'web'
p3871
ag49
(cgluon.html
SPAN
p3872
g51
NtRp3873
(dp3874
g54
(dp3875
sg63
g3867
sg56
(lp3876
I2
asbaS'py'
p3877
asbacgluon.html
XML_unpickle
p3878
(S's\r\x00\x00\x00&trade;&nbsp;'
tRp3879
asbasbasbasbag49
(g65
g51
NtRp3880
(dp3881
g54
(dp3882
sg63
g3419
sg56
(lp3883
g49
(g70
g51
NtRp3884
(dp3885
g54
(dp3886
g74
g75
ssg63
g3880
sg56
(lp3887
S'menu'
p3888
asbag49
(g70
g51
NtRp3889
(dp3890
g54
(dp3891
g81
g82
ssg63
g3880
sg56
(lp3892
S':'
asbag49
(g70
g51
NtRp3893
(dp3894
g54
(dp3895
sg63
g3880
sg56
(lp3896
g49
(g50
g51
NtRp3897
(dp3898
g54
(dp3899
g62
I5
ssg63
g3893
sg56
(lp3900
g49
(g58
g51
NtRp3901
(dp3902
g54
(dp3903
g62
I4
ssg63
Nsg56
(lp3904
g49
(g65
g51
NtRp3905
(dp3906
g54
(dp3907
sg63
g3901
sg56
(lp3908
g49
(g70
g51
NtRp3909
(dp3910
g54
(dp3911
sg63
g3905
sg56
(lp3912
g49
(g50
g51
NtRp3913
(dp3914
g54
(dp3915
g62
I4
ssg63
g3909
sg56
(lp3916
g49
(g58
g51
NtRp3917
(dp3918
g54
(dp3919
g62
I3
ssg63
Nsg56
(lp3920
g49
(g65
g51
NtRp3921
(dp3922
g54
(dp3923
sg63
g3917
sg56
(lp3924
g49
(g70
g51
NtRp3925
(dp3926
g54
(dp3927
sg63
g3921
sg56
(lp3928
g49
(g50
g51
NtRp3929
(dp3930
g54
(dp3931
g62
I3
ssg63
g3925
sg56
(lp3932
cgluon.languages
lazyT_unpickle
p3933
(S't\x04\x00\x00\x00Home'
tRp3934
asbasbasbag49
(g65
g51
NtRp3935
(dp3936
g54
(dp3937
sg63
g3917
sg56
(lp3938
g49
(g70
g51
NtRp3939
(dp3940
g54
(dp3941
sg63
g3935
sg56
(lp3942
g49
(g50
g51
NtRp3943
(dp3944
g54
(dp3945
g62
I3
ssg63
g3939
sg56
(lp3946
g92
asbasbasbag49
(g65
g51
NtRp3947
(dp3948
g54
(dp3949
sg63
g3917
sg56
(lp3950
g49
(g70
g51
NtRp3951
(dp3952
g54
(dp3953
sg63
g3947
sg56
(lp3954
g49
(g50
g51
NtRp3955
(dp3956
g54
(dp3957
g62
I3
ssg63
g3951
sg56
(lp3958
S'/MR/default/index'
p3959
asbasbasbag49
(g65
g51
NtRp3960
(dp3961
g54
(dp3962
sg63
g3917
sg56
(lp3963
g49
(g70
g51
NtRp3964
(dp3965
g54
(dp3966
sg63
g3960
sg56
(lp3967
g49
(g50
g51
NtRp3968
(dp3969
g54
(dp3970
g62
I3
ssg63
g3964
sg56
(lp3971
g49
(g58
g51
NtRp3972
(dp3973
g54
(dp3974
g62
I2
ssg63
Nsg56
(lp3975
sbasbasbasbasbasbasbasbag49
(g65
g51
NtRp3976
(dp3977
g54
(dp3978
sg63
g3901
sg56
(lp3979
g49
(g70
g51
NtRp3980
(dp3981
g54
(dp3982
sg63
g3976
sg56
(lp3983
g49
(g50
g51
NtRp3984
(dp3985
g54
(dp3986
g62
I4
ssg63
g3980
sg56
(lp3987
g49
(g58
g51
NtRp3988
(dp3989
g54
(dp3990
g62
I3
ssg63
Nsg56
(lp3991
g49
(g65
g51
NtRp3992
(dp3993
g54
(dp3994
sg63
g3988
sg56
(lp3995
g49
(g70
g51
NtRp3996
(dp3997
g54
(dp3998
sg63
g3992
sg56
(lp3999
g49
(g50
g51
NtRp4000
(dp4001
g54
(dp4002
g62
I3
ssg63
g3996
sg56
(lp4003
g49
(g3872
g51
NtRp4004
(dp4005
g54
(dp4006
g3861
S'highlighted'
p4007
ssg63
Nsg56
(lp4008
g3835
asbasbasbasbag49
(g65
g51
NtRp4009
(dp4010
g54
(dp4011
sg63
g3988
sg56
(lp4012
g49
(g70
g51
NtRp4013
(dp4014
g54
(dp4015
sg63
g4009
sg56
(lp4016
g49
(g50
g51
NtRp4017
(dp4018
g54
(dp4019
g62
I3
ssg63
g4013
sg56
(lp4020
g92
asbasbasbag49
(g65
g51
NtRp4021
(dp4022
g54
(dp4023
sg63
g3988
sg56
(lp4024
g49
(g70
g51
NtRp4025
(dp4026
g54
(dp4027
sg63
g4021
sg56
(lp4028
g49
(g50
g51
NtRp4029
(dp4030
g54
(dp4031
g62
I3
ssg63
g4025
sg56
(lp4032
S'http://web2py.com'
p4033
asbasbasbag49
(g65
g51
NtRp4034
(dp4035
g54
(dp4036
sg63
g3988
sg56
(lp4037
g49
(g70
g51
NtRp4038
(dp4039
g54
(dp4040
sg63
g4034
sg56
(lp4041
g49
(g50
g51
NtRp4042
(dp4043
g54
(dp4044
g62
I3
ssg63
g4038
sg56
(lp4045
g49
(g58
g51
NtRp4046
(dp4047
g54
(dp4048
g62
I2
ssg63
Nsg56
(lp4049
g49
(g65
g51
NtRp4050
(dp4051
g54
(dp4052
sg63
g4046
sg56
(lp4053
g49
(g70
g51
NtRp4054
(dp4055
g54
(dp4056
sg63
g4050
sg56
(lp4057
g49
(g50
g51
NtRp4058
(dp4059
g54
(dp4060
g62
I2
ssg63
g4054
sg56
(lp4061
g49
(g58
g51
NtRp4062
(dp4063
g54
(dp4064
g62
I1
ssg63
Nsg56
(lp4065
g49
(g65
g51
NtRp4066
(dp4067
g54
(dp4068
sg63
g4062
sg56
(lp4069
g49
(g70
g51
NtRp4070
(dp4071
g54
(dp4072
sg63
g4066
sg56
(lp4073
g49
(g50
g51
NtRp4074
(dp4075
g54
(dp4076
g62
I1
ssg63
g4070
sg56
(lp4077
g3933
(S's\x08\x00\x00\x00My Sites'
tRp4078
asbasbasbag49
(g65
g51
NtRp4079
(dp4080
g54
(dp4081
sg63
g4062
sg56
(lp4082
g49
(g70
g51
NtRp4083
(dp4084
g54
(dp4085
sg63
g4079
sg56
(lp4086
g49
(g50
g51
NtRp4087
(dp4088
g54
(dp4089
g62
I1
ssg63
g4083
sg56
(lp4090
I00
asbasbasbag49
(g65
g51
NtRp4091
(dp4092
g54
(dp4093
sg63
g4062
sg56
(lp4094
g49
(g70
g51
NtRp4095
(dp4096
g54
(dp4097
sg63
g4091
sg56
(lp4098
g49
(g50
g51
NtRp4099
(dp4100
g54
(dp4101
g62
I1
ssg63
g4095
sg56
(lp4102
S'/admin/default/site'
p4103
asbasbasbasbasbasbasbag49
(g65
g51
NtRp4104
(dp4105
g54
(dp4106
sg63
g4046
sg56
(lp4107
g49
(g70
g51
NtRp4108
(dp4109
g54
(dp4110
sg63
g4104
sg56
(lp4111
g49
(g50
g51
NtRp4112
(dp4113
g54
(dp4114
g62
I2
ssg63
g4108
sg56
(lp4115
g49
(g58
g51
NtRp4116
(dp4117
g54
(dp4118
g62
I1
ssg63
Nsg56
(lp4119
g49
(g65
g51
NtRp4120
(dp4121
g54
(dp4122
sg63
g4116
sg56
(lp4123
g49
(g70
g51
NtRp4124
(dp4125
g54
(dp4126
sg63
g4120
sg56
(lp4127
g49
(g50
g51
NtRp4128
(dp4129
g54
(dp4130
g62
I1
ssg63
g4124
sg56
(lp4131
g3933
(S's\x08\x00\x00\x00This App'
tRp4132
asbasbasbag49
(g65
g51
NtRp4133
(dp4134
g54
(dp4135
sg63
g4116
sg56
(lp4136
g49
(g70
g51
NtRp4137
(dp4138
g54
(dp4139
sg63
g4133
sg56
(lp4140
g49
(g50
g51
NtRp4141
(dp4142
g54
(dp4143
g62
I1
ssg63
g4137
sg56
(lp4144
I00
asbasbasbag49
(g65
g51
NtRp4145
(dp4146
g54
(dp4147
sg63
g4116
sg56
(lp4148
g49
(g70
g51
NtRp4149
(dp4150
g54
(dp4151
sg63
g4145
sg56
(lp4152
g49
(g50
g51
NtRp4153
(dp4154
g54
(dp4155
g62
I1
ssg63
g4149
sg56
(lp4156
S'/admin/default/design/MR'
p4157
asbasbasbag49
(g65
g51
NtRp4158
(dp4159
g54
(dp4160
sg63
g4116
sg56
(lp4161
g49
(g70
g51
NtRp4162
(dp4163
g54
(dp4164
sg63
g4158
sg56
(lp4165
g49
(g50
g51
NtRp4166
(dp4167
g54
(dp4168
g62
I1
ssg63
g4162
sg56
(lp4169
(lp4170
(g3933
(S's\x06\x00\x00\x00\xe6\x8e\xa7\xe4\xbb\xb6'
tRp4171
I00
S'/admin/default/edit/MR/controllers/default.py'
tp4172
a(g3933
(S's\x06\x00\x00\x00\xe8\xa6\x96\xe5\x9c\x96'
tRp4173
I00
S'/admin/default/edit/MR/views/default/mobile_prof_register.html'
tp4174
a(g3933
(S's\x0c\x00\x00\x00\xe7\xb6\xb2\xe9\xa0\x81\xe9\x85\x8d\xe7\xbd\xae'
tRp4175
I00
S'/admin/default/edit/MR/views/layout.html'
tp4176
a(g3933
(S's\x0f\x00\x00\x00\xe7\xb6\xb2\xe9\xa0\x81\xe9\xa2\xa8\xe6\xa0\xbc\xe6\xaa\x94'
tRp4177
I00
S'/admin/default/edit/MR/static/css/web2py.css'
tp4178
a(g3933
(S's\x0f\x00\x00\x00\xe8\xb3\x87\xe6\x96\x99\xe5\xba\xab\xe6\xa8\xa1\xe7\xb5\x84'
tRp4179
I00
S'/admin/default/edit/MR/models/db.py'
tp4180
a(g3933
(S's\x12\x00\x00\x00\xe9\x81\xb8\xe5\x96\xae\xe6\xa8\xa1\xe7\xb5\x84(menu)'
tRp4181
I00
S'/admin/default/edit/MR/models/menu.py'
tp4182
a(g3933
(S's\t\x00\x00\x00\xe8\xb3\x87\xe6\x96\x99\xe5\xba\xab'
tRp4183
I00
S'/MR/appadmin/index'
tp4184
a(g3933
(S't\x06\x00\x00\x00Errors'
tRp4185
I00
S'/admin/default/errors/MR'
tp4186
a(g3933
(S's\x06\x00\x00\x00\xe9\x97\x9c\xe6\x96\xbc'
tRp4187
I00
S'/admin/default/about/MR'
tp4188
aasbasbasbasbasbasbasbag49
(g65
g51
NtRp4189
(dp4190
g54
(dp4191
sg63
g4046
sg56
(lp4192
g49
(g70
g51
NtRp4193
(dp4194
g54
(dp4195
sg63
g4189
sg56
(lp4196
g49
(g50
g51
NtRp4197
(dp4198
g54
(dp4199
g62
I2
ssg63
g4193
sg56
(lp4200
g49
(g58
g51
NtRp4201
(dp4202
g54
(dp4203
g62
I1
ssg63
Nsg56
(lp4204
g49
(g65
g51
NtRp4205
(dp4206
g54
(dp4207
sg63
g4201
sg56
(lp4208
g49
(g70
g51
NtRp4209
(dp4210
g54
(dp4211
sg63
g4205
sg56
(lp4212
g49
(g50
g51
NtRp4213
(dp4214
g54
(dp4215
g62
I1
ssg63
g4209
sg56
(lp4216
S'web2py.com'
p4217
asbasbasbag49
(g65
g51
NtRp4218
(dp4219
g54
(dp4220
sg63
g4201
sg56
(lp4221
g49
(g70
g51
NtRp4222
(dp4223
g54
(dp4224
sg63
g4218
sg56
(lp4225
g49
(g50
g51
NtRp4226
(dp4227
g54
(dp4228
g62
I1
ssg63
g4222
sg56
(lp4229
I00
asbasbasbag49
(g65
g51
NtRp4230
(dp4231
g54
(dp4232
sg63
g4201
sg56
(lp4233
g49
(g70
g51
NtRp4234
(dp4235
g54
(dp4236
sg63
g4230
sg56
(lp4237
g49
(g50
g51
NtRp4238
(dp4239
g54
(dp4240
g62
I1
ssg63
g4234
sg56
(lp4241
S'http://www.web2py.com'
p4242
asbasbasbag49
(g65
g51
NtRp4243
(dp4244
g54
(dp4245
sg63
g4201
sg56
(lp4246
g49
(g70
g51
NtRp4247
(dp4248
g54
(dp4249
sg63
g4243
sg56
(lp4250
g49
(g50
g51
NtRp4251
(dp4252
g54
(dp4253
g62
I1
ssg63
g4247
sg56
(lp4254
(lp4255
(g3933
(S't\x08\x00\x00\x00Download'
tRp4256
I00
S'http://www.web2py.com/examples/default/download'
p4257
tp4258
a(g3933
(S't\x07\x00\x00\x00Support'
tRp4259
I00
S'http://www.web2py.com/examples/default/support'
p4260
tp4261
a(g3933
(S't\x04\x00\x00\x00Demo'
tRp4262
I00
S'http://web2py.com/demo_admin'
p4263
tp4264
a(g3933
(S's\x0e\x00\x00\x00Quick Examples'
tRp4265
I00
S'http://web2py.com/examples/default/examples'
p4266
tp4267
a(g3933
(S't\x03\x00\x00\x00FAQ'
tRp4268
I00
S'http://web2py.com/AlterEgo'
p4269
tp4270
a(g3933
(S't\x06\x00\x00\x00Videos'
tRp4271
I00
S'http://www.web2py.com/examples/default/videos/'
p4272
tp4273
a(g3933
(S's\x11\x00\x00\x00Free Applications'
tRp4274
I00
S'http://web2py.com/appliances'
p4275
tp4276
a(g3933
(S't\x07\x00\x00\x00Plugins'
tRp4277
I00
S'http://web2py.com/plugins'
p4278
tp4279
a(g3933
(S't\x07\x00\x00\x00Layouts'
tRp4280
I00
S'http://web2py.com/layouts'
p4281
tp4282
a(g3933
(S't\x07\x00\x00\x00Recipes'
tRp4283
I00
S'http://web2pyslices.com/'
p4284
tp4285
a(g3933
(S't\x08\x00\x00\x00Semantic'
tRp4286
I00
S'http://web2py.com/semantic'
p4287
tp4288
aasbasbasbasbasbasbasbag49
(g65
g51
NtRp4289
(dp4290
g54
(dp4291
sg63
g4046
sg56
(lp4292
g49
(g70
g51
NtRp4293
(dp4294
g54
(dp4295
sg63
g4289
sg56
(lp4296
g49
(g50
g51
NtRp4297
(dp4298
g54
(dp4299
g62
I2
ssg63
g4293
sg56
(lp4300
g49
(g58
g51
NtRp4301
(dp4302
g54
(dp4303
g62
I1
ssg63
Nsg56
(lp4304
g49
(g65
g51
NtRp4305
(dp4306
g54
(dp4307
sg63
g4301
sg56
(lp4308
g49
(g70
g51
NtRp4309
(dp4310
g54
(dp4311
sg63
g4305
sg56
(lp4312
g49
(g50
g51
NtRp4313
(dp4314
g54
(dp4315
g62
I1
ssg63
g4309
sg56
(lp4316
g3933
(S't\r\x00\x00\x00Documentation'
tRp4317
asbasbasbag49
(g65
g51
NtRp4318
(dp4319
g54
(dp4320
sg63
g4301
sg56
(lp4321
g49
(g70
g51
NtRp4322
(dp4323
g54
(dp4324
sg63
g4318
sg56
(lp4325
g49
(g50
g51
NtRp4326
(dp4327
g54
(dp4328
g62
I1
ssg63
g4322
sg56
(lp4329
I00
asbasbasbag49
(g65
g51
NtRp4330
(dp4331
g54
(dp4332
sg63
g4301
sg56
(lp4333
g49
(g70
g51
NtRp4334
(dp4335
g54
(dp4336
sg63
g4330
sg56
(lp4337
g49
(g50
g51
NtRp4338
(dp4339
g54
(dp4340
g62
I1
ssg63
g4334
sg56
(lp4341
S'http://www.web2py.com/book'
p4342
asbasbasbag49
(g65
g51
NtRp4343
(dp4344
g54
(dp4345
sg63
g4301
sg56
(lp4346
g49
(g70
g51
NtRp4347
(dp4348
g54
(dp4349
sg63
g4343
sg56
(lp4350
g49
(g50
g51
NtRp4351
(dp4352
g54
(dp4353
g62
I1
ssg63
g4347
sg56
(lp4354
(lp4355
(g3933
(S't\x07\x00\x00\x00Preface'
tRp4356
I00
S'http://www.web2py.com/book/default/chapter/00'
p4357
tp4358
a(g3933
(S't\x0c\x00\x00\x00Introduction'
tRp4359
I00
S'http://www.web2py.com/book/default/chapter/01'
p4360
tp4361
a(g3933
(S't\x06\x00\x00\x00Python'
tRp4362
I00
S'http://www.web2py.com/book/default/chapter/02'
p4363
tp4364
a(g3933
(S't\x08\x00\x00\x00Overview'
tRp4365
I00
S'http://www.web2py.com/book/default/chapter/03'
p4366
tp4367
a(g3933
(S's\x08\x00\x00\x00The Core'
tRp4368
I00
S'http://www.web2py.com/book/default/chapter/04'
p4369
tp4370
a(g3933
(S's\t\x00\x00\x00The Views'
tRp4371
I00
S'http://www.web2py.com/book/default/chapter/05'
p4372
tp4373
a(g3933
(S's\t\x00\x00\x00\xe8\xb3\x87\xe6\x96\x99\xe5\xba\xab'
tRp4374
I00
S'http://www.web2py.com/book/default/chapter/06'
p4375
tp4376
a(g3933
(S's\x14\x00\x00\x00Forms and Validators'
tRp4377
I00
S'http://www.web2py.com/book/default/chapter/07'
p4378
tp4379
a(g3933
(S's\r\x00\x00\x00Email and SMS'
tRp4380
I00
S'http://www.web2py.com/book/default/chapter/08'
p4381
tp4382
a(g3933
(S's\x0e\x00\x00\x00Access Control'
tRp4383
I00
S'http://www.web2py.com/book/default/chapter/09'
p4384
tp4385
a(g3933
(S't\x08\x00\x00\x00Services'
tRp4386
I00
S'http://www.web2py.com/book/default/chapter/10'
p4387
tp4388
a(g3933
(S's\x0c\x00\x00\x00Ajax Recipes'
tRp4389
I00
S'http://www.web2py.com/book/default/chapter/11'
p4390
tp4391
a(g3933
(S's\x16\x00\x00\x00Components and Plugins'
tRp4392
I00
S'http://www.web2py.com/book/default/chapter/12'
p4393
tp4394
a(g3933
(S's\x12\x00\x00\x00Deployment Recipes'
tRp4395
I00
S'http://www.web2py.com/book/default/chapter/13'
p4396
tp4397
a(g3933
(S's\r\x00\x00\x00Other Recipes'
tRp4398
I00
S'http://www.web2py.com/book/default/chapter/14'
p4399
tp4400
a(g3933
(S's\r\x00\x00\x00Buy this book'
tRp4401
I00
S'http://stores.lulu.com/web2py'
p4402
tp4403
aasbasbasbasbasbasbasbag49
(g65
g51
NtRp4404
(dp4405
g54
(dp4406
sg63
g4046
sg56
(lp4407
g49
(g70
g51
NtRp4408
(dp4409
g54
(dp4410
sg63
g4404
sg56
(lp4411
g49
(g50
g51
NtRp4412
(dp4413
g54
(dp4414
g62
I2
ssg63
g4408
sg56
(lp4415
g49
(g58
g51
NtRp4416
(dp4417
g54
(dp4418
g62
I1
ssg63
Nsg56
(lp4419
g49
(g65
g51
NtRp4420
(dp4421
g54
(dp4422
sg63
g4416
sg56
(lp4423
g49
(g70
g51
NtRp4424
(dp4425
g54
(dp4426
sg63
g4420
sg56
(lp4427
g49
(g50
g51
NtRp4428
(dp4429
g54
(dp4430
g62
I1
ssg63
g4424
sg56
(lp4431
g3933
(S't\t\x00\x00\x00Community'
tRp4432
asbasbasbag49
(g65
g51
NtRp4433
(dp4434
g54
(dp4435
sg63
g4416
sg56
(lp4436
g49
(g70
g51
NtRp4437
(dp4438
g54
(dp4439
sg63
g4433
sg56
(lp4440
g49
(g50
g51
NtRp4441
(dp4442
g54
(dp4443
g62
I1
ssg63
g4437
sg56
(lp4444
I00
asbasbasbag49
(g65
g51
NtRp4445
(dp4446
g54
(dp4447
sg63
g4416
sg56
(lp4448
g49
(g70
g51
NtRp4449
(dp4450
g54
(dp4451
sg63
g4445
sg56
(lp4452
g49
(g50
g51
NtRp4453
(dp4454
g54
(dp4455
g62
I1
ssg63
g4449
sg56
(lp4456
Nasbasbasbag49
(g65
g51
NtRp4457
(dp4458
g54
(dp4459
sg63
g4416
sg56
(lp4460
g49
(g70
g51
NtRp4461
(dp4462
g54
(dp4463
sg63
g4457
sg56
(lp4464
g49
(g50
g51
NtRp4465
(dp4466
g54
(dp4467
g62
I1
ssg63
g4461
sg56
(lp4468
(lp4469
(g3933
(S't\x06\x00\x00\x00Groups'
tRp4470
I00
S'http://www.web2py.com/examples/default/usergroups'
p4471
tp4472
a(g3933
(S't\x07\x00\x00\x00Twitter'
tRp4473
I00
S'http://twitter.com/web2py'
p4474
tp4475
a(g3933
(S's\t\x00\x00\x00Live Chat'
tRp4476
I00
S'http://webchat.freenode.net/?channels=web2py'
p4477
tp4478
aasbasbasbasbasbasbasbag49
(g65
g51
NtRp4479
(dp4480
g54
(dp4481
sg63
g4046
sg56
(lp4482
g49
(g70
g51
NtRp4483
(dp4484
g54
(dp4485
sg63
g4479
sg56
(lp4486
g49
(g50
g51
NtRp4487
(dp4488
g54
(dp4489
g62
I2
ssg63
g4483
sg56
(lp4490
g49
(g58
g51
NtRp4491
(dp4492
g54
(dp4493
g62
I1
ssg63
Nsg56
(lp4494
g49
(g65
g51
NtRp4495
(dp4496
g54
(dp4497
sg63
g4491
sg56
(lp4498
g49
(g70
g51
NtRp4499
(dp4500
g54
(dp4501
sg63
g4495
sg56
(lp4502
g49
(g50
g51
NtRp4503
(dp4504
g54
(dp4505
g62
I1
ssg63
g4499
sg56
(lp4506
g3933
(S't\x07\x00\x00\x00Plugins'
tRp4507
asbasbasbag49
(g65
g51
NtRp4508
(dp4509
g54
(dp4510
sg63
g4491
sg56
(lp4511
g49
(g70
g51
NtRp4512
(dp4513
g54
(dp4514
sg63
g4508
sg56
(lp4515
g49
(g50
g51
NtRp4516
(dp4517
g54
(dp4518
g62
I1
ssg63
g4512
sg56
(lp4519
I00
asbasbasbag49
(g65
g51
NtRp4520
(dp4521
g54
(dp4522
sg63
g4491
sg56
(lp4523
g49
(g70
g51
NtRp4524
(dp4525
g54
(dp4526
sg63
g4520
sg56
(lp4527
g49
(g50
g51
NtRp4528
(dp4529
g54
(dp4530
g62
I1
ssg63
g4524
sg56
(lp4531
Nasbasbasbag49
(g65
g51
NtRp4532
(dp4533
g54
(dp4534
sg63
g4491
sg56
(lp4535
g49
(g70
g51
NtRp4536
(dp4537
g54
(dp4538
sg63
g4532
sg56
(lp4539
g49
(g50
g51
NtRp4540
(dp4541
g54
(dp4542
g62
I1
ssg63
g4536
sg56
(lp4543
(lp4544
(S'plugin_wiki'
p4545
I00
S'http://web2py.com/examples/default/download'
p4546
tp4547
a(g3933
(S's\r\x00\x00\x00Other Plugins'
tRp4548
I00
g4278
tp4549
a(g3933
(S's\x0e\x00\x00\x00Layout Plugins'
tRp4550
I00
g4281
tp4551
aasbasbasbasbasbasbasbasbasbasbasbasbasbasbasbasbasbasbasbag49
(g65
g51
NtRp4552
(dp4553
g54
(dp4554
sg63
g3419
sg56
(lp4555
g49
(g70
g51
NtRp4556
(dp4557
g54
(dp4558
g74
g75
ssg63
g4552
sg56
(lp4559
S'meta'
p4560
asbag49
(g70
g51
NtRp4561
(dp4562
g54
(dp4563
g81
g82
ssg63
g4552
sg56
(lp4564
S':'
asbag49
(g70
g51
NtRp4565
(dp4566
g54
(dp4567
sg63
g4552
sg56
(lp4568
g49
(g50
g51
NtRp4569
(dp4570
g54
(dp4571
g62
I5
ssg63
g4565
sg56
(lp4572
g49
(g58
g51
NtRp4573
(dp4574
g54
(dp4575
g62
I4
ssg63
Nsg56
(lp4576
g49
(g65
g51
NtRp4577
(dp4578
g54
(dp4579
sg63
g4573
sg56
(lp4580
g49
(g70
g51
NtRp4581
(dp4582
g54
(dp4583
g74
g75
ssg63
g4577
sg56
(lp4584
S'author'
p4585
asbag49
(g70
g51
NtRp4586
(dp4587
g54
(dp4588
g81
g82
ssg63
g4577
sg56
(lp4589
S':'
asbag49
(g70
g51
NtRp4590
(dp4591
g54
(dp4592
sg63
g4577
sg56
(lp4593
g49
(g50
g51
NtRp4594
(dp4595
g54
(dp4596
g62
I4
ssg63
g4590
sg56
(lp4597
S'Your Name <you@example.com>'
p4598
asbasbasbag49
(g65
g51
NtRp4599
(dp4600
g54
(dp4601
sg63
g4573
sg56
(lp4602
g49
(g70
g51
NtRp4603
(dp4604
g54
(dp4605
g74
g75
ssg63
g4599
sg56
(lp4606
S'description'
p4607
asbag49
(g70
g51
NtRp4608
(dp4609
g54
(dp4610
g81
g82
ssg63
g4599
sg56
(lp4611
S':'
asbag49
(g70
g51
NtRp4612
(dp4613
g54
(dp4614
sg63
g4599
sg56
(lp4615
g49
(g50
g51
NtRp4616
(dp4617
g54
(dp4618
g62
I4
ssg63
g4612
sg56
(lp4619
S'a cool new app'
p4620
asbasbasbag49
(g65
g51
NtRp4621
(dp4622
g54
(dp4623
sg63
g4573
sg56
(lp4624
g49
(g70
g51
NtRp4625
(dp4626
g54
(dp4627
g74
g75
ssg63
g4621
sg56
(lp4628
S'generator'
p4629
asbag49
(g70
g51
NtRp4630
(dp4631
g54
(dp4632
g81
g82
ssg63
g4621
sg56
(lp4633
S':'
asbag49
(g70
g51
NtRp4634
(dp4635
g54
(dp4636
sg63
g4621
sg56
(lp4637
g49
(g50
g51
NtRp4638
(dp4639
g54
(dp4640
g62
I4
ssg63
g4634
sg56
(lp4641
S'Web2py Web Framework'
p4642
asbasbasbag49
(g65
g51
NtRp4643
(dp4644
g54
(dp4645
sg63
g4573
sg56
(lp4646
g49
(g70
g51
NtRp4647
(dp4648
g54
(dp4649
g74
g75
ssg63
g4643
sg56
(lp4650
S'keywords'
p4651
asbag49
(g70
g51
NtRp4652
(dp4653
g54
(dp4654
g81
g82
ssg63
g4643
sg56
(lp4655
S':'
asbag49
(g70
g51
NtRp4656
(dp4657
g54
(dp4658
sg63
g4643
sg56
(lp4659
g49
(g50
g51
NtRp4660
(dp4661
g54
(dp4662
g62
I4
ssg63
g4656
sg56
(lp4663
S'web2py, python, framework'
p4664
asbasbasbasbasbasbasbag49
(g65
g51
NtRp4665
(dp4666
g54
(dp4667
sg63
g3419
sg56
(lp4668
g49
(g70
g51
NtRp4669
(dp4670
g54
(dp4671
g74
g75
ssg63
g4665
sg56
(lp4672
S'models_to_run'
p4673
asbag49
(g70
g51
NtRp4674
(dp4675
g54
(dp4676
g81
g82
ssg63
g4665
sg56
(lp4677
S':'
asbag49
(g70
g51
NtRp4678
(dp4679
g54
(dp4680
sg63
g4665
sg56
(lp4681
g49
(g50
g51
NtRp4682
(dp4683
g54
(dp4684
g62
I5
ssg63
g4678
sg56
(lp4685
g49
(g58
g51
NtRp4686
(dp4687
g54
(dp4688
g62
I4
ssg63
Nsg56
(lp4689
g49
(g65
g51
NtRp4690
(dp4691
g54
(dp4692
sg63
g4686
sg56
(lp4693
g49
(g70
g51
NtRp4694
(dp4695
g54
(dp4696
sg63
g4690
sg56
(lp4697
g49
(g50
g51
NtRp4698
(dp4699
g54
(dp4700
g62
I4
ssg63
g4694
sg56
(lp4701
S'^\\w+\\.py$'
p4702
asbasbasbag49
(g65
g51
NtRp4703
(dp4704
g54
(dp4705
sg63
g4686
sg56
(lp4706
g49
(g70
g51
NtRp4707
(dp4708
g54
(dp4709
sg63
g4703
sg56
(lp4710
g49
(g50
g51
NtRp4711
(dp4712
g54
(dp4713
g62
I4
ssg63
g4707
sg56
(lp4714
S'^default/\\w+\\.py$'
p4715
asbasbasbag49
(g65
g51
NtRp4716
(dp4717
g54
(dp4718
sg63
g4686
sg56
(lp4719
g49
(g70
g51
NtRp4720
(dp4721
g54
(dp4722
sg63
g4716
sg56
(lp4723
g49
(g50
g51
NtRp4724
(dp4725
g54
(dp4726
g62
I4
ssg63
g4720
sg56
(lp4727
S'^default/mobile_prof_register/\\w+\\.py$'
p4728
asbasbasbasbasbasbasbag49
(g65
g51
NtRp4729
(dp4730
g54
(dp4731
sg63
g3419
sg56
(lp4732
g49
(g70
g51
NtRp4733
(dp4734
g54
(dp4735
g74
g75
ssg63
g4729
sg56
(lp4736
S'postprocessing'
p4737
asbag49
(g70
g51
NtRp4738
(dp4739
g54
(dp4740
g81
g82
ssg63
g4729
sg56
(lp4741
S':'
asbag49
(g70
g51
NtRp4742
(dp4743
g54
(dp4744
sg63
g4729
sg56
(lp4745
g49
(g50
g51
NtRp4746
(dp4747
g54
(dp4748
g62
I5
ssg63
g4742
sg56
(lp4749
g49
(g58
g51
NtRp4750
(dp4751
g54
(dp4752
g62
I4
ssg63
Nsg56
(lp4753
sbasbasbasbag49
(g65
g51
NtRp4754
(dp4755
g54
(dp4756
sg63
g3419
sg56
(lp4757
g49
(g70
g51
NtRp4758
(dp4759
g54
(dp4760
g74
g75
ssg63
g4754
sg56
(lp4761
S'session_cookie_expires'
p4762
asbag49
(g70
g51
NtRp4763
(dp4764
g54
(dp4765
g81
g82
ssg63
g4754
sg56
(lp4766
S':'
asbag49
(g70
g51
NtRp4767
(dp4768
g54
(dp4769
sg63
g4754
sg56
(lp4770
g49
(g50
g51
NtRp4771
(dp4772
g54
(dp4773
g62
I5
ssg63
g4767
sg56
(lp4774
S'None'
p4775
asbasbasbag49
(g65
g51
NtRp4776
(dp4777
g54
(dp4778
sg63
g3419
sg56
(lp4779
g49
(g70
g51
NtRp4780
(dp4781
g54
(dp4782
g74
g75
ssg63
g4776
sg56
(lp4783
S'session_data_name'
p4784
asbag49
(g70
g51
NtRp4785
(dp4786
g54
(dp4787
g81
g82
ssg63
g4776
sg56
(lp4788
S':'
asbag49
(g70
g51
NtRp4789
(dp4790
g54
(dp4791
sg63
g4776
sg56
(lp4792
g49
(g50
g51
NtRp4793
(dp4794
g54
(dp4795
g62
I5
ssg63
g4789
sg56
(lp4796
S'session_data_mr'
p4797
asbasbasbag49
(g65
g51
NtRp4798
(dp4799
g54
(dp4800
sg63
g3419
sg56
(lp4801
g49
(g70
g51
NtRp4802
(dp4803
g54
(dp4804
g74
g75
ssg63
g4798
sg56
(lp4805
S'session_file'
p4806
asbag49
(g70
g51
NtRp4807
(dp4808
g54
(dp4809
g81
g82
ssg63
g4798
sg56
(lp4810
S':'
asbag49
(g70
g51
NtRp4811
(dp4812
g54
(dp4813
sg63
g4798
sg56
(lp4814
g49
(g50
g51
NtRp4815
(dp4816
g54
(dp4817
g62
I5
ssg63
g4811
sg56
(lp4818
S"<open file '/Applications/web2py.app/Contents/Resources/applications/MR/sessions/127.0.0.1-93356ae9-d6eb-42c1-bf89-8f42dc924ebb', mode 'rb+' at 0x90bef98>"
p4819
asbasbasbag49
(g65
g51
NtRp4820
(dp4821
g54
(dp4822
sg63
g3419
sg56
(lp4823
g49
(g70
g51
NtRp4824
(dp4825
g54
(dp4826
g74
g75
ssg63
g4820
sg56
(lp4827
S'session_filename'
p4828
asbag49
(g70
g51
NtRp4829
(dp4830
g54
(dp4831
g81
g82
ssg63
g4820
sg56
(lp4832
S':'
asbag49
(g70
g51
NtRp4833
(dp4834
g54
(dp4835
sg63
g4820
sg56
(lp4836
g49
(g50
g51
NtRp4837
(dp4838
g54
(dp4839
g62
I5
ssg63
g4833
sg56
(lp4840
S'/Applications/web2py.app/Contents/Resources/applications/MR/sessions/127.0.0.1-93356ae9-d6eb-42c1-bf89-8f42dc924ebb'
p4841
asbasbasbag49
(g65
g51
NtRp4842
(dp4843
g54
(dp4844
sg63
g3419
sg56
(lp4845
g49
(g70
g51
NtRp4846
(dp4847
g54
(dp4848
g74
g75
ssg63
g4842
sg56
(lp4849
S'session_id'
p4850
asbag49
(g70
g51
NtRp4851
(dp4852
g54
(dp4853
g81
g82
ssg63
g4842
sg56
(lp4854
S':'
asbag49
(g70
g51
NtRp4855
(dp4856
g54
(dp4857
sg63
g4842
sg56
(lp4858
g49
(g50
g51
NtRp4859
(dp4860
g54
(dp4861
g62
I5
ssg63
g4855
sg56
(lp4862
g446
asbasbasbag49
(g65
g51
NtRp4863
(dp4864
g54
(dp4865
sg63
g3419
sg56
(lp4866
g49
(g70
g51
NtRp4867
(dp4868
g54
(dp4869
g74
g75
ssg63
g4863
sg56
(lp4870
S'session_id_name'
p4871
asbag49
(g70
g51
NtRp4872
(dp4873
g54
(dp4874
g81
g82
ssg63
g4863
sg56
(lp4875
S':'
asbag49
(g70
g51
NtRp4876
(dp4877
g54
(dp4878
sg63
g4863
sg56
(lp4879
g49
(g50
g51
NtRp4880
(dp4881
g54
(dp4882
g62
I5
ssg63
g4876
sg56
(lp4883
g3476
asbasbasbag49
(g65
g51
NtRp4884
(dp4885
g54
(dp4886
sg63
g3419
sg56
(lp4887
g49
(g70
g51
NtRp4888
(dp4889
g54
(dp4890
g74
g75
ssg63
g4884
sg56
(lp4891
S'session_locked'
p4892
asbag49
(g70
g51
NtRp4893
(dp4894
g54
(dp4895
g81
g82
ssg63
g4884
sg56
(lp4896
S':'
asbag49
(g70
g51
NtRp4897
(dp4898
g54
(dp4899
sg63
g4884
sg56
(lp4900
g49
(g50
g51
NtRp4901
(dp4902
g54
(dp4903
g62
I5
ssg63
g4897
sg56
(lp4904
g916
asbasbasbag49
(g65
g51
NtRp4905
(dp4906
g54
(dp4907
sg63
g3419
sg56
(lp4908
g49
(g70
g51
NtRp4909
(dp4910
g54
(dp4911
g74
g75
ssg63
g4905
sg56
(lp4912
S'session_new'
p4913
asbag49
(g70
g51
NtRp4914
(dp4915
g54
(dp4916
g81
g82
ssg63
g4905
sg56
(lp4917
S':'
asbag49
(g70
g51
NtRp4918
(dp4919
g54
(dp4920
sg63
g4905
sg56
(lp4921
g49
(g50
g51
NtRp4922
(dp4923
g54
(dp4924
g62
I5
ssg63
g4918
sg56
(lp4925
g92
asbasbasbag49
(g65
g51
NtRp4926
(dp4927
g54
(dp4928
sg63
g3419
sg56
(lp4929
g49
(g70
g51
NtRp4930
(dp4931
g54
(dp4932
g74
g75
ssg63
g4926
sg56
(lp4933
S'session_storage_type'
p4934
asbag49
(g70
g51
NtRp4935
(dp4936
g54
(dp4937
g81
g82
ssg63
g4926
sg56
(lp4938
S':'
asbag49
(g70
g51
NtRp4939
(dp4940
g54
(dp4941
sg63
g4926
sg56
(lp4942
g49
(g50
g51
NtRp4943
(dp4944
g54
(dp4945
g62
I5
ssg63
g4939
sg56
(lp4946
g3301
asbasbasbag49
(g65
g51
NtRp4947
(dp4948
g54
(dp4949
sg63
g3419
sg56
(lp4950
g49
(g70
g51
NtRp4951
(dp4952
g54
(dp4953
g74
g75
ssg63
g4947
sg56
(lp4954
S'status'
p4955
asbag49
(g70
g51
NtRp4956
(dp4957
g54
(dp4958
g81
g82
ssg63
g4947
sg56
(lp4959
S':'
asbag49
(g70
g51
NtRp4960
(dp4961
g54
(dp4962
sg63
g4947
sg56
(lp4963
g49
(g50
g51
NtRp4964
(dp4965
g54
(dp4966
g62
I5
ssg63
g4960
sg56
(lp4967
S'200'
p4968
asbasbasbag49
(g65
g51
NtRp4969
(dp4970
g54
(dp4971
sg63
g3419
sg56
(lp4972
g49
(g70
g51
NtRp4973
(dp4974
g54
(dp4975
g74
g75
ssg63
g4969
sg56
(lp4976
S'subtitle'
p4977
asbag49
(g70
g51
NtRp4978
(dp4979
g54
(dp4980
g81
g82
ssg63
g4969
sg56
(lp4981
S':'
asbag49
(g70
g51
NtRp4982
(dp4983
g54
(dp4984
sg63
g4969
sg56
(lp4985
g49
(g50
g51
NtRp4986
(dp4987
g54
(dp4988
g62
I5
ssg63
g4982
sg56
(lp4989
g3933
(S's\r\x00\x00\x00\xe8\xab\x8b\xe8\xaa\xbf\xe6\x95\xb4\xe6\x88\x91!'
tRp4990
asbasbasbag49
(g65
g51
NtRp4991
(dp4992
g54
(dp4993
sg63
g3419
sg56
(lp4994
g49
(g70
g51
NtRp4995
(dp4996
g54
(dp4997
g74
g75
ssg63
g4991
sg56
(lp4998
S'title'
p4999
asbag49
(g70
g51
NtRp5000
(dp5001
g54
(dp5002
g81
g82
ssg63
g4991
sg56
(lp5003
S':'
asbag49
(g70
g51
NtRp5004
(dp5005
g54
(dp5006
sg63
g4991
sg56
(lp5007
g49
(g50
g51
NtRp5008
(dp5009
g54
(dp5010
g62
I5
ssg63
g5004
sg56
(lp5011
S'Mr'
p5012
asbasbasbag49
(g65
g51
NtRp5013
(dp5014
g54
(dp5015
sg63
g3419
sg56
(lp5016
g49
(g70
g51
NtRp5017
(dp5018
g54
(dp5019
g74
g75
ssg63
g5013
sg56
(lp5020
S'view'
p5021
asbag49
(g70
g51
NtRp5022
(dp5023
g54
(dp5024
g81
g82
ssg63
g5013
sg56
(lp5025
S':'
asbag49
(g70
g51
NtRp5026
(dp5027
g54
(dp5028
sg63
g5013
sg56
(lp5029
g49
(g50
g51
NtRp5030
(dp5031
g54
(dp5032
g62
I5
ssg63
g5026
sg56
(lp5033
S'default/mobile_prof_register.html'
p5034
asbasbasbasbasbsS'locals'
p5035
(dp5036
S'self'
p5037
S'<DAL uri="sqlite://storage.sqlite">'
p5038
sS'key'
p5039
S"'prof'"
p5040
sssS'traceback'
p5041
S'Traceback (most recent call last):\n  File "/home/mdipierro/web2py/gluon/restricted.py", line 212, in restricted\n  File "/Applications/web2py.app/Contents/Resources/applications/MR/controllers/default.py", line 126, in <module>\n  File "/home/mdipierro/web2py/gluon/globals.py", line 193, in <lambda>\n  File "/Applications/web2py.app/Contents/Resources/applications/MR/controllers/default.py", line 83, in mobile_prof_register\n  File "/home/mdipierro/web2py/gluon/dal.py", line 7421, in __getattr__\nAttributeError: \'DAL\' object has no attribute \'prof\'\n'
p5042
s.