(dp1
S'output'
p2
S"<type 'exceptions.TypeError'> md5() argument 1 must be string or read-only buffer, not None"
p3
sS'layer'
p4
S'/Applications/web2py.app/Contents/Resources/applications/MR/controllers/default.py'
p5
sS'code'
p6
S'# -*- coding: utf-8 -*-\n# this file is released under public domain and you can use without limitations\n\n#########################################################################\n## This is a samples controller\n## - index is the default action of any application\n## - user is required for authentication and authorization\n## - download is for downloading files uploaded in the db (does streaming)\n## - call exposes all registered services (none by default)\n#########################################################################\nimport gluon.utils as TT\n\ndef index():\n    # return dict(message=T(\'Hello World\'))\n    return "index"\n\ndef user():\n    """\n    exposes:\n    http://..../[app]/default/user/login\n    http://..../[app]/default/user/logout\n    http://..../[app]/default/user/register\n    http://..../[app]/default/user/profile\n    http://..../[app]/default/user/retrieve_password\n    http://..../[app]/default/user/change_password\n    use @auth.requires_login()\n        @auth.requires_membership(\'group name\')\n        @auth.requires_permission(\'read\',\'table name\',record_id)\n    to decorate functions that need access control\n    """\n    return dict(form=auth())\n\ndef download():\n    """\n    allows downloading of uploaded files\n    http://..../[app]/default/download/[filename]\n    """\n    return response.download(request, db)\n\n\ndef call():\n    """\n    exposes services. for example:\n    http://..../[app]/default/call/jsonrpc\n    decorate with @services.jsonrpc the functions to expose\n    supports xml, json, xmlrpc, jsonrpc, amfrpc, rss, csv\n    """\n    return service()\n\ndef mobile_patient_register():\n    email = request.vars.email\n    password = request.vars.password\n    firstname = request.vars.firstname\n    middlename = request.vars.middlename\n    lastname = request.vars.lastname\n    country = request.vars.country\n    rows = db(db.patient.email==email).select()\n    result = {}\n    \n    if len(rows) != 0:\n        result[\'status\'] = "exist"\n        return response.json(result)\n    \n    return_result = TT.md5_hash(password)\n    ret = db.mobile_user.validate_and_insert(email=email, password=password, first_name=firstname, middle_name=middlename, last_name=lastname, md5=return_result, country=country)\n\n    if ret.errors:\n        result[\'status\'] = "ERROR"\n        return response.json(result)        \n    else:\n        result[\'status\'] = "success"\n        result[\'result\'] = return_result   \n        return response.json(result)\n\n    \ndef mobile_prof_register():\n    email = request.vars.email\n    password = request.vars.password\n    firstname = request.vars.firstname\n    middlename = request.vars.middlename\n    lastname = request.vars.lastname\n    country = request.vars.country\n    rows = db(db.prof.email==email).select()\n    result = {}\n    \n    if len(rows) != 0:\n        result[\'status\'] = "exist"\n        return response.json(result)\n    \n    return_result = TT.md5_hash(password)\n    ret = db.mobile_user.validate_and_insert(email=email, password=password, first_name=firstname, middle_name=middlename, last_name=lastname, md5=return_result, country=country)\n\n    if ret.errors:\n        result[\'status\'] = "ERROR"\n        return response.json(result)        \n    else:\n        result[\'status\'] = "success"\n        result[\'result\'] = return_result   \n        return response.json(result)\n    \n#@service.jsonrpc\ndef mobile_user_login(email, password):\n    rows = db(db.mobile_user.email==email).select()\n    if len(rows) != 1:\n        return {\'status\': \'ERROR\'}\n    user = rows[0]\n    return {\'status\':\'success\', \'result\': user.md5}\n\n@auth.requires_signature()\ndef data():\n    """\n    http://..../[app]/default/data/tables\n    http://..../[app]/default/data/create/[table]\n    http://..../[app]/default/data/read/[table]/[id]\n    http://..../[app]/default/data/update/[table]/[id]\n    http://..../[app]/default/data/delete/[table]/[id]\n    http://..../[app]/default/data/select/[table]\n    http://..../[app]/default/data/search/[table]\n    but URLs must be signed, i.e. linked with\n      A(\'table\',_href=URL(\'data/tables\',user_signature=True))\n    or with the signed load operator\n      LOAD(\'default\',\'data.load\',args=\'tables\',ajax=True,user_signature=True)\n    """\n    return dict(form=crud())\n\nresponse._vars=response._caller(mobile_patient_register)\n'
p7
sS'snapshot'
p8
(dp9
S'exception'
p10
(dp11
S'__hash__'
p12
S"<method-wrapper '__hash__' of exceptions.TypeError object at 0x7855300>"
p13
sS'__setattr__'
p14
S"<method-wrapper '__setattr__' of exceptions.TypeError object at 0x7855300>"
p15
sS'__reduce_ex__'
p16
S'<built-in method __reduce_ex__ of exceptions.TypeError object at 0x7855300>'
p17
sS'__getslice__'
p18
S"<method-wrapper '__getslice__' of exceptions.TypeError object at 0x7855300>"
p19
sS'__getitem__'
p20
S"<method-wrapper '__getitem__' of exceptions.TypeError object at 0x7855300>"
p21
sS'__setstate__'
p22
S'<built-in method __setstate__ of exceptions.TypeError object at 0x7855300>'
p23
sS'__reduce__'
p24
S'<built-in method __reduce__ of exceptions.TypeError object at 0x7855300>'
p25
sS'__str__'
p26
S"<method-wrapper '__str__' of exceptions.TypeError object at 0x7855300>"
p27
sS'args'
p28
S"('md5() argument 1 must be string or read-only buffer, not None',)"
p29
sS'__getattribute__'
p30
S"<method-wrapper '__getattribute__' of exceptions.TypeError object at 0x7855300>"
p31
sS'__class__'
p32
S"<type 'exceptions.TypeError'>"
p33
sS'__delattr__'
p34
S"<method-wrapper '__delattr__' of exceptions.TypeError object at 0x7855300>"
p35
sS'__repr__'
p36
S"<method-wrapper '__repr__' of exceptions.TypeError object at 0x7855300>"
p37
sS'__dict__'
p38
S'{}'
p39
sS'__doc__'
p40
S"'Inappropriate argument type.'"
p41
sS'__init__'
p42
S"<method-wrapper '__init__' of exceptions.TypeError object at 0x7855300>"
p43
sS'__new__'
p44
S'<built-in method __new__ of type object at 0x5fa140>'
p45
ssS'evalue'
p46
S'md5() argument 1 must be string or read-only buffer, not None'
p47
sS'request'
p48
ccopy_reg
_reconstructor
p49
(cgluon.html
BEAUTIFY
p50
c__builtin__
object
p51
NtRp52
(dp53
S'attributes'
p54
(dp55
sS'components'
p56
(lp57
g49
(cgluon.html
TABLE
p58
g51
NtRp59
(dp60
g54
(dp61
S'level'
p62
I5
ssS'parent'
p63
Nsg56
(lp64
g49
(cgluon.html
TR
p65
g51
NtRp66
(dp67
g54
(dp68
sg63
g59
sg56
(lp69
g49
(cgluon.html
TD
p70
g51
NtRp71
(dp72
g54
(dp73
S'_style'
p74
S'font-weight:bold;vertical-align:top'
p75
ssg63
g66
sg56
(lp76
S'ajax'
p77
asbag49
(g70
g51
NtRp78
(dp79
g54
(dp80
S'_valign'
p81
S'top'
p82
ssg63
g66
sg56
(lp83
S':'
asbag49
(g70
g51
NtRp84
(dp85
g54
(dp86
sg63
g66
sg56
(lp87
g49
(g50
g51
NtRp88
(dp89
g54
(dp90
g62
I5
ssg63
g84
sg56
(lp91
S'False'
p92
asbasbasbag49
(g65
g51
NtRp93
(dp94
g54
(dp95
sg63
g59
sg56
(lp96
g49
(g70
g51
NtRp97
(dp98
g54
(dp99
g74
g75
ssg63
g93
sg56
(lp100
S'application'
p101
asbag49
(g70
g51
NtRp102
(dp103
g54
(dp104
g81
g82
ssg63
g93
sg56
(lp105
S':'
asbag49
(g70
g51
NtRp106
(dp107
g54
(dp108
sg63
g93
sg56
(lp109
g49
(g50
g51
NtRp110
(dp111
g54
(dp112
g62
I5
ssg63
g106
sg56
(lp113
S'MR'
p114
asbasbasbag49
(g65
g51
NtRp115
(dp116
g54
(dp117
sg63
g59
sg56
(lp118
g49
(g70
g51
NtRp119
(dp120
g54
(dp121
g74
g75
ssg63
g115
sg56
(lp122
g28
asbag49
(g70
g51
NtRp123
(dp124
g54
(dp125
g81
g82
ssg63
g115
sg56
(lp126
S':'
asbag49
(g70
g51
NtRp127
(dp128
g54
(dp129
sg63
g115
sg56
(lp130
g49
(g50
g51
NtRp131
(dp132
g54
(dp133
g62
I5
ssg63
g127
sg56
(lp134
g49
(g58
g51
NtRp135
(dp136
g54
(dp137
g62
I4
ssg63
Nsg56
(lp138
sbasbasbasbag49
(g65
g51
NtRp139
(dp140
g54
(dp141
sg63
g59
sg56
(lp142
g49
(g70
g51
NtRp143
(dp144
g54
(dp145
g74
g75
ssg63
g139
sg56
(lp146
S'body'
p147
asbag49
(g70
g51
NtRp148
(dp149
g54
(dp150
g81
g82
ssg63
g139
sg56
(lp151
S':'
asbag49
(g70
g51
NtRp152
(dp153
g54
(dp154
sg63
g139
sg56
(lp155
g49
(g50
g51
NtRp156
(dp157
g54
(dp158
g62
I5
ssg63
g152
sg56
(lp159
S'<cStringIO.StringO object at 0x83d77c0>'
p160
asbasbasbag49
(g65
g51
NtRp161
(dp162
g54
(dp163
sg63
g59
sg56
(lp164
g49
(g70
g51
NtRp165
(dp166
g54
(dp167
g74
g75
ssg63
g161
sg56
(lp168
S'cid'
p169
asbag49
(g70
g51
NtRp170
(dp171
g54
(dp172
g81
g82
ssg63
g161
sg56
(lp173
S':'
asbag49
(g70
g51
NtRp174
(dp175
g54
(dp176
sg63
g161
sg56
(lp177
g49
(g50
g51
NtRp178
(dp179
g54
(dp180
g62
I5
ssg63
g174
sg56
(lp181
S'None'
p182
asbasbasbag49
(g65
g51
NtRp183
(dp184
g54
(dp185
sg63
g59
sg56
(lp186
g49
(g70
g51
NtRp187
(dp188
g54
(dp189
g74
g75
ssg63
g183
sg56
(lp190
S'client'
p191
asbag49
(g70
g51
NtRp192
(dp193
g54
(dp194
g81
g82
ssg63
g183
sg56
(lp195
S':'
asbag49
(g70
g51
NtRp196
(dp197
g54
(dp198
sg63
g183
sg56
(lp199
g49
(g50
g51
NtRp200
(dp201
g54
(dp202
g62
I5
ssg63
g196
sg56
(lp203
S'127.0.0.1'
p204
asbasbasbag49
(g65
g51
NtRp205
(dp206
g54
(dp207
sg63
g59
sg56
(lp208
g49
(g70
g51
NtRp209
(dp210
g54
(dp211
g74
g75
ssg63
g205
sg56
(lp212
S'controller'
p213
asbag49
(g70
g51
NtRp214
(dp215
g54
(dp216
g81
g82
ssg63
g205
sg56
(lp217
S':'
asbag49
(g70
g51
NtRp218
(dp219
g54
(dp220
sg63
g205
sg56
(lp221
g49
(g50
g51
NtRp222
(dp223
g54
(dp224
g62
I5
ssg63
g218
sg56
(lp225
S'default'
p226
asbasbasbag49
(g65
g51
NtRp227
(dp228
g54
(dp229
sg63
g59
sg56
(lp230
g49
(g70
g51
NtRp231
(dp232
g54
(dp233
g74
g75
ssg63
g227
sg56
(lp234
S'cookies'
p235
asbag49
(g70
g51
NtRp236
(dp237
g54
(dp238
g81
g82
ssg63
g227
sg56
(lp239
S':'
asbag49
(g70
g51
NtRp240
(dp241
g54
(dp242
sg63
g227
sg56
(lp243
g49
(g50
g51
NtRp244
(dp245
g54
(dp246
g62
I5
ssg63
g240
sg56
(lp247
g49
(g58
g51
NtRp248
(dp249
g54
(dp250
g62
I4
ssg63
Nsg56
(lp251
g49
(g65
g51
NtRp252
(dp253
g54
(dp254
sg63
g248
sg56
(lp255
g49
(g70
g51
NtRp256
(dp257
g54
(dp258
g74
g75
ssg63
g252
sg56
(lp259
S'session_id_admin'
p260
asbag49
(g70
g51
NtRp261
(dp262
g54
(dp263
g81
g82
ssg63
g252
sg56
(lp264
S':'
asbag49
(g70
g51
NtRp265
(dp266
g54
(dp267
sg63
g252
sg56
(lp268
g49
(g50
g51
NtRp269
(dp270
g54
(dp271
g62
I4
ssg63
g265
sg56
(lp272
S'127.0.0.1-571b3d08-1b04-4205-803c-964130795403'
p273
ag49
(g58
g51
NtRp274
(dp275
g54
(dp276
g62
I3
ssg63
Nsg56
(lp277
g49
(g65
g51
NtRp278
(dp279
g54
(dp280
sg63
g274
sg56
(lp281
g49
(g70
g51
NtRp282
(dp283
g54
(dp284
g74
g75
ssg63
g278
sg56
(lp285
S'comment'
p286
asbag49
(g70
g51
NtRp287
(dp288
g54
(dp289
g81
g82
ssg63
g278
sg56
(lp290
S':'
asbag49
(g70
g51
NtRp291
(dp292
g54
(dp293
sg63
g278
sg56
(lp294
g49
(g50
g51
NtRp295
(dp296
g54
(dp297
g62
I3
ssg63
g291
sg56
(lp298
S''
asbasbasbag49
(g65
g51
NtRp299
(dp300
g54
(dp301
sg63
g274
sg56
(lp302
g49
(g70
g51
NtRp303
(dp304
g54
(dp305
g74
g75
ssg63
g299
sg56
(lp306
S'domain'
p307
asbag49
(g70
g51
NtRp308
(dp309
g54
(dp310
g81
g82
ssg63
g299
sg56
(lp311
S':'
asbag49
(g70
g51
NtRp312
(dp313
g54
(dp314
sg63
g299
sg56
(lp315
g49
(g50
g51
NtRp316
(dp317
g54
(dp318
g62
I3
ssg63
g312
sg56
(lp319
S''
asbasbasbag49
(g65
g51
NtRp320
(dp321
g54
(dp322
sg63
g274
sg56
(lp323
g49
(g70
g51
NtRp324
(dp325
g54
(dp326
g74
g75
ssg63
g320
sg56
(lp327
S'expires'
p328
asbag49
(g70
g51
NtRp329
(dp330
g54
(dp331
g81
g82
ssg63
g320
sg56
(lp332
S':'
asbag49
(g70
g51
NtRp333
(dp334
g54
(dp335
sg63
g320
sg56
(lp336
g49
(g50
g51
NtRp337
(dp338
g54
(dp339
g62
I3
ssg63
g333
sg56
(lp340
S''
asbasbasbag49
(g65
g51
NtRp341
(dp342
g54
(dp343
sg63
g274
sg56
(lp344
g49
(g70
g51
NtRp345
(dp346
g54
(dp347
g74
g75
ssg63
g341
sg56
(lp348
S'max-age'
p349
asbag49
(g70
g51
NtRp350
(dp351
g54
(dp352
g81
g82
ssg63
g341
sg56
(lp353
S':'
asbag49
(g70
g51
NtRp354
(dp355
g54
(dp356
sg63
g341
sg56
(lp357
g49
(g50
g51
NtRp358
(dp359
g54
(dp360
g62
I3
ssg63
g354
sg56
(lp361
S''
asbasbasbag49
(g65
g51
NtRp362
(dp363
g54
(dp364
sg63
g274
sg56
(lp365
g49
(g70
g51
NtRp366
(dp367
g54
(dp368
g74
g75
ssg63
g362
sg56
(lp369
S'path'
p370
asbag49
(g70
g51
NtRp371
(dp372
g54
(dp373
g81
g82
ssg63
g362
sg56
(lp374
S':'
asbag49
(g70
g51
NtRp375
(dp376
g54
(dp377
sg63
g362
sg56
(lp378
g49
(g50
g51
NtRp379
(dp380
g54
(dp381
g62
I3
ssg63
g375
sg56
(lp382
S''
asbasbasbag49
(g65
g51
NtRp383
(dp384
g54
(dp385
sg63
g274
sg56
(lp386
g49
(g70
g51
NtRp387
(dp388
g54
(dp389
g74
g75
ssg63
g383
sg56
(lp390
S'secure'
p391
asbag49
(g70
g51
NtRp392
(dp393
g54
(dp394
g81
g82
ssg63
g383
sg56
(lp395
S':'
asbag49
(g70
g51
NtRp396
(dp397
g54
(dp398
sg63
g383
sg56
(lp399
g49
(g50
g51
NtRp400
(dp401
g54
(dp402
g62
I3
ssg63
g396
sg56
(lp403
S''
asbasbasbag49
(g65
g51
NtRp404
(dp405
g54
(dp406
sg63
g274
sg56
(lp407
g49
(g70
g51
NtRp408
(dp409
g54
(dp410
g74
g75
ssg63
g404
sg56
(lp411
S'version'
p412
asbag49
(g70
g51
NtRp413
(dp414
g54
(dp415
g81
g82
ssg63
g404
sg56
(lp416
S':'
asbag49
(g70
g51
NtRp417
(dp418
g54
(dp419
sg63
g404
sg56
(lp420
g49
(g50
g51
NtRp421
(dp422
g54
(dp423
g62
I3
ssg63
g417
sg56
(lp424
S''
asbasbasbasbasbasbasbag49
(g65
g51
NtRp425
(dp426
g54
(dp427
sg63
g248
sg56
(lp428
g49
(g70
g51
NtRp429
(dp430
g54
(dp431
g74
g75
ssg63
g425
sg56
(lp432
S'session_id_mr'
p433
asbag49
(g70
g51
NtRp434
(dp435
g54
(dp436
g81
g82
ssg63
g425
sg56
(lp437
S':'
asbag49
(g70
g51
NtRp438
(dp439
g54
(dp440
sg63
g425
sg56
(lp441
g49
(g50
g51
NtRp442
(dp443
g54
(dp444
g62
I4
ssg63
g438
sg56
(lp445
S'127.0.0.1-93356ae9-d6eb-42c1-bf89-8f42dc924ebb'
p446
ag49
(g58
g51
NtRp447
(dp448
g54
(dp449
g62
I3
ssg63
Nsg56
(lp450
g49
(g65
g51
NtRp451
(dp452
g54
(dp453
sg63
g447
sg56
(lp454
g49
(g70
g51
NtRp455
(dp456
g54
(dp457
g74
g75
ssg63
g451
sg56
(lp458
g286
asbag49
(g70
g51
NtRp459
(dp460
g54
(dp461
g81
g82
ssg63
g451
sg56
(lp462
S':'
asbag49
(g70
g51
NtRp463
(dp464
g54
(dp465
sg63
g451
sg56
(lp466
g49
(g50
g51
NtRp467
(dp468
g54
(dp469
g62
I3
ssg63
g463
sg56
(lp470
S''
asbasbasbag49
(g65
g51
NtRp471
(dp472
g54
(dp473
sg63
g447
sg56
(lp474
g49
(g70
g51
NtRp475
(dp476
g54
(dp477
g74
g75
ssg63
g471
sg56
(lp478
g307
asbag49
(g70
g51
NtRp479
(dp480
g54
(dp481
g81
g82
ssg63
g471
sg56
(lp482
S':'
asbag49
(g70
g51
NtRp483
(dp484
g54
(dp485
sg63
g471
sg56
(lp486
g49
(g50
g51
NtRp487
(dp488
g54
(dp489
g62
I3
ssg63
g483
sg56
(lp490
S''
asbasbasbag49
(g65
g51
NtRp491
(dp492
g54
(dp493
sg63
g447
sg56
(lp494
g49
(g70
g51
NtRp495
(dp496
g54
(dp497
g74
g75
ssg63
g491
sg56
(lp498
g328
asbag49
(g70
g51
NtRp499
(dp500
g54
(dp501
g81
g82
ssg63
g491
sg56
(lp502
S':'
asbag49
(g70
g51
NtRp503
(dp504
g54
(dp505
sg63
g491
sg56
(lp506
g49
(g50
g51
NtRp507
(dp508
g54
(dp509
g62
I3
ssg63
g503
sg56
(lp510
S''
asbasbasbag49
(g65
g51
NtRp511
(dp512
g54
(dp513
sg63
g447
sg56
(lp514
g49
(g70
g51
NtRp515
(dp516
g54
(dp517
g74
g75
ssg63
g511
sg56
(lp518
g349
asbag49
(g70
g51
NtRp519
(dp520
g54
(dp521
g81
g82
ssg63
g511
sg56
(lp522
S':'
asbag49
(g70
g51
NtRp523
(dp524
g54
(dp525
sg63
g511
sg56
(lp526
g49
(g50
g51
NtRp527
(dp528
g54
(dp529
g62
I3
ssg63
g523
sg56
(lp530
S''
asbasbasbag49
(g65
g51
NtRp531
(dp532
g54
(dp533
sg63
g447
sg56
(lp534
g49
(g70
g51
NtRp535
(dp536
g54
(dp537
g74
g75
ssg63
g531
sg56
(lp538
g370
asbag49
(g70
g51
NtRp539
(dp540
g54
(dp541
g81
g82
ssg63
g531
sg56
(lp542
S':'
asbag49
(g70
g51
NtRp543
(dp544
g54
(dp545
sg63
g531
sg56
(lp546
g49
(g50
g51
NtRp547
(dp548
g54
(dp549
g62
I3
ssg63
g543
sg56
(lp550
S''
asbasbasbag49
(g65
g51
NtRp551
(dp552
g54
(dp553
sg63
g447
sg56
(lp554
g49
(g70
g51
NtRp555
(dp556
g54
(dp557
g74
g75
ssg63
g551
sg56
(lp558
g391
asbag49
(g70
g51
NtRp559
(dp560
g54
(dp561
g81
g82
ssg63
g551
sg56
(lp562
S':'
asbag49
(g70
g51
NtRp563
(dp564
g54
(dp565
sg63
g551
sg56
(lp566
g49
(g50
g51
NtRp567
(dp568
g54
(dp569
g62
I3
ssg63
g563
sg56
(lp570
S''
asbasbasbag49
(g65
g51
NtRp571
(dp572
g54
(dp573
sg63
g447
sg56
(lp574
g49
(g70
g51
NtRp575
(dp576
g54
(dp577
g74
g75
ssg63
g571
sg56
(lp578
g412
asbag49
(g70
g51
NtRp579
(dp580
g54
(dp581
g81
g82
ssg63
g571
sg56
(lp582
S':'
asbag49
(g70
g51
NtRp583
(dp584
g54
(dp585
sg63
g571
sg56
(lp586
g49
(g50
g51
NtRp587
(dp588
g54
(dp589
g62
I3
ssg63
g583
sg56
(lp590
S''
asbasbasbasbasbasbasbag49
(g65
g51
NtRp591
(dp592
g54
(dp593
sg63
g248
sg56
(lp594
g49
(g70
g51
NtRp595
(dp596
g54
(dp597
g74
g75
ssg63
g591
sg56
(lp598
S'session_id_welcome'
p599
asbag49
(g70
g51
NtRp600
(dp601
g54
(dp602
g81
g82
ssg63
g591
sg56
(lp603
S':'
asbag49
(g70
g51
NtRp604
(dp605
g54
(dp606
sg63
g591
sg56
(lp607
g49
(g50
g51
NtRp608
(dp609
g54
(dp610
g62
I4
ssg63
g604
sg56
(lp611
S'127.0.0.1-689c372b-4c09-4573-a459-6c50cc578d9b'
p612
ag49
(g58
g51
NtRp613
(dp614
g54
(dp615
g62
I3
ssg63
Nsg56
(lp616
g49
(g65
g51
NtRp617
(dp618
g54
(dp619
sg63
g613
sg56
(lp620
g49
(g70
g51
NtRp621
(dp622
g54
(dp623
g74
g75
ssg63
g617
sg56
(lp624
g286
asbag49
(g70
g51
NtRp625
(dp626
g54
(dp627
g81
g82
ssg63
g617
sg56
(lp628
S':'
asbag49
(g70
g51
NtRp629
(dp630
g54
(dp631
sg63
g617
sg56
(lp632
g49
(g50
g51
NtRp633
(dp634
g54
(dp635
g62
I3
ssg63
g629
sg56
(lp636
S''
asbasbasbag49
(g65
g51
NtRp637
(dp638
g54
(dp639
sg63
g613
sg56
(lp640
g49
(g70
g51
NtRp641
(dp642
g54
(dp643
g74
g75
ssg63
g637
sg56
(lp644
g307
asbag49
(g70
g51
NtRp645
(dp646
g54
(dp647
g81
g82
ssg63
g637
sg56
(lp648
S':'
asbag49
(g70
g51
NtRp649
(dp650
g54
(dp651
sg63
g637
sg56
(lp652
g49
(g50
g51
NtRp653
(dp654
g54
(dp655
g62
I3
ssg63
g649
sg56
(lp656
S''
asbasbasbag49
(g65
g51
NtRp657
(dp658
g54
(dp659
sg63
g613
sg56
(lp660
g49
(g70
g51
NtRp661
(dp662
g54
(dp663
g74
g75
ssg63
g657
sg56
(lp664
g328
asbag49
(g70
g51
NtRp665
(dp666
g54
(dp667
g81
g82
ssg63
g657
sg56
(lp668
S':'
asbag49
(g70
g51
NtRp669
(dp670
g54
(dp671
sg63
g657
sg56
(lp672
g49
(g50
g51
NtRp673
(dp674
g54
(dp675
g62
I3
ssg63
g669
sg56
(lp676
S''
asbasbasbag49
(g65
g51
NtRp677
(dp678
g54
(dp679
sg63
g613
sg56
(lp680
g49
(g70
g51
NtRp681
(dp682
g54
(dp683
g74
g75
ssg63
g677
sg56
(lp684
g349
asbag49
(g70
g51
NtRp685
(dp686
g54
(dp687
g81
g82
ssg63
g677
sg56
(lp688
S':'
asbag49
(g70
g51
NtRp689
(dp690
g54
(dp691
sg63
g677
sg56
(lp692
g49
(g50
g51
NtRp693
(dp694
g54
(dp695
g62
I3
ssg63
g689
sg56
(lp696
S''
asbasbasbag49
(g65
g51
NtRp697
(dp698
g54
(dp699
sg63
g613
sg56
(lp700
g49
(g70
g51
NtRp701
(dp702
g54
(dp703
g74
g75
ssg63
g697
sg56
(lp704
g370
asbag49
(g70
g51
NtRp705
(dp706
g54
(dp707
g81
g82
ssg63
g697
sg56
(lp708
S':'
asbag49
(g70
g51
NtRp709
(dp710
g54
(dp711
sg63
g697
sg56
(lp712
g49
(g50
g51
NtRp713
(dp714
g54
(dp715
g62
I3
ssg63
g709
sg56
(lp716
S''
asbasbasbag49
(g65
g51
NtRp717
(dp718
g54
(dp719
sg63
g613
sg56
(lp720
g49
(g70
g51
NtRp721
(dp722
g54
(dp723
g74
g75
ssg63
g717
sg56
(lp724
g391
asbag49
(g70
g51
NtRp725
(dp726
g54
(dp727
g81
g82
ssg63
g717
sg56
(lp728
S':'
asbag49
(g70
g51
NtRp729
(dp730
g54
(dp731
sg63
g717
sg56
(lp732
g49
(g50
g51
NtRp733
(dp734
g54
(dp735
g62
I3
ssg63
g729
sg56
(lp736
S''
asbasbasbag49
(g65
g51
NtRp737
(dp738
g54
(dp739
sg63
g613
sg56
(lp740
g49
(g70
g51
NtRp741
(dp742
g54
(dp743
g74
g75
ssg63
g737
sg56
(lp744
g412
asbag49
(g70
g51
NtRp745
(dp746
g54
(dp747
g81
g82
ssg63
g737
sg56
(lp748
S':'
asbag49
(g70
g51
NtRp749
(dp750
g54
(dp751
sg63
g737
sg56
(lp752
g49
(g50
g51
NtRp753
(dp754
g54
(dp755
g62
I3
ssg63
g749
sg56
(lp756
S''
asbasbasbasbasbasbasbasbasbasbasbag49
(g65
g51
NtRp757
(dp758
g54
(dp759
sg63
g59
sg56
(lp760
g49
(g70
g51
NtRp761
(dp762
g54
(dp763
g74
g75
ssg63
g757
sg56
(lp764
S'env'
p765
asbag49
(g70
g51
NtRp766
(dp767
g54
(dp768
g81
g82
ssg63
g757
sg56
(lp769
S':'
asbag49
(g70
g51
NtRp770
(dp771
g54
(dp772
sg63
g757
sg56
(lp773
g49
(g50
g51
NtRp774
(dp775
g54
(dp776
g62
I5
ssg63
g770
sg56
(lp777
g49
(g58
g51
NtRp778
(dp779
g54
(dp780
g62
I4
ssg63
Nsg56
(lp781
g49
(g65
g51
NtRp782
(dp783
g54
(dp784
sg63
g778
sg56
(lp785
g49
(g70
g51
NtRp786
(dp787
g54
(dp788
g74
g75
ssg63
g782
sg56
(lp789
S'app_folders'
p790
asbag49
(g70
g51
NtRp791
(dp792
g54
(dp793
g81
g82
ssg63
g782
sg56
(lp794
S':'
asbag49
(g70
g51
NtRp795
(dp796
g54
(dp797
sg63
g782
sg56
(lp798
g49
(g50
g51
NtRp799
(dp800
g54
(dp801
g62
I4
ssg63
g795
sg56
(lp802
S"set(['/Applications/web2py.app/Contents/Resources/applications/admin/', '/Applications/web2py.app/Contents/Resources/applications/welcome/', '/Applications/web2py.app/Contents/Resources/applications/MR/'])"
p803
asbasbasbag49
(g65
g51
NtRp804
(dp805
g54
(dp806
sg63
g778
sg56
(lp807
g49
(g70
g51
NtRp808
(dp809
g54
(dp810
g74
g75
ssg63
g804
sg56
(lp811
S'applications_parent'
p812
asbag49
(g70
g51
NtRp813
(dp814
g54
(dp815
g81
g82
ssg63
g804
sg56
(lp816
S':'
asbag49
(g70
g51
NtRp817
(dp818
g54
(dp819
sg63
g804
sg56
(lp820
g49
(g50
g51
NtRp821
(dp822
g54
(dp823
g62
I4
ssg63
g817
sg56
(lp824
S'/Applications/web2py.app/Contents/Resources'
p825
asbasbasbag49
(g65
g51
NtRp826
(dp827
g54
(dp828
sg63
g778
sg56
(lp829
g49
(g70
g51
NtRp830
(dp831
g54
(dp832
g74
g75
ssg63
g826
sg56
(lp833
S'cmd_args'
p834
asbag49
(g70
g51
NtRp835
(dp836
g54
(dp837
g81
g82
ssg63
g826
sg56
(lp838
S':'
asbag49
(g70
g51
NtRp839
(dp840
g54
(dp841
sg63
g826
sg56
(lp842
g49
(g50
g51
NtRp843
(dp844
g54
(dp845
g62
I4
ssg63
g839
sg56
(lp846
g49
(g58
g51
NtRp847
(dp848
g54
(dp849
g62
I3
ssg63
Nsg56
(lp850
sbasbasbasbag49
(g65
g51
NtRp851
(dp852
g54
(dp853
sg63
g778
sg56
(lp854
g49
(g70
g51
NtRp855
(dp856
g54
(dp857
g74
g75
ssg63
g851
sg56
(lp858
S'cmd_options'
p859
asbag49
(g70
g51
NtRp860
(dp861
g54
(dp862
g81
g82
ssg63
g851
sg56
(lp863
S':'
asbag49
(g70
g51
NtRp864
(dp865
g54
(dp866
sg63
g851
sg56
(lp867
g49
(g50
g51
NtRp868
(dp869
g54
(dp870
g62
I4
ssg63
g864
sg56
(lp871
S"<Values at 0x4596f58: {'verbose': False, 'ip': '127.0.0.1', 'with_scheduler': False, 'ips': [], 'shutdown_timeout': 5, 'taskbar': False, 'port': 8000, 'maxthreads': None, 'softcron': False, 'server_name': 'Liu-SiyematoMacBook-Pro.local', 'bpython': False, 'nogui': False, 'pid_filename': 'httpserver.pid', 'extcron': False, 'runcron': False, 'run_system_tests': False, 'test': None, 'folder': '/Applications/web2py.app/Contents/Resources', 'config': '', 'import_models': False, 'winservice': '', 'shell': None, 'run': '', 'log_filename': 'httpserver.log', 'debuglevel': 30, 'args': [''], 'socket_timeout': 5, 'ssl_ca_certificate': None, 'scheduler': None, 'profiler_filename': None, 'ssl_private_key': '', 'scheduler_groups': None, 'password': '<ask>', 'request_queue_size': 5, 'ssl_certificate': '', 'cronjob': False, 'numthreads': None, 'quiet': False, 'interfaces': None, 'minthreads': None, 'timeout': 10, 'plain': False, 'nobanner': False}>"
p872
asbasbasbag49
(g65
g51
NtRp873
(dp874
g54
(dp875
sg63
g778
sg56
(lp876
g49
(g70
g51
NtRp877
(dp878
g54
(dp879
g74
g75
ssg63
g873
sg56
(lp880
S'db_sessions'
p881
asbag49
(g70
g51
NtRp882
(dp883
g54
(dp884
g81
g82
ssg63
g873
sg56
(lp885
S':'
asbag49
(g70
g51
NtRp886
(dp887
g54
(dp888
sg63
g873
sg56
(lp889
g49
(g50
g51
NtRp890
(dp891
g54
(dp892
g62
I4
ssg63
g886
sg56
(lp893
S'set([])'
p894
asbasbasbag49
(g65
g51
NtRp895
(dp896
g54
(dp897
sg63
g778
sg56
(lp898
g49
(g70
g51
NtRp899
(dp900
g54
(dp901
g74
g75
ssg63
g895
sg56
(lp902
S'debugging'
p903
asbag49
(g70
g51
NtRp904
(dp905
g54
(dp906
g81
g82
ssg63
g895
sg56
(lp907
S':'
asbag49
(g70
g51
NtRp908
(dp909
g54
(dp910
sg63
g895
sg56
(lp911
g49
(g50
g51
NtRp912
(dp913
g54
(dp914
g62
I4
ssg63
g908
sg56
(lp915
S'True'
p916
asbasbasbag49
(g65
g51
NtRp917
(dp918
g54
(dp919
sg63
g778
sg56
(lp920
g49
(g70
g51
NtRp921
(dp922
g54
(dp923
g74
g75
ssg63
g917
sg56
(lp924
S'gluon_parent'
p925
asbag49
(g70
g51
NtRp926
(dp927
g54
(dp928
g81
g82
ssg63
g917
sg56
(lp929
S':'
asbag49
(g70
g51
NtRp930
(dp931
g54
(dp932
sg63
g917
sg56
(lp933
g49
(g50
g51
NtRp934
(dp935
g54
(dp936
g62
I4
ssg63
g930
sg56
(lp937
S'/Applications/web2py.app/Contents/Resources'
p938
asbasbasbag49
(g65
g51
NtRp939
(dp940
g54
(dp941
sg63
g778
sg56
(lp942
g49
(g70
g51
NtRp943
(dp944
g54
(dp945
g74
g75
ssg63
g939
sg56
(lp946
S'http_accept'
p947
asbag49
(g70
g51
NtRp948
(dp949
g54
(dp950
g81
g82
ssg63
g939
sg56
(lp951
S':'
asbag49
(g70
g51
NtRp952
(dp953
g54
(dp954
sg63
g939
sg56
(lp955
g49
(g50
g51
NtRp956
(dp957
g54
(dp958
g62
I4
ssg63
g952
sg56
(lp959
S'text/html,application/xhtml+xml,application/xml;q=0.9,*/*;q=0.8'
p960
asbasbasbag49
(g65
g51
NtRp961
(dp962
g54
(dp963
sg63
g778
sg56
(lp964
g49
(g70
g51
NtRp965
(dp966
g54
(dp967
g74
g75
ssg63
g961
sg56
(lp968
S'http_accept_charset'
p969
asbag49
(g70
g51
NtRp970
(dp971
g54
(dp972
g81
g82
ssg63
g961
sg56
(lp973
S':'
asbag49
(g70
g51
NtRp974
(dp975
g54
(dp976
sg63
g961
sg56
(lp977
g49
(g50
g51
NtRp978
(dp979
g54
(dp980
g62
I4
ssg63
g974
sg56
(lp981
S'GBK,utf-8;q=0.7,*;q=0.3'
p982
asbasbasbag49
(g65
g51
NtRp983
(dp984
g54
(dp985
sg63
g778
sg56
(lp986
g49
(g70
g51
NtRp987
(dp988
g54
(dp989
g74
g75
ssg63
g983
sg56
(lp990
S'http_accept_encoding'
p991
asbag49
(g70
g51
NtRp992
(dp993
g54
(dp994
g81
g82
ssg63
g983
sg56
(lp995
S':'
asbag49
(g70
g51
NtRp996
(dp997
g54
(dp998
sg63
g983
sg56
(lp999
g49
(g50
g51
NtRp1000
(dp1001
g54
(dp1002
g62
I4
ssg63
g996
sg56
(lp1003
S'gzip,deflate,sdch'
p1004
asbasbasbag49
(g65
g51
NtRp1005
(dp1006
g54
(dp1007
sg63
g778
sg56
(lp1008
g49
(g70
g51
NtRp1009
(dp1010
g54
(dp1011
g74
g75
ssg63
g1005
sg56
(lp1012
S'http_accept_language'
p1013
asbag49
(g70
g51
NtRp1014
(dp1015
g54
(dp1016
g81
g82
ssg63
g1005
sg56
(lp1017
S':'
asbag49
(g70
g51
NtRp1018
(dp1019
g54
(dp1020
sg63
g1005
sg56
(lp1021
g49
(g50
g51
NtRp1022
(dp1023
g54
(dp1024
g62
I4
ssg63
g1018
sg56
(lp1025
S'zh-CN,zh;q=0.8'
p1026
asbasbasbag49
(g65
g51
NtRp1027
(dp1028
g54
(dp1029
sg63
g778
sg56
(lp1030
g49
(g70
g51
NtRp1031
(dp1032
g54
(dp1033
g74
g75
ssg63
g1027
sg56
(lp1034
S'http_connection'
p1035
asbag49
(g70
g51
NtRp1036
(dp1037
g54
(dp1038
g81
g82
ssg63
g1027
sg56
(lp1039
S':'
asbag49
(g70
g51
NtRp1040
(dp1041
g54
(dp1042
sg63
g1027
sg56
(lp1043
g49
(g50
g51
NtRp1044
(dp1045
g54
(dp1046
g62
I4
ssg63
g1040
sg56
(lp1047
S'keep-alive'
p1048
asbasbasbag49
(g65
g51
NtRp1049
(dp1050
g54
(dp1051
sg63
g778
sg56
(lp1052
g49
(g70
g51
NtRp1053
(dp1054
g54
(dp1055
g74
g75
ssg63
g1049
sg56
(lp1056
S'http_cookie'
p1057
asbag49
(g70
g51
NtRp1058
(dp1059
g54
(dp1060
g81
g82
ssg63
g1049
sg56
(lp1061
S':'
asbag49
(g70
g51
NtRp1062
(dp1063
g54
(dp1064
sg63
g1049
sg56
(lp1065
g49
(g50
g51
NtRp1066
(dp1067
g54
(dp1068
g62
I4
ssg63
g1062
sg56
(lp1069
S'session_id_welcome=127.0.0.1-689c372b-4c09-4573-a459-6c50cc578d9b; session_id_mr=127.0.0.1-93356ae9-d6eb-42c1-bf89-8f42dc924ebb; session_id_admin=127.0.0.1-571b3d08-1b04-4205-803c-964130795403'
p1070
asbasbasbag49
(g65
g51
NtRp1071
(dp1072
g54
(dp1073
sg63
g778
sg56
(lp1074
g49
(g70
g51
NtRp1075
(dp1076
g54
(dp1077
g74
g75
ssg63
g1071
sg56
(lp1078
S'http_host'
p1079
asbag49
(g70
g51
NtRp1080
(dp1081
g54
(dp1082
g81
g82
ssg63
g1071
sg56
(lp1083
S':'
asbag49
(g70
g51
NtRp1084
(dp1085
g54
(dp1086
sg63
g1071
sg56
(lp1087
g49
(g50
g51
NtRp1088
(dp1089
g54
(dp1090
g62
I4
ssg63
g1084
sg56
(lp1091
S'127.0.0.1:8000'
p1092
asbasbasbag49
(g65
g51
NtRp1093
(dp1094
g54
(dp1095
sg63
g778
sg56
(lp1096
g49
(g70
g51
NtRp1097
(dp1098
g54
(dp1099
g74
g75
ssg63
g1093
sg56
(lp1100
S'http_referer'
p1101
asbag49
(g70
g51
NtRp1102
(dp1103
g54
(dp1104
g81
g82
ssg63
g1093
sg56
(lp1105
S':'
asbag49
(g70
g51
NtRp1106
(dp1107
g54
(dp1108
sg63
g1093
sg56
(lp1109
g49
(g50
g51
NtRp1110
(dp1111
g54
(dp1112
g62
I4
ssg63
g1106
sg56
(lp1113
S'http://127.0.0.1:8000/admin/default/design/MR'
p1114
asbasbasbag49
(g65
g51
NtRp1115
(dp1116
g54
(dp1117
sg63
g778
sg56
(lp1118
g49
(g70
g51
NtRp1119
(dp1120
g54
(dp1121
g74
g75
ssg63
g1115
sg56
(lp1122
S'http_user_agent'
p1123
asbag49
(g70
g51
NtRp1124
(dp1125
g54
(dp1126
g81
g82
ssg63
g1115
sg56
(lp1127
S':'
asbag49
(g70
g51
NtRp1128
(dp1129
g54
(dp1130
sg63
g1115
sg56
(lp1131
g49
(g50
g51
NtRp1132
(dp1133
g54
(dp1134
g62
I4
ssg63
g1128
sg56
(lp1135
S'Mozilla/5.0 (Macintosh; Intel Mac OS X 10_8_3) AppleWebKit/537.31 (KHTML, like Gecko) Chrome/26.0.1410.65 Safari/537.31'
p1136
asbasbasbag49
(g65
g51
NtRp1137
(dp1138
g54
(dp1139
sg63
g778
sg56
(lp1140
g49
(g70
g51
NtRp1141
(dp1142
g54
(dp1143
g74
g75
ssg63
g1137
sg56
(lp1144
S'is_jython'
p1145
asbag49
(g70
g51
NtRp1146
(dp1147
g54
(dp1148
g81
g82
ssg63
g1137
sg56
(lp1149
S':'
asbag49
(g70
g51
NtRp1150
(dp1151
g54
(dp1152
sg63
g1137
sg56
(lp1153
g49
(g50
g51
NtRp1154
(dp1155
g54
(dp1156
g62
I4
ssg63
g1150
sg56
(lp1157
g92
asbasbasbag49
(g65
g51
NtRp1158
(dp1159
g54
(dp1160
sg63
g778
sg56
(lp1161
g49
(g70
g51
NtRp1162
(dp1163
g54
(dp1164
g74
g75
ssg63
g1158
sg56
(lp1165
S'is_pypy'
p1166
asbag49
(g70
g51
NtRp1167
(dp1168
g54
(dp1169
g81
g82
ssg63
g1158
sg56
(lp1170
S':'
asbag49
(g70
g51
NtRp1171
(dp1172
g54
(dp1173
sg63
g1158
sg56
(lp1174
g49
(g50
g51
NtRp1175
(dp1176
g54
(dp1177
g62
I4
ssg63
g1171
sg56
(lp1178
g92
asbasbasbag49
(g65
g51
NtRp1179
(dp1180
g54
(dp1181
sg63
g778
sg56
(lp1182
g49
(g70
g51
NtRp1183
(dp1184
g54
(dp1185
g74
g75
ssg63
g1179
sg56
(lp1186
S'local_hosts'
p1187
asbag49
(g70
g51
NtRp1188
(dp1189
g54
(dp1190
g81
g82
ssg63
g1179
sg56
(lp1191
S':'
asbag49
(g70
g51
NtRp1192
(dp1193
g54
(dp1194
sg63
g1179
sg56
(lp1195
g49
(g50
g51
NtRp1196
(dp1197
g54
(dp1198
g62
I4
ssg63
g1192
sg56
(lp1199
g49
(g58
g51
NtRp1200
(dp1201
g54
(dp1202
g62
I3
ssg63
Nsg56
(lp1203
g49
(g65
g51
NtRp1204
(dp1205
g54
(dp1206
sg63
g1200
sg56
(lp1207
g49
(g70
g51
NtRp1208
(dp1209
g54
(dp1210
sg63
g1204
sg56
(lp1211
g49
(g50
g51
NtRp1212
(dp1213
g54
(dp1214
g62
I3
ssg63
g1208
sg56
(lp1215
S'Liu-SiyematoMacBook-Pro.local'
p1216
asbasbasbag49
(g65
g51
NtRp1217
(dp1218
g54
(dp1219
sg63
g1200
sg56
(lp1220
g49
(g70
g51
NtRp1221
(dp1222
g54
(dp1223
sg63
g1217
sg56
(lp1224
g49
(g50
g51
NtRp1225
(dp1226
g54
(dp1227
g62
I3
ssg63
g1221
sg56
(lp1228
S'::1'
p1229
asbasbasbag49
(g65
g51
NtRp1230
(dp1231
g54
(dp1232
sg63
g1200
sg56
(lp1233
g49
(g70
g51
NtRp1234
(dp1235
g54
(dp1236
sg63
g1230
sg56
(lp1237
g49
(g50
g51
NtRp1238
(dp1239
g54
(dp1240
g62
I3
ssg63
g1234
sg56
(lp1241
S'1.0.0.0.0.0.0.0.0.0.0.0.0.0.0.0.0.0.0.0.0.0.0.0.0.0.0.0.0.0.0.0.ip6.arpa'
p1242
asbasbasbag49
(g65
g51
NtRp1243
(dp1244
g54
(dp1245
sg63
g1200
sg56
(lp1246
g49
(g70
g51
NtRp1247
(dp1248
g54
(dp1249
sg63
g1243
sg56
(lp1250
g49
(g50
g51
NtRp1251
(dp1252
g54
(dp1253
g62
I3
ssg63
g1247
sg56
(lp1254
S'::ffff:127.0.0.1'
p1255
asbasbasbag49
(g65
g51
NtRp1256
(dp1257
g54
(dp1258
sg63
g1200
sg56
(lp1259
g49
(g70
g51
NtRp1260
(dp1261
g54
(dp1262
sg63
g1256
sg56
(lp1263
g49
(g50
g51
NtRp1264
(dp1265
g54
(dp1266
g62
I3
ssg63
g1260
sg56
(lp1267
S'127.0.0.1'
p1268
asbasbasbasbasbasbasbag49
(g65
g51
NtRp1269
(dp1270
g54
(dp1271
sg63
g778
sg56
(lp1272
g49
(g70
g51
NtRp1273
(dp1274
g54
(dp1275
g74
g75
ssg63
g1269
sg56
(lp1276
S'path_info'
p1277
asbag49
(g70
g51
NtRp1278
(dp1279
g54
(dp1280
g81
g82
ssg63
g1269
sg56
(lp1281
S':'
asbag49
(g70
g51
NtRp1282
(dp1283
g54
(dp1284
sg63
g1269
sg56
(lp1285
g49
(g50
g51
NtRp1286
(dp1287
g54
(dp1288
g62
I4
ssg63
g1282
sg56
(lp1289
S'/MR/default/mobile_patient_register'
p1290
asbasbasbag49
(g65
g51
NtRp1291
(dp1292
g54
(dp1293
sg63
g778
sg56
(lp1294
g49
(g70
g51
NtRp1295
(dp1296
g54
(dp1297
g74
g75
ssg63
g1291
sg56
(lp1298
S'query_string'
p1299
asbag49
(g70
g51
NtRp1300
(dp1301
g54
(dp1302
g81
g82
ssg63
g1291
sg56
(lp1303
S':'
asbag49
(g70
g51
NtRp1304
(dp1305
g54
(dp1306
sg63
g1291
sg56
(lp1307
g49
(g50
g51
NtRp1308
(dp1309
g54
(dp1310
g62
I4
ssg63
g1304
sg56
(lp1311
S''
asbasbasbag49
(g65
g51
NtRp1312
(dp1313
g54
(dp1314
sg63
g778
sg56
(lp1315
g49
(g70
g51
NtRp1316
(dp1317
g54
(dp1318
g74
g75
ssg63
g1312
sg56
(lp1319
S'remote_addr'
p1320
asbag49
(g70
g51
NtRp1321
(dp1322
g54
(dp1323
g81
g82
ssg63
g1312
sg56
(lp1324
S':'
asbag49
(g70
g51
NtRp1325
(dp1326
g54
(dp1327
sg63
g1312
sg56
(lp1328
g49
(g50
g51
NtRp1329
(dp1330
g54
(dp1331
g62
I4
ssg63
g1325
sg56
(lp1332
g204
asbasbasbag49
(g65
g51
NtRp1333
(dp1334
g54
(dp1335
sg63
g778
sg56
(lp1336
g49
(g70
g51
NtRp1337
(dp1338
g54
(dp1339
g74
g75
ssg63
g1333
sg56
(lp1340
S'remote_port'
p1341
asbag49
(g70
g51
NtRp1342
(dp1343
g54
(dp1344
g81
g82
ssg63
g1333
sg56
(lp1345
S':'
asbag49
(g70
g51
NtRp1346
(dp1347
g54
(dp1348
sg63
g1333
sg56
(lp1349
g49
(g50
g51
NtRp1350
(dp1351
g54
(dp1352
g62
I4
ssg63
g1346
sg56
(lp1353
S'62617'
p1354
asbasbasbag49
(g65
g51
NtRp1355
(dp1356
g54
(dp1357
sg63
g778
sg56
(lp1358
g49
(g70
g51
NtRp1359
(dp1360
g54
(dp1361
g74
g75
ssg63
g1355
sg56
(lp1362
S'request_method'
p1363
asbag49
(g70
g51
NtRp1364
(dp1365
g54
(dp1366
g81
g82
ssg63
g1355
sg56
(lp1367
S':'
asbag49
(g70
g51
NtRp1368
(dp1369
g54
(dp1370
sg63
g1355
sg56
(lp1371
g49
(g50
g51
NtRp1372
(dp1373
g54
(dp1374
g62
I4
ssg63
g1368
sg56
(lp1375
S'GET'
p1376
asbasbasbag49
(g65
g51
NtRp1377
(dp1378
g54
(dp1379
sg63
g778
sg56
(lp1380
g49
(g70
g51
NtRp1381
(dp1382
g54
(dp1383
g74
g75
ssg63
g1377
sg56
(lp1384
S'request_uri'
p1385
asbag49
(g70
g51
NtRp1386
(dp1387
g54
(dp1388
g81
g82
ssg63
g1377
sg56
(lp1389
S':'
asbag49
(g70
g51
NtRp1390
(dp1391
g54
(dp1392
sg63
g1377
sg56
(lp1393
g49
(g50
g51
NtRp1394
(dp1395
g54
(dp1396
g62
I4
ssg63
g1390
sg56
(lp1397
g1290
asbasbasbag49
(g65
g51
NtRp1398
(dp1399
g54
(dp1400
sg63
g778
sg56
(lp1401
g49
(g70
g51
NtRp1402
(dp1403
g54
(dp1404
g74
g75
ssg63
g1398
sg56
(lp1405
S'script_name'
p1406
asbag49
(g70
g51
NtRp1407
(dp1408
g54
(dp1409
g81
g82
ssg63
g1398
sg56
(lp1410
S':'
asbag49
(g70
g51
NtRp1411
(dp1412
g54
(dp1413
sg63
g1398
sg56
(lp1414
g49
(g50
g51
NtRp1415
(dp1416
g54
(dp1417
g62
I4
ssg63
g1411
sg56
(lp1418
S''
asbasbasbag49
(g65
g51
NtRp1419
(dp1420
g54
(dp1421
sg63
g778
sg56
(lp1422
g49
(g70
g51
NtRp1423
(dp1424
g54
(dp1425
g74
g75
ssg63
g1419
sg56
(lp1426
S'server_name'
p1427
asbag49
(g70
g51
NtRp1428
(dp1429
g54
(dp1430
g81
g82
ssg63
g1419
sg56
(lp1431
S':'
asbag49
(g70
g51
NtRp1432
(dp1433
g54
(dp1434
sg63
g1419
sg56
(lp1435
g49
(g50
g51
NtRp1436
(dp1437
g54
(dp1438
g62
I4
ssg63
g1432
sg56
(lp1439
S'Liu-SiyematoMacBook-Pro.local'
p1440
asbasbasbag49
(g65
g51
NtRp1441
(dp1442
g54
(dp1443
sg63
g778
sg56
(lp1444
g49
(g70
g51
NtRp1445
(dp1446
g54
(dp1447
g74
g75
ssg63
g1441
sg56
(lp1448
S'server_port'
p1449
asbag49
(g70
g51
NtRp1450
(dp1451
g54
(dp1452
g81
g82
ssg63
g1441
sg56
(lp1453
S':'
asbag49
(g70
g51
NtRp1454
(dp1455
g54
(dp1456
sg63
g1441
sg56
(lp1457
g49
(g50
g51
NtRp1458
(dp1459
g54
(dp1460
g62
I4
ssg63
g1454
sg56
(lp1461
S'8000'
p1462
asbasbasbag49
(g65
g51
NtRp1463
(dp1464
g54
(dp1465
sg63
g778
sg56
(lp1466
g49
(g70
g51
NtRp1467
(dp1468
g54
(dp1469
g74
g75
ssg63
g1463
sg56
(lp1470
S'server_protocol'
p1471
asbag49
(g70
g51
NtRp1472
(dp1473
g54
(dp1474
g81
g82
ssg63
g1463
sg56
(lp1475
S':'
asbag49
(g70
g51
NtRp1476
(dp1477
g54
(dp1478
sg63
g1463
sg56
(lp1479
g49
(g50
g51
NtRp1480
(dp1481
g54
(dp1482
g62
I4
ssg63
g1476
sg56
(lp1483
S'HTTP/1.1'
p1484
asbasbasbag49
(g65
g51
NtRp1485
(dp1486
g54
(dp1487
sg63
g778
sg56
(lp1488
g49
(g70
g51
NtRp1489
(dp1490
g54
(dp1491
g74
g75
ssg63
g1485
sg56
(lp1492
S'server_software'
p1493
asbag49
(g70
g51
NtRp1494
(dp1495
g54
(dp1496
g81
g82
ssg63
g1485
sg56
(lp1497
S':'
asbag49
(g70
g51
NtRp1498
(dp1499
g54
(dp1500
sg63
g1485
sg56
(lp1501
g49
(g50
g51
NtRp1502
(dp1503
g54
(dp1504
g62
I4
ssg63
g1498
sg56
(lp1505
S'Rocket 1.2.6'
p1506
asbasbasbag49
(g65
g51
NtRp1507
(dp1508
g54
(dp1509
sg63
g778
sg56
(lp1510
g49
(g70
g51
NtRp1511
(dp1512
g54
(dp1513
g74
g75
ssg63
g1507
sg56
(lp1514
S'web2py_path'
p1515
asbag49
(g70
g51
NtRp1516
(dp1517
g54
(dp1518
g81
g82
ssg63
g1507
sg56
(lp1519
S':'
asbag49
(g70
g51
NtRp1520
(dp1521
g54
(dp1522
sg63
g1507
sg56
(lp1523
g49
(g50
g51
NtRp1524
(dp1525
g54
(dp1526
g62
I4
ssg63
g1520
sg56
(lp1527
g825
asbasbasbag49
(g65
g51
NtRp1528
(dp1529
g54
(dp1530
sg63
g778
sg56
(lp1531
g49
(g70
g51
NtRp1532
(dp1533
g54
(dp1534
g74
g75
ssg63
g1528
sg56
(lp1535
S'web2py_version'
p1536
asbag49
(g70
g51
NtRp1537
(dp1538
g54
(dp1539
g81
g82
ssg63
g1528
sg56
(lp1540
S':'
asbag49
(g70
g51
NtRp1541
(dp1542
g54
(dp1543
sg63
g1528
sg56
(lp1544
g49
(g50
g51
NtRp1545
(dp1546
g54
(dp1547
g62
I4
ssg63
g1541
sg56
(lp1548
g49
(g58
g51
NtRp1549
(dp1550
g54
(dp1551
g62
I3
ssg63
Nsg56
(lp1552
g49
(g65
g51
NtRp1553
(dp1554
g54
(dp1555
sg63
g1549
sg56
(lp1556
g49
(g70
g51
NtRp1557
(dp1558
g54
(dp1559
sg63
g1553
sg56
(lp1560
g49
(g50
g51
NtRp1561
(dp1562
g54
(dp1563
g62
I3
ssg63
g1557
sg56
(lp1564
S'2'
asbasbasbag49
(g65
g51
NtRp1565
(dp1566
g54
(dp1567
sg63
g1549
sg56
(lp1568
g49
(g70
g51
NtRp1569
(dp1570
g54
(dp1571
sg63
g1565
sg56
(lp1572
g49
(g50
g51
NtRp1573
(dp1574
g54
(dp1575
g62
I3
ssg63
g1569
sg56
(lp1576
S'4'
asbasbasbag49
(g65
g51
NtRp1577
(dp1578
g54
(dp1579
sg63
g1549
sg56
(lp1580
g49
(g70
g51
NtRp1581
(dp1582
g54
(dp1583
sg63
g1577
sg56
(lp1584
g49
(g50
g51
NtRp1585
(dp1586
g54
(dp1587
g62
I3
ssg63
g1581
sg56
(lp1588
S'5'
asbasbasbag49
(g65
g51
NtRp1589
(dp1590
g54
(dp1591
sg63
g1549
sg56
(lp1592
g49
(g70
g51
NtRp1593
(dp1594
g54
(dp1595
sg63
g1589
sg56
(lp1596
g49
(g50
g51
NtRp1597
(dp1598
g54
(dp1599
g62
I3
ssg63
g1593
sg56
(lp1600
S'stable'
p1601
asbasbasbag49
(g65
g51
NtRp1602
(dp1603
g54
(dp1604
sg63
g1549
sg56
(lp1605
g49
(g70
g51
NtRp1606
(dp1607
g54
(dp1608
sg63
g1602
sg56
(lp1609
g49
(g50
g51
NtRp1610
(dp1611
g54
(dp1612
g62
I3
ssg63
g1606
sg56
(lp1613
S'datetime.datetime(2013, 3, 18, 22, 46, 22)'
p1614
asbasbasbasbasbasbasbag49
(g65
g51
NtRp1615
(dp1616
g54
(dp1617
sg63
g778
sg56
(lp1618
g49
(g70
g51
NtRp1619
(dp1620
g54
(dp1621
g74
g75
ssg63
g1615
sg56
(lp1622
S'wsgi_errors'
p1623
asbag49
(g70
g51
NtRp1624
(dp1625
g54
(dp1626
g81
g82
ssg63
g1615
sg56
(lp1627
S':'
asbag49
(g70
g51
NtRp1628
(dp1629
g54
(dp1630
sg63
g1615
sg56
(lp1631
g49
(g50
g51
NtRp1632
(dp1633
g54
(dp1634
g62
I4
ssg63
g1628
sg56
(lp1635
S"<open file '<stderr>', mode 'w' at 0x660b0>"
p1636
asbasbasbag49
(g65
g51
NtRp1637
(dp1638
g54
(dp1639
sg63
g778
sg56
(lp1640
g49
(g70
g51
NtRp1641
(dp1642
g54
(dp1643
g74
g75
ssg63
g1637
sg56
(lp1644
S'wsgi_file_wrapper'
p1645
asbag49
(g70
g51
NtRp1646
(dp1647
g54
(dp1648
g81
g82
ssg63
g1637
sg56
(lp1649
S':'
asbag49
(g70
g51
NtRp1650
(dp1651
g54
(dp1652
sg63
g1637
sg56
(lp1653
g49
(g50
g51
NtRp1654
(dp1655
g54
(dp1656
g62
I4
ssg63
g1650
sg56
(lp1657
S'<class wsgiref.util.FileWrapper at 0x456e060>'
p1658
asbasbasbag49
(g65
g51
NtRp1659
(dp1660
g54
(dp1661
sg63
g778
sg56
(lp1662
g49
(g70
g51
NtRp1663
(dp1664
g54
(dp1665
g74
g75
ssg63
g1659
sg56
(lp1666
S'wsgi_input'
p1667
asbag49
(g70
g51
NtRp1668
(dp1669
g54
(dp1670
g81
g82
ssg63
g1659
sg56
(lp1671
S':'
asbag49
(g70
g51
NtRp1672
(dp1673
g54
(dp1674
sg63
g1659
sg56
(lp1675
g49
(g50
g51
NtRp1676
(dp1677
g54
(dp1678
g62
I4
ssg63
g1672
sg56
(lp1679
S'<socket._fileobject object at 0x8d9f1f0>'
p1680
asbasbasbag49
(g65
g51
NtRp1681
(dp1682
g54
(dp1683
sg63
g778
sg56
(lp1684
g49
(g70
g51
NtRp1685
(dp1686
g54
(dp1687
g74
g75
ssg63
g1681
sg56
(lp1688
S'wsgi_multiprocess'
p1689
asbag49
(g70
g51
NtRp1690
(dp1691
g54
(dp1692
g81
g82
ssg63
g1681
sg56
(lp1693
S':'
asbag49
(g70
g51
NtRp1694
(dp1695
g54
(dp1696
sg63
g1681
sg56
(lp1697
g49
(g50
g51
NtRp1698
(dp1699
g54
(dp1700
g62
I4
ssg63
g1694
sg56
(lp1701
g92
asbasbasbag49
(g65
g51
NtRp1702
(dp1703
g54
(dp1704
sg63
g778
sg56
(lp1705
g49
(g70
g51
NtRp1706
(dp1707
g54
(dp1708
g74
g75
ssg63
g1702
sg56
(lp1709
S'wsgi_multithread'
p1710
asbag49
(g70
g51
NtRp1711
(dp1712
g54
(dp1713
g81
g82
ssg63
g1702
sg56
(lp1714
S':'
asbag49
(g70
g51
NtRp1715
(dp1716
g54
(dp1717
sg63
g1702
sg56
(lp1718
g49
(g50
g51
NtRp1719
(dp1720
g54
(dp1721
g62
I4
ssg63
g1715
sg56
(lp1722
g916
asbasbasbag49
(g65
g51
NtRp1723
(dp1724
g54
(dp1725
sg63
g778
sg56
(lp1726
g49
(g70
g51
NtRp1727
(dp1728
g54
(dp1729
g74
g75
ssg63
g1723
sg56
(lp1730
S'wsgi_run_once'
p1731
asbag49
(g70
g51
NtRp1732
(dp1733
g54
(dp1734
g81
g82
ssg63
g1723
sg56
(lp1735
S':'
asbag49
(g70
g51
NtRp1736
(dp1737
g54
(dp1738
sg63
g1723
sg56
(lp1739
g49
(g50
g51
NtRp1740
(dp1741
g54
(dp1742
g62
I4
ssg63
g1736
sg56
(lp1743
g92
asbasbasbag49
(g65
g51
NtRp1744
(dp1745
g54
(dp1746
sg63
g778
sg56
(lp1747
g49
(g70
g51
NtRp1748
(dp1749
g54
(dp1750
g74
g75
ssg63
g1744
sg56
(lp1751
S'wsgi_url_scheme'
p1752
asbag49
(g70
g51
NtRp1753
(dp1754
g54
(dp1755
g81
g82
ssg63
g1744
sg56
(lp1756
S':'
asbag49
(g70
g51
NtRp1757
(dp1758
g54
(dp1759
sg63
g1744
sg56
(lp1760
g49
(g50
g51
NtRp1761
(dp1762
g54
(dp1763
g62
I4
ssg63
g1757
sg56
(lp1764
S'http'
p1765
asbasbasbag49
(g65
g51
NtRp1766
(dp1767
g54
(dp1768
sg63
g778
sg56
(lp1769
g49
(g70
g51
NtRp1770
(dp1771
g54
(dp1772
g74
g75
ssg63
g1766
sg56
(lp1773
S'wsgi_version'
p1774
asbag49
(g70
g51
NtRp1775
(dp1776
g54
(dp1777
g81
g82
ssg63
g1766
sg56
(lp1778
S':'
asbag49
(g70
g51
NtRp1779
(dp1780
g54
(dp1781
sg63
g1766
sg56
(lp1782
g49
(g50
g51
NtRp1783
(dp1784
g54
(dp1785
g62
I4
ssg63
g1779
sg56
(lp1786
g49
(g58
g51
NtRp1787
(dp1788
g54
(dp1789
g62
I3
ssg63
Nsg56
(lp1790
g49
(g65
g51
NtRp1791
(dp1792
g54
(dp1793
sg63
g1787
sg56
(lp1794
g49
(g70
g51
NtRp1795
(dp1796
g54
(dp1797
sg63
g1791
sg56
(lp1798
g49
(g50
g51
NtRp1799
(dp1800
g54
(dp1801
g62
I3
ssg63
g1795
sg56
(lp1802
S'1'
asbasbasbag49
(g65
g51
NtRp1803
(dp1804
g54
(dp1805
sg63
g1787
sg56
(lp1806
g49
(g70
g51
NtRp1807
(dp1808
g54
(dp1809
sg63
g1803
sg56
(lp1810
g49
(g50
g51
NtRp1811
(dp1812
g54
(dp1813
g62
I3
ssg63
g1807
sg56
(lp1814
S'0'
asbasbasbasbasbasbasbasbasbasbasbag49
(g65
g51
NtRp1815
(dp1816
g54
(dp1817
sg63
g59
sg56
(lp1818
g49
(g70
g51
NtRp1819
(dp1820
g54
(dp1821
g74
g75
ssg63
g1815
sg56
(lp1822
S'extension'
p1823
asbag49
(g70
g51
NtRp1824
(dp1825
g54
(dp1826
g81
g82
ssg63
g1815
sg56
(lp1827
S':'
asbag49
(g70
g51
NtRp1828
(dp1829
g54
(dp1830
sg63
g1815
sg56
(lp1831
g49
(g50
g51
NtRp1832
(dp1833
g54
(dp1834
g62
I5
ssg63
g1828
sg56
(lp1835
S'html'
p1836
asbasbasbag49
(g65
g51
NtRp1837
(dp1838
g54
(dp1839
sg63
g59
sg56
(lp1840
g49
(g70
g51
NtRp1841
(dp1842
g54
(dp1843
g74
g75
ssg63
g1837
sg56
(lp1844
S'folder'
p1845
asbag49
(g70
g51
NtRp1846
(dp1847
g54
(dp1848
g81
g82
ssg63
g1837
sg56
(lp1849
S':'
asbag49
(g70
g51
NtRp1850
(dp1851
g54
(dp1852
sg63
g1837
sg56
(lp1853
g49
(g50
g51
NtRp1854
(dp1855
g54
(dp1856
g62
I5
ssg63
g1850
sg56
(lp1857
S'/Applications/web2py.app/Contents/Resources/applications/MR/'
p1858
asbasbasbag49
(g65
g51
NtRp1859
(dp1860
g54
(dp1861
sg63
g59
sg56
(lp1862
g49
(g70
g51
NtRp1863
(dp1864
g54
(dp1865
g74
g75
ssg63
g1859
sg56
(lp1866
S'function'
p1867
asbag49
(g70
g51
NtRp1868
(dp1869
g54
(dp1870
g81
g82
ssg63
g1859
sg56
(lp1871
S':'
asbag49
(g70
g51
NtRp1872
(dp1873
g54
(dp1874
sg63
g1859
sg56
(lp1875
g49
(g50
g51
NtRp1876
(dp1877
g54
(dp1878
g62
I5
ssg63
g1872
sg56
(lp1879
S'mobile_patient_register'
p1880
asbasbasbag49
(g65
g51
NtRp1881
(dp1882
g54
(dp1883
sg63
g59
sg56
(lp1884
g49
(g70
g51
NtRp1885
(dp1886
g54
(dp1887
g74
g75
ssg63
g1881
sg56
(lp1888
S'get_vars'
p1889
asbag49
(g70
g51
NtRp1890
(dp1891
g54
(dp1892
g81
g82
ssg63
g1881
sg56
(lp1893
S':'
asbag49
(g70
g51
NtRp1894
(dp1895
g54
(dp1896
sg63
g1881
sg56
(lp1897
g49
(g50
g51
NtRp1898
(dp1899
g54
(dp1900
g62
I5
ssg63
g1894
sg56
(lp1901
g49
(g58
g51
NtRp1902
(dp1903
g54
(dp1904
g62
I4
ssg63
Nsg56
(lp1905
sbasbasbasbag49
(g65
g51
NtRp1906
(dp1907
g54
(dp1908
sg63
g59
sg56
(lp1909
g49
(g70
g51
NtRp1910
(dp1911
g54
(dp1912
g74
g75
ssg63
g1906
sg56
(lp1913
S'global_settings'
p1914
asbag49
(g70
g51
NtRp1915
(dp1916
g54
(dp1917
g81
g82
ssg63
g1906
sg56
(lp1918
S':'
asbag49
(g70
g51
NtRp1919
(dp1920
g54
(dp1921
sg63
g1906
sg56
(lp1922
g49
(g50
g51
NtRp1923
(dp1924
g54
(dp1925
g62
I5
ssg63
g1919
sg56
(lp1926
g49
(g58
g51
NtRp1927
(dp1928
g54
(dp1929
g62
I4
ssg63
Nsg56
(lp1930
g49
(g65
g51
NtRp1931
(dp1932
g54
(dp1933
sg63
g1927
sg56
(lp1934
g49
(g70
g51
NtRp1935
(dp1936
g54
(dp1937
g74
g75
ssg63
g1931
sg56
(lp1938
g790
asbag49
(g70
g51
NtRp1939
(dp1940
g54
(dp1941
g81
g82
ssg63
g1931
sg56
(lp1942
S':'
asbag49
(g70
g51
NtRp1943
(dp1944
g54
(dp1945
sg63
g1931
sg56
(lp1946
g49
(g50
g51
NtRp1947
(dp1948
g54
(dp1949
g62
I4
ssg63
g1943
sg56
(lp1950
S"set(['/Applications/web2py.app/Contents/Resources/applications/admin/', '/Applications/web2py.app/Contents/Resources/applications/welcome/', '/Applications/web2py.app/Contents/Resources/applications/MR/'])"
p1951
asbasbasbag49
(g65
g51
NtRp1952
(dp1953
g54
(dp1954
sg63
g1927
sg56
(lp1955
g49
(g70
g51
NtRp1956
(dp1957
g54
(dp1958
g74
g75
ssg63
g1952
sg56
(lp1959
g812
asbag49
(g70
g51
NtRp1960
(dp1961
g54
(dp1962
g81
g82
ssg63
g1952
sg56
(lp1963
S':'
asbag49
(g70
g51
NtRp1964
(dp1965
g54
(dp1966
sg63
g1952
sg56
(lp1967
g49
(g50
g51
NtRp1968
(dp1969
g54
(dp1970
g62
I4
ssg63
g1964
sg56
(lp1971
g825
asbasbasbag49
(g65
g51
NtRp1972
(dp1973
g54
(dp1974
sg63
g1927
sg56
(lp1975
g49
(g70
g51
NtRp1976
(dp1977
g54
(dp1978
g74
g75
ssg63
g1972
sg56
(lp1979
g834
asbag49
(g70
g51
NtRp1980
(dp1981
g54
(dp1982
g81
g82
ssg63
g1972
sg56
(lp1983
S':'
asbag49
(g70
g51
NtRp1984
(dp1985
g54
(dp1986
sg63
g1972
sg56
(lp1987
g49
(g50
g51
NtRp1988
(dp1989
g54
(dp1990
g62
I4
ssg63
g1984
sg56
(lp1991
g49
(g58
g51
NtRp1992
(dp1993
g54
(dp1994
g62
I3
ssg63
Nsg56
(lp1995
sbasbasbasbag49
(g65
g51
NtRp1996
(dp1997
g54
(dp1998
sg63
g1927
sg56
(lp1999
g49
(g70
g51
NtRp2000
(dp2001
g54
(dp2002
g74
g75
ssg63
g1996
sg56
(lp2003
g859
asbag49
(g70
g51
NtRp2004
(dp2005
g54
(dp2006
g81
g82
ssg63
g1996
sg56
(lp2007
S':'
asbag49
(g70
g51
NtRp2008
(dp2009
g54
(dp2010
sg63
g1996
sg56
(lp2011
g49
(g50
g51
NtRp2012
(dp2013
g54
(dp2014
g62
I4
ssg63
g2008
sg56
(lp2015
S"<Values at 0x4596f58: {'verbose': False, 'ip': '127.0.0.1', 'with_scheduler': False, 'ips': [], 'shutdown_timeout': 5, 'taskbar': False, 'port': 8000, 'maxthreads': None, 'softcron': False, 'server_name': 'Liu-SiyematoMacBook-Pro.local', 'bpython': False, 'nogui': False, 'pid_filename': 'httpserver.pid', 'extcron': False, 'runcron': False, 'run_system_tests': False, 'test': None, 'folder': '/Applications/web2py.app/Contents/Resources', 'config': '', 'import_models': False, 'winservice': '', 'shell': None, 'run': '', 'log_filename': 'httpserver.log', 'debuglevel': 30, 'args': [''], 'socket_timeout': 5, 'ssl_ca_certificate': None, 'scheduler': None, 'profiler_filename': None, 'ssl_private_key': '', 'scheduler_groups': None, 'password': '<ask>', 'request_queue_size': 5, 'ssl_certificate': '', 'cronjob': False, 'numthreads': None, 'quiet': False, 'interfaces': None, 'minthreads': None, 'timeout': 10, 'plain': False, 'nobanner': False}>"
p2016
asbasbasbag49
(g65
g51
NtRp2017
(dp2018
g54
(dp2019
sg63
g1927
sg56
(lp2020
g49
(g70
g51
NtRp2021
(dp2022
g54
(dp2023
g74
g75
ssg63
g2017
sg56
(lp2024
g881
asbag49
(g70
g51
NtRp2025
(dp2026
g54
(dp2027
g81
g82
ssg63
g2017
sg56
(lp2028
S':'
asbag49
(g70
g51
NtRp2029
(dp2030
g54
(dp2031
sg63
g2017
sg56
(lp2032
g49
(g50
g51
NtRp2033
(dp2034
g54
(dp2035
g62
I4
ssg63
g2029
sg56
(lp2036
S'set([])'
p2037
asbasbasbag49
(g65
g51
NtRp2038
(dp2039
g54
(dp2040
sg63
g1927
sg56
(lp2041
g49
(g70
g51
NtRp2042
(dp2043
g54
(dp2044
g74
g75
ssg63
g2038
sg56
(lp2045
g903
asbag49
(g70
g51
NtRp2046
(dp2047
g54
(dp2048
g81
g82
ssg63
g2038
sg56
(lp2049
S':'
asbag49
(g70
g51
NtRp2050
(dp2051
g54
(dp2052
sg63
g2038
sg56
(lp2053
g49
(g50
g51
NtRp2054
(dp2055
g54
(dp2056
g62
I4
ssg63
g2050
sg56
(lp2057
g916
asbasbasbag49
(g65
g51
NtRp2058
(dp2059
g54
(dp2060
sg63
g1927
sg56
(lp2061
g49
(g70
g51
NtRp2062
(dp2063
g54
(dp2064
g74
g75
ssg63
g2058
sg56
(lp2065
g925
asbag49
(g70
g51
NtRp2066
(dp2067
g54
(dp2068
g81
g82
ssg63
g2058
sg56
(lp2069
S':'
asbag49
(g70
g51
NtRp2070
(dp2071
g54
(dp2072
sg63
g2058
sg56
(lp2073
g49
(g50
g51
NtRp2074
(dp2075
g54
(dp2076
g62
I4
ssg63
g2070
sg56
(lp2077
g938
asbasbasbag49
(g65
g51
NtRp2078
(dp2079
g54
(dp2080
sg63
g1927
sg56
(lp2081
g49
(g70
g51
NtRp2082
(dp2083
g54
(dp2084
g74
g75
ssg63
g2078
sg56
(lp2085
g1145
asbag49
(g70
g51
NtRp2086
(dp2087
g54
(dp2088
g81
g82
ssg63
g2078
sg56
(lp2089
S':'
asbag49
(g70
g51
NtRp2090
(dp2091
g54
(dp2092
sg63
g2078
sg56
(lp2093
g49
(g50
g51
NtRp2094
(dp2095
g54
(dp2096
g62
I4
ssg63
g2090
sg56
(lp2097
g92
asbasbasbag49
(g65
g51
NtRp2098
(dp2099
g54
(dp2100
sg63
g1927
sg56
(lp2101
g49
(g70
g51
NtRp2102
(dp2103
g54
(dp2104
g74
g75
ssg63
g2098
sg56
(lp2105
g1166
asbag49
(g70
g51
NtRp2106
(dp2107
g54
(dp2108
g81
g82
ssg63
g2098
sg56
(lp2109
S':'
asbag49
(g70
g51
NtRp2110
(dp2111
g54
(dp2112
sg63
g2098
sg56
(lp2113
g49
(g50
g51
NtRp2114
(dp2115
g54
(dp2116
g62
I4
ssg63
g2110
sg56
(lp2117
g92
asbasbasbag49
(g65
g51
NtRp2118
(dp2119
g54
(dp2120
sg63
g1927
sg56
(lp2121
g49
(g70
g51
NtRp2122
(dp2123
g54
(dp2124
g74
g75
ssg63
g2118
sg56
(lp2125
g1187
asbag49
(g70
g51
NtRp2126
(dp2127
g54
(dp2128
g81
g82
ssg63
g2118
sg56
(lp2129
S':'
asbag49
(g70
g51
NtRp2130
(dp2131
g54
(dp2132
sg63
g2118
sg56
(lp2133
g49
(g50
g51
NtRp2134
(dp2135
g54
(dp2136
g62
I4
ssg63
g2130
sg56
(lp2137
g49
(g58
g51
NtRp2138
(dp2139
g54
(dp2140
g62
I3
ssg63
Nsg56
(lp2141
g49
(g65
g51
NtRp2142
(dp2143
g54
(dp2144
sg63
g2138
sg56
(lp2145
g49
(g70
g51
NtRp2146
(dp2147
g54
(dp2148
sg63
g2142
sg56
(lp2149
g49
(g50
g51
NtRp2150
(dp2151
g54
(dp2152
g62
I3
ssg63
g2146
sg56
(lp2153
g1216
asbasbasbag49
(g65
g51
NtRp2154
(dp2155
g54
(dp2156
sg63
g2138
sg56
(lp2157
g49
(g70
g51
NtRp2158
(dp2159
g54
(dp2160
sg63
g2154
sg56
(lp2161
g49
(g50
g51
NtRp2162
(dp2163
g54
(dp2164
g62
I3
ssg63
g2158
sg56
(lp2165
g1229
asbasbasbag49
(g65
g51
NtRp2166
(dp2167
g54
(dp2168
sg63
g2138
sg56
(lp2169
g49
(g70
g51
NtRp2170
(dp2171
g54
(dp2172
sg63
g2166
sg56
(lp2173
g49
(g50
g51
NtRp2174
(dp2175
g54
(dp2176
g62
I3
ssg63
g2170
sg56
(lp2177
g1242
asbasbasbag49
(g65
g51
NtRp2178
(dp2179
g54
(dp2180
sg63
g2138
sg56
(lp2181
g49
(g70
g51
NtRp2182
(dp2183
g54
(dp2184
sg63
g2178
sg56
(lp2185
g49
(g50
g51
NtRp2186
(dp2187
g54
(dp2188
g62
I3
ssg63
g2182
sg56
(lp2189
g1255
asbasbasbag49
(g65
g51
NtRp2190
(dp2191
g54
(dp2192
sg63
g2138
sg56
(lp2193
g49
(g70
g51
NtRp2194
(dp2195
g54
(dp2196
sg63
g2190
sg56
(lp2197
g49
(g50
g51
NtRp2198
(dp2199
g54
(dp2200
g62
I3
ssg63
g2194
sg56
(lp2201
g1268
asbasbasbasbasbasbasbag49
(g65
g51
NtRp2202
(dp2203
g54
(dp2204
sg63
g1927
sg56
(lp2205
g49
(g70
g51
NtRp2206
(dp2207
g54
(dp2208
g74
g75
ssg63
g2202
sg56
(lp2209
g1536
asbag49
(g70
g51
NtRp2210
(dp2211
g54
(dp2212
g81
g82
ssg63
g2202
sg56
(lp2213
S':'
asbag49
(g70
g51
NtRp2214
(dp2215
g54
(dp2216
sg63
g2202
sg56
(lp2217
g49
(g50
g51
NtRp2218
(dp2219
g54
(dp2220
g62
I4
ssg63
g2214
sg56
(lp2221
g49
(g58
g51
NtRp2222
(dp2223
g54
(dp2224
g62
I3
ssg63
Nsg56
(lp2225
g49
(g65
g51
NtRp2226
(dp2227
g54
(dp2228
sg63
g2222
sg56
(lp2229
g49
(g70
g51
NtRp2230
(dp2231
g54
(dp2232
sg63
g2226
sg56
(lp2233
g49
(g50
g51
NtRp2234
(dp2235
g54
(dp2236
g62
I3
ssg63
g2230
sg56
(lp2237
S'2'
asbasbasbag49
(g65
g51
NtRp2238
(dp2239
g54
(dp2240
sg63
g2222
sg56
(lp2241
g49
(g70
g51
NtRp2242
(dp2243
g54
(dp2244
sg63
g2238
sg56
(lp2245
g49
(g50
g51
NtRp2246
(dp2247
g54
(dp2248
g62
I3
ssg63
g2242
sg56
(lp2249
S'4'
asbasbasbag49
(g65
g51
NtRp2250
(dp2251
g54
(dp2252
sg63
g2222
sg56
(lp2253
g49
(g70
g51
NtRp2254
(dp2255
g54
(dp2256
sg63
g2250
sg56
(lp2257
g49
(g50
g51
NtRp2258
(dp2259
g54
(dp2260
g62
I3
ssg63
g2254
sg56
(lp2261
S'5'
asbasbasbag49
(g65
g51
NtRp2262
(dp2263
g54
(dp2264
sg63
g2222
sg56
(lp2265
g49
(g70
g51
NtRp2266
(dp2267
g54
(dp2268
sg63
g2262
sg56
(lp2269
g49
(g50
g51
NtRp2270
(dp2271
g54
(dp2272
g62
I3
ssg63
g2266
sg56
(lp2273
g1601
asbasbasbag49
(g65
g51
NtRp2274
(dp2275
g54
(dp2276
sg63
g2222
sg56
(lp2277
g49
(g70
g51
NtRp2278
(dp2279
g54
(dp2280
sg63
g2274
sg56
(lp2281
g49
(g50
g51
NtRp2282
(dp2283
g54
(dp2284
g62
I3
ssg63
g2278
sg56
(lp2285
S'datetime.datetime(2013, 3, 18, 22, 46, 22)'
p2286
asbasbasbasbasbasbasbasbasbasbasbag49
(g65
g51
NtRp2287
(dp2288
g54
(dp2289
sg63
g59
sg56
(lp2290
g49
(g70
g51
NtRp2291
(dp2292
g54
(dp2293
g74
g75
ssg63
g2287
sg56
(lp2294
S'is_https'
p2295
asbag49
(g70
g51
NtRp2296
(dp2297
g54
(dp2298
g81
g82
ssg63
g2287
sg56
(lp2299
S':'
asbag49
(g70
g51
NtRp2300
(dp2301
g54
(dp2302
sg63
g2287
sg56
(lp2303
g49
(g50
g51
NtRp2304
(dp2305
g54
(dp2306
g62
I5
ssg63
g2300
sg56
(lp2307
g92
asbasbasbag49
(g65
g51
NtRp2308
(dp2309
g54
(dp2310
sg63
g59
sg56
(lp2311
g49
(g70
g51
NtRp2312
(dp2313
g54
(dp2314
g74
g75
ssg63
g2308
sg56
(lp2315
S'is_local'
p2316
asbag49
(g70
g51
NtRp2317
(dp2318
g54
(dp2319
g81
g82
ssg63
g2308
sg56
(lp2320
S':'
asbag49
(g70
g51
NtRp2321
(dp2322
g54
(dp2323
sg63
g2308
sg56
(lp2324
g49
(g50
g51
NtRp2325
(dp2326
g54
(dp2327
g62
I5
ssg63
g2321
sg56
(lp2328
g916
asbasbasbag49
(g65
g51
NtRp2329
(dp2330
g54
(dp2331
sg63
g59
sg56
(lp2332
g49
(g70
g51
NtRp2333
(dp2334
g54
(dp2335
g74
g75
ssg63
g2329
sg56
(lp2336
S'is_restful'
p2337
asbag49
(g70
g51
NtRp2338
(dp2339
g54
(dp2340
g81
g82
ssg63
g2329
sg56
(lp2341
S':'
asbag49
(g70
g51
NtRp2342
(dp2343
g54
(dp2344
sg63
g2329
sg56
(lp2345
g49
(g50
g51
NtRp2346
(dp2347
g54
(dp2348
g62
I5
ssg63
g2342
sg56
(lp2349
g92
asbasbasbag49
(g65
g51
NtRp2350
(dp2351
g54
(dp2352
sg63
g59
sg56
(lp2353
g49
(g70
g51
NtRp2354
(dp2355
g54
(dp2356
g74
g75
ssg63
g2350
sg56
(lp2357
S'now'
p2358
asbag49
(g70
g51
NtRp2359
(dp2360
g54
(dp2361
g81
g82
ssg63
g2350
sg56
(lp2362
S':'
asbag49
(g70
g51
NtRp2363
(dp2364
g54
(dp2365
sg63
g2350
sg56
(lp2366
g49
(g50
g51
NtRp2367
(dp2368
g54
(dp2369
g62
I5
ssg63
g2363
sg56
(lp2370
S'datetime.datetime(2013, 5, 6, 21, 49, 2, 758904)'
p2371
asbasbasbag49
(g65
g51
NtRp2372
(dp2373
g54
(dp2374
sg63
g59
sg56
(lp2375
g49
(g70
g51
NtRp2376
(dp2377
g54
(dp2378
g74
g75
ssg63
g2372
sg56
(lp2379
S'post_vars'
p2380
asbag49
(g70
g51
NtRp2381
(dp2382
g54
(dp2383
g81
g82
ssg63
g2372
sg56
(lp2384
S':'
asbag49
(g70
g51
NtRp2385
(dp2386
g54
(dp2387
sg63
g2372
sg56
(lp2388
g49
(g50
g51
NtRp2389
(dp2390
g54
(dp2391
g62
I5
ssg63
g2385
sg56
(lp2392
g49
(g58
g51
NtRp2393
(dp2394
g54
(dp2395
g62
I4
ssg63
Nsg56
(lp2396
sbasbasbasbag49
(g65
g51
NtRp2397
(dp2398
g54
(dp2399
sg63
g59
sg56
(lp2400
g49
(g70
g51
NtRp2401
(dp2402
g54
(dp2403
g74
g75
ssg63
g2397
sg56
(lp2404
S'raw_args'
p2405
asbag49
(g70
g51
NtRp2406
(dp2407
g54
(dp2408
g81
g82
ssg63
g2397
sg56
(lp2409
S':'
asbag49
(g70
g51
NtRp2410
(dp2411
g54
(dp2412
sg63
g2397
sg56
(lp2413
g49
(g50
g51
NtRp2414
(dp2415
g54
(dp2416
g62
I5
ssg63
g2410
sg56
(lp2417
S''
asbasbasbag49
(g65
g51
NtRp2418
(dp2419
g54
(dp2420
sg63
g59
sg56
(lp2421
g49
(g70
g51
NtRp2422
(dp2423
g54
(dp2424
g74
g75
ssg63
g2418
sg56
(lp2425
S'raw_extension'
p2426
asbag49
(g70
g51
NtRp2427
(dp2428
g54
(dp2429
g81
g82
ssg63
g2418
sg56
(lp2430
S':'
asbag49
(g70
g51
NtRp2431
(dp2432
g54
(dp2433
sg63
g2418
sg56
(lp2434
g49
(g50
g51
NtRp2435
(dp2436
g54
(dp2437
g62
I5
ssg63
g2431
sg56
(lp2438
S'None'
p2439
asbasbasbag49
(g65
g51
NtRp2440
(dp2441
g54
(dp2442
sg63
g59
sg56
(lp2443
g49
(g70
g51
NtRp2444
(dp2445
g54
(dp2446
g74
g75
ssg63
g2440
sg56
(lp2447
S'url'
p2448
asbag49
(g70
g51
NtRp2449
(dp2450
g54
(dp2451
g81
g82
ssg63
g2440
sg56
(lp2452
S':'
asbag49
(g70
g51
NtRp2453
(dp2454
g54
(dp2455
sg63
g2440
sg56
(lp2456
g49
(g50
g51
NtRp2457
(dp2458
g54
(dp2459
g62
I5
ssg63
g2453
sg56
(lp2460
g1290
asbasbasbag49
(g65
g51
NtRp2461
(dp2462
g54
(dp2463
sg63
g59
sg56
(lp2464
g49
(g70
g51
NtRp2465
(dp2466
g54
(dp2467
g74
g75
ssg63
g2461
sg56
(lp2468
S'utcnow'
p2469
asbag49
(g70
g51
NtRp2470
(dp2471
g54
(dp2472
g81
g82
ssg63
g2461
sg56
(lp2473
S':'
asbag49
(g70
g51
NtRp2474
(dp2475
g54
(dp2476
sg63
g2461
sg56
(lp2477
g49
(g50
g51
NtRp2478
(dp2479
g54
(dp2480
g62
I5
ssg63
g2474
sg56
(lp2481
S'datetime.datetime(2013, 5, 7, 1, 49, 2, 758915)'
p2482
asbasbasbag49
(g65
g51
NtRp2483
(dp2484
g54
(dp2485
sg63
g59
sg56
(lp2486
g49
(g70
g51
NtRp2487
(dp2488
g54
(dp2489
g74
g75
ssg63
g2483
sg56
(lp2490
S'uuid'
p2491
asbag49
(g70
g51
NtRp2492
(dp2493
g54
(dp2494
g81
g82
ssg63
g2483
sg56
(lp2495
S':'
asbag49
(g70
g51
NtRp2496
(dp2497
g54
(dp2498
sg63
g2483
sg56
(lp2499
g49
(g50
g51
NtRp2500
(dp2501
g54
(dp2502
g62
I5
ssg63
g2496
sg56
(lp2503
S'MR/127.0.0.1.2013-05-06.21-49-02.f38a6267-538f-4f8d-843a-b0b83060ca36'
p2504
asbasbasbag49
(g65
g51
NtRp2505
(dp2506
g54
(dp2507
sg63
g59
sg56
(lp2508
g49
(g70
g51
NtRp2509
(dp2510
g54
(dp2511
g74
g75
ssg63
g2505
sg56
(lp2512
S'vars'
p2513
asbag49
(g70
g51
NtRp2514
(dp2515
g54
(dp2516
g81
g82
ssg63
g2505
sg56
(lp2517
S':'
asbag49
(g70
g51
NtRp2518
(dp2519
g54
(dp2520
sg63
g2505
sg56
(lp2521
g49
(g50
g51
NtRp2522
(dp2523
g54
(dp2524
g62
I5
ssg63
g2518
sg56
(lp2525
g49
(g58
g51
NtRp2526
(dp2527
g54
(dp2528
g62
I4
ssg63
Nsg56
(lp2529
sbasbasbasbag49
(g65
g51
NtRp2530
(dp2531
g54
(dp2532
sg63
g59
sg56
(lp2533
g49
(g70
g51
NtRp2534
(dp2535
g54
(dp2536
g74
g75
ssg63
g2530
sg56
(lp2537
S'wsgi'
p2538
asbag49
(g70
g51
NtRp2539
(dp2540
g54
(dp2541
g81
g82
ssg63
g2530
sg56
(lp2542
S':'
asbag49
(g70
g51
NtRp2543
(dp2544
g54
(dp2545
sg63
g2530
sg56
(lp2546
g49
(g50
g51
NtRp2547
(dp2548
g54
(dp2549
g62
I5
ssg63
g2543
sg56
(lp2550
g49
(g58
g51
NtRp2551
(dp2552
g54
(dp2553
g62
I4
ssg63
Nsg56
(lp2554
g49
(g65
g51
NtRp2555
(dp2556
g54
(dp2557
sg63
g2551
sg56
(lp2558
g49
(g70
g51
NtRp2559
(dp2560
g54
(dp2561
g74
g75
ssg63
g2555
sg56
(lp2562
S'environ'
p2563
asbag49
(g70
g51
NtRp2564
(dp2565
g54
(dp2566
g81
g82
ssg63
g2555
sg56
(lp2567
S':'
asbag49
(g70
g51
NtRp2568
(dp2569
g54
(dp2570
sg63
g2555
sg56
(lp2571
g49
(g50
g51
NtRp2572
(dp2573
g54
(dp2574
g62
I4
ssg63
g2568
sg56
(lp2575
g49
(g58
g51
NtRp2576
(dp2577
g54
(dp2578
g62
I3
ssg63
Nsg56
(lp2579
g49
(g65
g51
NtRp2580
(dp2581
g54
(dp2582
sg63
g2576
sg56
(lp2583
g49
(g70
g51
NtRp2584
(dp2585
g54
(dp2586
g74
g75
ssg63
g2580
sg56
(lp2587
S'HTTP_ACCEPT'
p2588
asbag49
(g70
g51
NtRp2589
(dp2590
g54
(dp2591
g81
g82
ssg63
g2580
sg56
(lp2592
S':'
asbag49
(g70
g51
NtRp2593
(dp2594
g54
(dp2595
sg63
g2580
sg56
(lp2596
g49
(g50
g51
NtRp2597
(dp2598
g54
(dp2599
g62
I3
ssg63
g2593
sg56
(lp2600
g960
asbasbasbag49
(g65
g51
NtRp2601
(dp2602
g54
(dp2603
sg63
g2576
sg56
(lp2604
g49
(g70
g51
NtRp2605
(dp2606
g54
(dp2607
g74
g75
ssg63
g2601
sg56
(lp2608
S'HTTP_ACCEPT_CHARSET'
p2609
asbag49
(g70
g51
NtRp2610
(dp2611
g54
(dp2612
g81
g82
ssg63
g2601
sg56
(lp2613
S':'
asbag49
(g70
g51
NtRp2614
(dp2615
g54
(dp2616
sg63
g2601
sg56
(lp2617
g49
(g50
g51
NtRp2618
(dp2619
g54
(dp2620
g62
I3
ssg63
g2614
sg56
(lp2621
g982
asbasbasbag49
(g65
g51
NtRp2622
(dp2623
g54
(dp2624
sg63
g2576
sg56
(lp2625
g49
(g70
g51
NtRp2626
(dp2627
g54
(dp2628
g74
g75
ssg63
g2622
sg56
(lp2629
S'HTTP_ACCEPT_ENCODING'
p2630
asbag49
(g70
g51
NtRp2631
(dp2632
g54
(dp2633
g81
g82
ssg63
g2622
sg56
(lp2634
S':'
asbag49
(g70
g51
NtRp2635
(dp2636
g54
(dp2637
sg63
g2622
sg56
(lp2638
g49
(g50
g51
NtRp2639
(dp2640
g54
(dp2641
g62
I3
ssg63
g2635
sg56
(lp2642
g1004
asbasbasbag49
(g65
g51
NtRp2643
(dp2644
g54
(dp2645
sg63
g2576
sg56
(lp2646
g49
(g70
g51
NtRp2647
(dp2648
g54
(dp2649
g74
g75
ssg63
g2643
sg56
(lp2650
S'HTTP_ACCEPT_LANGUAGE'
p2651
asbag49
(g70
g51
NtRp2652
(dp2653
g54
(dp2654
g81
g82
ssg63
g2643
sg56
(lp2655
S':'
asbag49
(g70
g51
NtRp2656
(dp2657
g54
(dp2658
sg63
g2643
sg56
(lp2659
g49
(g50
g51
NtRp2660
(dp2661
g54
(dp2662
g62
I3
ssg63
g2656
sg56
(lp2663
g1026
asbasbasbag49
(g65
g51
NtRp2664
(dp2665
g54
(dp2666
sg63
g2576
sg56
(lp2667
g49
(g70
g51
NtRp2668
(dp2669
g54
(dp2670
g74
g75
ssg63
g2664
sg56
(lp2671
S'HTTP_CONNECTION'
p2672
asbag49
(g70
g51
NtRp2673
(dp2674
g54
(dp2675
g81
g82
ssg63
g2664
sg56
(lp2676
S':'
asbag49
(g70
g51
NtRp2677
(dp2678
g54
(dp2679
sg63
g2664
sg56
(lp2680
g49
(g50
g51
NtRp2681
(dp2682
g54
(dp2683
g62
I3
ssg63
g2677
sg56
(lp2684
g1048
asbasbasbag49
(g65
g51
NtRp2685
(dp2686
g54
(dp2687
sg63
g2576
sg56
(lp2688
g49
(g70
g51
NtRp2689
(dp2690
g54
(dp2691
g74
g75
ssg63
g2685
sg56
(lp2692
S'HTTP_COOKIE'
p2693
asbag49
(g70
g51
NtRp2694
(dp2695
g54
(dp2696
g81
g82
ssg63
g2685
sg56
(lp2697
S':'
asbag49
(g70
g51
NtRp2698
(dp2699
g54
(dp2700
sg63
g2685
sg56
(lp2701
g49
(g50
g51
NtRp2702
(dp2703
g54
(dp2704
g62
I3
ssg63
g2698
sg56
(lp2705
g1070
asbasbasbag49
(g65
g51
NtRp2706
(dp2707
g54
(dp2708
sg63
g2576
sg56
(lp2709
g49
(g70
g51
NtRp2710
(dp2711
g54
(dp2712
g74
g75
ssg63
g2706
sg56
(lp2713
S'HTTP_HOST'
p2714
asbag49
(g70
g51
NtRp2715
(dp2716
g54
(dp2717
g81
g82
ssg63
g2706
sg56
(lp2718
S':'
asbag49
(g70
g51
NtRp2719
(dp2720
g54
(dp2721
sg63
g2706
sg56
(lp2722
g49
(g50
g51
NtRp2723
(dp2724
g54
(dp2725
g62
I3
ssg63
g2719
sg56
(lp2726
g1092
asbasbasbag49
(g65
g51
NtRp2727
(dp2728
g54
(dp2729
sg63
g2576
sg56
(lp2730
g49
(g70
g51
NtRp2731
(dp2732
g54
(dp2733
g74
g75
ssg63
g2727
sg56
(lp2734
S'HTTP_REFERER'
p2735
asbag49
(g70
g51
NtRp2736
(dp2737
g54
(dp2738
g81
g82
ssg63
g2727
sg56
(lp2739
S':'
asbag49
(g70
g51
NtRp2740
(dp2741
g54
(dp2742
sg63
g2727
sg56
(lp2743
g49
(g50
g51
NtRp2744
(dp2745
g54
(dp2746
g62
I3
ssg63
g2740
sg56
(lp2747
g1114
asbasbasbag49
(g65
g51
NtRp2748
(dp2749
g54
(dp2750
sg63
g2576
sg56
(lp2751
g49
(g70
g51
NtRp2752
(dp2753
g54
(dp2754
g74
g75
ssg63
g2748
sg56
(lp2755
S'HTTP_USER_AGENT'
p2756
asbag49
(g70
g51
NtRp2757
(dp2758
g54
(dp2759
g81
g82
ssg63
g2748
sg56
(lp2760
S':'
asbag49
(g70
g51
NtRp2761
(dp2762
g54
(dp2763
sg63
g2748
sg56
(lp2764
g49
(g50
g51
NtRp2765
(dp2766
g54
(dp2767
g62
I3
ssg63
g2761
sg56
(lp2768
g1136
asbasbasbag49
(g65
g51
NtRp2769
(dp2770
g54
(dp2771
sg63
g2576
sg56
(lp2772
g49
(g70
g51
NtRp2773
(dp2774
g54
(dp2775
g74
g75
ssg63
g2769
sg56
(lp2776
S'PATH_INFO'
p2777
asbag49
(g70
g51
NtRp2778
(dp2779
g54
(dp2780
g81
g82
ssg63
g2769
sg56
(lp2781
S':'
asbag49
(g70
g51
NtRp2782
(dp2783
g54
(dp2784
sg63
g2769
sg56
(lp2785
g49
(g50
g51
NtRp2786
(dp2787
g54
(dp2788
g62
I3
ssg63
g2782
sg56
(lp2789
g1290
asbasbasbag49
(g65
g51
NtRp2790
(dp2791
g54
(dp2792
sg63
g2576
sg56
(lp2793
g49
(g70
g51
NtRp2794
(dp2795
g54
(dp2796
g74
g75
ssg63
g2790
sg56
(lp2797
S'QUERY_STRING'
p2798
asbag49
(g70
g51
NtRp2799
(dp2800
g54
(dp2801
g81
g82
ssg63
g2790
sg56
(lp2802
S':'
asbag49
(g70
g51
NtRp2803
(dp2804
g54
(dp2805
sg63
g2790
sg56
(lp2806
g49
(g50
g51
NtRp2807
(dp2808
g54
(dp2809
g62
I3
ssg63
g2803
sg56
(lp2810
S''
asbasbasbag49
(g65
g51
NtRp2811
(dp2812
g54
(dp2813
sg63
g2576
sg56
(lp2814
g49
(g70
g51
NtRp2815
(dp2816
g54
(dp2817
g74
g75
ssg63
g2811
sg56
(lp2818
S'REMOTE_ADDR'
p2819
asbag49
(g70
g51
NtRp2820
(dp2821
g54
(dp2822
g81
g82
ssg63
g2811
sg56
(lp2823
S':'
asbag49
(g70
g51
NtRp2824
(dp2825
g54
(dp2826
sg63
g2811
sg56
(lp2827
g49
(g50
g51
NtRp2828
(dp2829
g54
(dp2830
g62
I3
ssg63
g2824
sg56
(lp2831
g204
asbasbasbag49
(g65
g51
NtRp2832
(dp2833
g54
(dp2834
sg63
g2576
sg56
(lp2835
g49
(g70
g51
NtRp2836
(dp2837
g54
(dp2838
g74
g75
ssg63
g2832
sg56
(lp2839
S'REMOTE_PORT'
p2840
asbag49
(g70
g51
NtRp2841
(dp2842
g54
(dp2843
g81
g82
ssg63
g2832
sg56
(lp2844
S':'
asbag49
(g70
g51
NtRp2845
(dp2846
g54
(dp2847
sg63
g2832
sg56
(lp2848
g49
(g50
g51
NtRp2849
(dp2850
g54
(dp2851
g62
I3
ssg63
g2845
sg56
(lp2852
g1354
asbasbasbag49
(g65
g51
NtRp2853
(dp2854
g54
(dp2855
sg63
g2576
sg56
(lp2856
g49
(g70
g51
NtRp2857
(dp2858
g54
(dp2859
g74
g75
ssg63
g2853
sg56
(lp2860
S'REQUEST_METHOD'
p2861
asbag49
(g70
g51
NtRp2862
(dp2863
g54
(dp2864
g81
g82
ssg63
g2853
sg56
(lp2865
S':'
asbag49
(g70
g51
NtRp2866
(dp2867
g54
(dp2868
sg63
g2853
sg56
(lp2869
g49
(g50
g51
NtRp2870
(dp2871
g54
(dp2872
g62
I3
ssg63
g2866
sg56
(lp2873
g1376
asbasbasbag49
(g65
g51
NtRp2874
(dp2875
g54
(dp2876
sg63
g2576
sg56
(lp2877
g49
(g70
g51
NtRp2878
(dp2879
g54
(dp2880
g74
g75
ssg63
g2874
sg56
(lp2881
S'REQUEST_URI'
p2882
asbag49
(g70
g51
NtRp2883
(dp2884
g54
(dp2885
g81
g82
ssg63
g2874
sg56
(lp2886
S':'
asbag49
(g70
g51
NtRp2887
(dp2888
g54
(dp2889
sg63
g2874
sg56
(lp2890
g49
(g50
g51
NtRp2891
(dp2892
g54
(dp2893
g62
I3
ssg63
g2887
sg56
(lp2894
g1290
asbasbasbag49
(g65
g51
NtRp2895
(dp2896
g54
(dp2897
sg63
g2576
sg56
(lp2898
g49
(g70
g51
NtRp2899
(dp2900
g54
(dp2901
g74
g75
ssg63
g2895
sg56
(lp2902
S'SCRIPT_NAME'
p2903
asbag49
(g70
g51
NtRp2904
(dp2905
g54
(dp2906
g81
g82
ssg63
g2895
sg56
(lp2907
S':'
asbag49
(g70
g51
NtRp2908
(dp2909
g54
(dp2910
sg63
g2895
sg56
(lp2911
g49
(g50
g51
NtRp2912
(dp2913
g54
(dp2914
g62
I3
ssg63
g2908
sg56
(lp2915
S''
asbasbasbag49
(g65
g51
NtRp2916
(dp2917
g54
(dp2918
sg63
g2576
sg56
(lp2919
g49
(g70
g51
NtRp2920
(dp2921
g54
(dp2922
g74
g75
ssg63
g2916
sg56
(lp2923
S'SERVER_NAME'
p2924
asbag49
(g70
g51
NtRp2925
(dp2926
g54
(dp2927
g81
g82
ssg63
g2916
sg56
(lp2928
S':'
asbag49
(g70
g51
NtRp2929
(dp2930
g54
(dp2931
sg63
g2916
sg56
(lp2932
g49
(g50
g51
NtRp2933
(dp2934
g54
(dp2935
g62
I3
ssg63
g2929
sg56
(lp2936
g1440
asbasbasbag49
(g65
g51
NtRp2937
(dp2938
g54
(dp2939
sg63
g2576
sg56
(lp2940
g49
(g70
g51
NtRp2941
(dp2942
g54
(dp2943
g74
g75
ssg63
g2937
sg56
(lp2944
S'SERVER_PORT'
p2945
asbag49
(g70
g51
NtRp2946
(dp2947
g54
(dp2948
g81
g82
ssg63
g2937
sg56
(lp2949
S':'
asbag49
(g70
g51
NtRp2950
(dp2951
g54
(dp2952
sg63
g2937
sg56
(lp2953
g49
(g50
g51
NtRp2954
(dp2955
g54
(dp2956
g62
I3
ssg63
g2950
sg56
(lp2957
g1462
asbasbasbag49
(g65
g51
NtRp2958
(dp2959
g54
(dp2960
sg63
g2576
sg56
(lp2961
g49
(g70
g51
NtRp2962
(dp2963
g54
(dp2964
g74
g75
ssg63
g2958
sg56
(lp2965
S'SERVER_PROTOCOL'
p2966
asbag49
(g70
g51
NtRp2967
(dp2968
g54
(dp2969
g81
g82
ssg63
g2958
sg56
(lp2970
S':'
asbag49
(g70
g51
NtRp2971
(dp2972
g54
(dp2973
sg63
g2958
sg56
(lp2974
g49
(g50
g51
NtRp2975
(dp2976
g54
(dp2977
g62
I3
ssg63
g2971
sg56
(lp2978
g1484
asbasbasbag49
(g65
g51
NtRp2979
(dp2980
g54
(dp2981
sg63
g2576
sg56
(lp2982
g49
(g70
g51
NtRp2983
(dp2984
g54
(dp2985
g74
g75
ssg63
g2979
sg56
(lp2986
S'SERVER_SOFTWARE'
p2987
asbag49
(g70
g51
NtRp2988
(dp2989
g54
(dp2990
g81
g82
ssg63
g2979
sg56
(lp2991
S':'
asbag49
(g70
g51
NtRp2992
(dp2993
g54
(dp2994
sg63
g2979
sg56
(lp2995
g49
(g50
g51
NtRp2996
(dp2997
g54
(dp2998
g62
I3
ssg63
g2992
sg56
(lp2999
g1506
asbasbasbag49
(g65
g51
NtRp3000
(dp3001
g54
(dp3002
sg63
g2576
sg56
(lp3003
g49
(g70
g51
NtRp3004
(dp3005
g54
(dp3006
g74
g75
ssg63
g3000
sg56
(lp3007
S'wsgi.errors'
p3008
asbag49
(g70
g51
NtRp3009
(dp3010
g54
(dp3011
g81
g82
ssg63
g3000
sg56
(lp3012
S':'
asbag49
(g70
g51
NtRp3013
(dp3014
g54
(dp3015
sg63
g3000
sg56
(lp3016
g49
(g50
g51
NtRp3017
(dp3018
g54
(dp3019
g62
I3
ssg63
g3013
sg56
(lp3020
S"<open file '<stderr>', mode 'w' at 0x660b0>"
p3021
asbasbasbag49
(g65
g51
NtRp3022
(dp3023
g54
(dp3024
sg63
g2576
sg56
(lp3025
g49
(g70
g51
NtRp3026
(dp3027
g54
(dp3028
g74
g75
ssg63
g3022
sg56
(lp3029
S'wsgi.file_wrapper'
p3030
asbag49
(g70
g51
NtRp3031
(dp3032
g54
(dp3033
g81
g82
ssg63
g3022
sg56
(lp3034
S':'
asbag49
(g70
g51
NtRp3035
(dp3036
g54
(dp3037
sg63
g3022
sg56
(lp3038
g49
(g50
g51
NtRp3039
(dp3040
g54
(dp3041
g62
I3
ssg63
g3035
sg56
(lp3042
S'<class wsgiref.util.FileWrapper at 0x456e060>'
p3043
asbasbasbag49
(g65
g51
NtRp3044
(dp3045
g54
(dp3046
sg63
g2576
sg56
(lp3047
g49
(g70
g51
NtRp3048
(dp3049
g54
(dp3050
g74
g75
ssg63
g3044
sg56
(lp3051
S'wsgi.input'
p3052
asbag49
(g70
g51
NtRp3053
(dp3054
g54
(dp3055
g81
g82
ssg63
g3044
sg56
(lp3056
S':'
asbag49
(g70
g51
NtRp3057
(dp3058
g54
(dp3059
sg63
g3044
sg56
(lp3060
g49
(g50
g51
NtRp3061
(dp3062
g54
(dp3063
g62
I3
ssg63
g3057
sg56
(lp3064
S'<cStringIO.StringO object at 0x83d77c0>'
p3065
asbasbasbag49
(g65
g51
NtRp3066
(dp3067
g54
(dp3068
sg63
g2576
sg56
(lp3069
g49
(g70
g51
NtRp3070
(dp3071
g54
(dp3072
g74
g75
ssg63
g3066
sg56
(lp3073
S'wsgi.multiprocess'
p3074
asbag49
(g70
g51
NtRp3075
(dp3076
g54
(dp3077
g81
g82
ssg63
g3066
sg56
(lp3078
S':'
asbag49
(g70
g51
NtRp3079
(dp3080
g54
(dp3081
sg63
g3066
sg56
(lp3082
g49
(g50
g51
NtRp3083
(dp3084
g54
(dp3085
g62
I3
ssg63
g3079
sg56
(lp3086
g92
asbasbasbag49
(g65
g51
NtRp3087
(dp3088
g54
(dp3089
sg63
g2576
sg56
(lp3090
g49
(g70
g51
NtRp3091
(dp3092
g54
(dp3093
g74
g75
ssg63
g3087
sg56
(lp3094
S'wsgi.multithread'
p3095
asbag49
(g70
g51
NtRp3096
(dp3097
g54
(dp3098
g81
g82
ssg63
g3087
sg56
(lp3099
S':'
asbag49
(g70
g51
NtRp3100
(dp3101
g54
(dp3102
sg63
g3087
sg56
(lp3103
g49
(g50
g51
NtRp3104
(dp3105
g54
(dp3106
g62
I3
ssg63
g3100
sg56
(lp3107
g916
asbasbasbag49
(g65
g51
NtRp3108
(dp3109
g54
(dp3110
sg63
g2576
sg56
(lp3111
g49
(g70
g51
NtRp3112
(dp3113
g54
(dp3114
g74
g75
ssg63
g3108
sg56
(lp3115
S'wsgi.run_once'
p3116
asbag49
(g70
g51
NtRp3117
(dp3118
g54
(dp3119
g81
g82
ssg63
g3108
sg56
(lp3120
S':'
asbag49
(g70
g51
NtRp3121
(dp3122
g54
(dp3123
sg63
g3108
sg56
(lp3124
g49
(g50
g51
NtRp3125
(dp3126
g54
(dp3127
g62
I3
ssg63
g3121
sg56
(lp3128
g92
asbasbasbag49
(g65
g51
NtRp3129
(dp3130
g54
(dp3131
sg63
g2576
sg56
(lp3132
g49
(g70
g51
NtRp3133
(dp3134
g54
(dp3135
g74
g75
ssg63
g3129
sg56
(lp3136
S'wsgi.url_scheme'
p3137
asbag49
(g70
g51
NtRp3138
(dp3139
g54
(dp3140
g81
g82
ssg63
g3129
sg56
(lp3141
S':'
asbag49
(g70
g51
NtRp3142
(dp3143
g54
(dp3144
sg63
g3129
sg56
(lp3145
g49
(g50
g51
NtRp3146
(dp3147
g54
(dp3148
g62
I3
ssg63
g3142
sg56
(lp3149
g1765
asbasbasbag49
(g65
g51
NtRp3150
(dp3151
g54
(dp3152
sg63
g2576
sg56
(lp3153
g49
(g70
g51
NtRp3154
(dp3155
g54
(dp3156
g74
g75
ssg63
g3150
sg56
(lp3157
S'wsgi.version'
p3158
asbag49
(g70
g51
NtRp3159
(dp3160
g54
(dp3161
g81
g82
ssg63
g3150
sg56
(lp3162
S':'
asbag49
(g70
g51
NtRp3163
(dp3164
g54
(dp3165
sg63
g3150
sg56
(lp3166
g49
(g50
g51
NtRp3167
(dp3168
g54
(dp3169
g62
I3
ssg63
g3163
sg56
(lp3170
S'1'
asbasbasbasbasbasbasbasbasbasbasbasbasbsS'frames'
p3171
(lp3172
(dp3173
S'file'
p3174
S'/home/mdipierro/web2py/gluon/restricted.py'
p3175
sS'dump'
p3176
(dp3177
sS'lnum'
p3178
I212
sS'lines'
p3179
(dp3180
sS'call'
p3181
S"(code='# -*- coding: utf-8 -*-\\n# this file is released ...._vars=response._caller(mobile_patient_register)\\n', environment={'A': <class 'gluon.html.A'>, 'Auth': <class 'gluon.tools.Auth'>, 'B': <class 'gluon.html.B'>, 'BEAUTIFY': <class 'gluon.html.BEAUTIFY'>, 'BODY': <class 'gluon.html.BODY'>, 'BR': <class 'gluon.html.BR'>, 'BUTTON': <class 'gluon.html.BUTTON'>, 'CAT': <class 'gluon.html.CAT'>, 'CENTER': <class 'gluon.html.CENTER'>, 'CLEANUP': <class 'gluon.validators.CLEANUP'>, ...}, layer='/Applications/web2py.app/Contents/Resources/applications/MR/controllers/default.py')"
p3182
sS'func'
p3183
S'restricted'
p3184
sa(dp3185
g3174
S'/Applications/web2py.app/Contents/Resources/applications/MR/controllers/default.py'
p3186
sg3176
(dp3187
sg3178
I126
sg3179
(dp3188
I115
S'    http://..../[app]/default/data/update/[table]/[id]'
p3189
sI116
S'    http://..../[app]/default/data/delete/[table]/[id]'
p3190
sI117
S'    http://..../[app]/default/data/select/[table]'
p3191
sI118
S'    http://..../[app]/default/data/search/[table]'
p3192
sI119
S'    but URLs must be signed, i.e. linked with'
p3193
sI120
S"      A('table',_href=URL('data/tables',user_signature=True))"
p3194
sI121
S'    or with the signed load operator'
p3195
sI122
S"      LOAD('default','data.load',args='tables',ajax=True,user_signature=True)"
p3196
sI123
S'    """'
p3197
sI124
S'    return dict(form=crud())'
p3198
ssg3181
S'()'
p3199
sg3183
S'<module>'
p3200
sa(dp3201
g3174
S'/home/mdipierro/web2py/gluon/globals.py'
p3202
sg3176
(dp3203
sg3178
I193
sg3179
(dp3204
sg3181
S'(f=<function mobile_patient_register at 0x8d9fc70>)'
p3205
sg3183
S'<lambda>'
p3206
sa(dp3207
g3174
S'/Applications/web2py.app/Contents/Resources/applications/MR/controllers/default.py'
p3208
sg3176
(dp3209
sg3178
I64
sg3179
(dp3210
I64
S'    return_result = TT.md5_hash(password)'
p3211
sI65
S'    ret = db.mobile_user.validate_and_insert(email=email, password=password, first_name=firstname, middle_name=middlename, last_name=lastname, md5=return_result, country=country)'
p3212
sI66
S''
sI67
S'    if ret.errors:'
p3213
sI68
S'        result[\'status\'] = "ERROR"'
p3214
sI59
S''
sI60
S'    if len(rows) != 0:'
p3215
sI61
S'        result[\'status\'] = "exist"'
p3216
sI62
S'        return response.json(result)'
p3217
sI63
S''
ssg3181
S'()'
p3218
sg3183
S'mobile_patient_register'
p3219
sa(dp3220
g3174
S'/home/mdipierro/web2py/gluon/utils.py'
p3221
sg3176
(dp3222
sg3178
I66
sg3179
(dp3223
sg3181
S'(text=None)'
p3224
sg3183
S'md5_hash'
p3225
sasS'pyver'
p3226
S'Python 2.5.1: /Applications/web2py.app/Contents/MacOS/python'
p3227
sS'session'
p3228
g49
(g50
g51
NtRp3229
(dp3230
g54
(dp3231
sg56
(lp3232
g49
(g58
g51
NtRp3233
(dp3234
g54
(dp3235
g62
I5
ssg63
Nsg56
(lp3236
g49
(g65
g51
NtRp3237
(dp3238
g54
(dp3239
sg63
g3233
sg56
(lp3240
g49
(g70
g51
NtRp3241
(dp3242
g54
(dp3243
g74
g75
ssg63
g3237
sg56
(lp3244
S'last_orderby'
p3245
asbag49
(g70
g51
NtRp3246
(dp3247
g54
(dp3248
g81
g82
ssg63
g3237
sg56
(lp3249
S':'
asbag49
(g70
g51
NtRp3250
(dp3251
g54
(dp3252
sg63
g3237
sg56
(lp3253
g49
(g50
g51
NtRp3254
(dp3255
g54
(dp3256
g62
I5
ssg63
g3250
sg56
(lp3257
S'None'
p3258
asbasbasbag49
(g65
g51
NtRp3259
(dp3260
g54
(dp3261
sg63
g3233
sg56
(lp3262
g49
(g70
g51
NtRp3263
(dp3264
g54
(dp3265
g74
g75
ssg63
g3259
sg56
(lp3266
S'last_query'
p3267
asbag49
(g70
g51
NtRp3268
(dp3269
g54
(dp3270
g81
g82
ssg63
g3259
sg56
(lp3271
S':'
asbag49
(g70
g51
NtRp3272
(dp3273
g54
(dp3274
sg63
g3259
sg56
(lp3275
g49
(g50
g51
NtRp3276
(dp3277
g54
(dp3278
g62
I5
ssg63
g3272
sg56
(lp3279
S'db.doctor.id>0'
p3280
asbasbasbasbasbsS'etype'
p3281
S"<type 'exceptions.TypeError'>"
p3282
sS'date'
p3283
S'Mon May  6 21:49:02 2013'
p3284
sS'response'
p3285
g49
(g50
g51
NtRp3286
(dp3287
g54
(dp3288
sg56
(lp3289
g49
(g58
g51
NtRp3290
(dp3291
g54
(dp3292
g62
I5
ssg63
Nsg56
(lp3293
g49
(g65
g51
NtRp3294
(dp3295
g54
(dp3296
sg63
g3290
sg56
(lp3297
g49
(g70
g51
NtRp3298
(dp3299
g54
(dp3300
g74
g75
ssg63
g3294
sg56
(lp3301
g147
asbag49
(g70
g51
NtRp3302
(dp3303
g54
(dp3304
g81
g82
ssg63
g3294
sg56
(lp3305
S':'
asbag49
(g70
g51
NtRp3306
(dp3307
g54
(dp3308
sg63
g3294
sg56
(lp3309
g49
(g50
g51
NtRp3310
(dp3311
g54
(dp3312
g62
I5
ssg63
g3306
sg56
(lp3313
S'<cStringIO.StringO object at 0x83f5be0>'
p3314
asbasbasbag49
(g65
g51
NtRp3315
(dp3316
g54
(dp3317
sg63
g3290
sg56
(lp3318
g49
(g70
g51
NtRp3319
(dp3320
g54
(dp3321
g74
g75
ssg63
g3315
sg56
(lp3322
g235
asbag49
(g70
g51
NtRp3323
(dp3324
g54
(dp3325
g81
g82
ssg63
g3315
sg56
(lp3326
S':'
asbag49
(g70
g51
NtRp3327
(dp3328
g54
(dp3329
sg63
g3315
sg56
(lp3330
g49
(g50
g51
NtRp3331
(dp3332
g54
(dp3333
g62
I5
ssg63
g3327
sg56
(lp3334
g49
(g58
g51
NtRp3335
(dp3336
g54
(dp3337
g62
I4
ssg63
Nsg56
(lp3338
g49
(g65
g51
NtRp3339
(dp3340
g54
(dp3341
sg63
g3335
sg56
(lp3342
g49
(g70
g51
NtRp3343
(dp3344
g54
(dp3345
g74
g75
ssg63
g3339
sg56
(lp3346
S'session_id_mr'
p3347
asbag49
(g70
g51
NtRp3348
(dp3349
g54
(dp3350
g81
g82
ssg63
g3339
sg56
(lp3351
S':'
asbag49
(g70
g51
NtRp3352
(dp3353
g54
(dp3354
sg63
g3339
sg56
(lp3355
g49
(g50
g51
NtRp3356
(dp3357
g54
(dp3358
g62
I4
ssg63
g3352
sg56
(lp3359
g446
ag49
(g58
g51
NtRp3360
(dp3361
g54
(dp3362
g62
I3
ssg63
Nsg56
(lp3363
g49
(g65
g51
NtRp3364
(dp3365
g54
(dp3366
sg63
g3360
sg56
(lp3367
g49
(g70
g51
NtRp3368
(dp3369
g54
(dp3370
g74
g75
ssg63
g3364
sg56
(lp3371
g286
asbag49
(g70
g51
NtRp3372
(dp3373
g54
(dp3374
g81
g82
ssg63
g3364
sg56
(lp3375
S':'
asbag49
(g70
g51
NtRp3376
(dp3377
g54
(dp3378
sg63
g3364
sg56
(lp3379
g49
(g50
g51
NtRp3380
(dp3381
g54
(dp3382
g62
I3
ssg63
g3376
sg56
(lp3383
S''
asbasbasbag49
(g65
g51
NtRp3384
(dp3385
g54
(dp3386
sg63
g3360
sg56
(lp3387
g49
(g70
g51
NtRp3388
(dp3389
g54
(dp3390
g74
g75
ssg63
g3384
sg56
(lp3391
g307
asbag49
(g70
g51
NtRp3392
(dp3393
g54
(dp3394
g81
g82
ssg63
g3384
sg56
(lp3395
S':'
asbag49
(g70
g51
NtRp3396
(dp3397
g54
(dp3398
sg63
g3384
sg56
(lp3399
g49
(g50
g51
NtRp3400
(dp3401
g54
(dp3402
g62
I3
ssg63
g3396
sg56
(lp3403
S''
asbasbasbag49
(g65
g51
NtRp3404
(dp3405
g54
(dp3406
sg63
g3360
sg56
(lp3407
g49
(g70
g51
NtRp3408
(dp3409
g54
(dp3410
g74
g75
ssg63
g3404
sg56
(lp3411
g328
asbag49
(g70
g51
NtRp3412
(dp3413
g54
(dp3414
g81
g82
ssg63
g3404
sg56
(lp3415
S':'
asbag49
(g70
g51
NtRp3416
(dp3417
g54
(dp3418
sg63
g3404
sg56
(lp3419
g49
(g50
g51
NtRp3420
(dp3421
g54
(dp3422
g62
I3
ssg63
g3416
sg56
(lp3423
S''
asbasbasbag49
(g65
g51
NtRp3424
(dp3425
g54
(dp3426
sg63
g3360
sg56
(lp3427
g49
(g70
g51
NtRp3428
(dp3429
g54
(dp3430
g74
g75
ssg63
g3424
sg56
(lp3431
g349
asbag49
(g70
g51
NtRp3432
(dp3433
g54
(dp3434
g81
g82
ssg63
g3424
sg56
(lp3435
S':'
asbag49
(g70
g51
NtRp3436
(dp3437
g54
(dp3438
sg63
g3424
sg56
(lp3439
g49
(g50
g51
NtRp3440
(dp3441
g54
(dp3442
g62
I3
ssg63
g3436
sg56
(lp3443
S''
asbasbasbag49
(g65
g51
NtRp3444
(dp3445
g54
(dp3446
sg63
g3360
sg56
(lp3447
g49
(g70
g51
NtRp3448
(dp3449
g54
(dp3450
g74
g75
ssg63
g3444
sg56
(lp3451
g370
asbag49
(g70
g51
NtRp3452
(dp3453
g54
(dp3454
g81
g82
ssg63
g3444
sg56
(lp3455
S':'
asbag49
(g70
g51
NtRp3456
(dp3457
g54
(dp3458
sg63
g3444
sg56
(lp3459
g49
(g50
g51
NtRp3460
(dp3461
g54
(dp3462
g62
I3
ssg63
g3456
sg56
(lp3463
S'/'
asbasbasbag49
(g65
g51
NtRp3464
(dp3465
g54
(dp3466
sg63
g3360
sg56
(lp3467
g49
(g70
g51
NtRp3468
(dp3469
g54
(dp3470
g74
g75
ssg63
g3464
sg56
(lp3471
g391
asbag49
(g70
g51
NtRp3472
(dp3473
g54
(dp3474
g81
g82
ssg63
g3464
sg56
(lp3475
S':'
asbag49
(g70
g51
NtRp3476
(dp3477
g54
(dp3478
sg63
g3464
sg56
(lp3479
g49
(g50
g51
NtRp3480
(dp3481
g54
(dp3482
g62
I3
ssg63
g3476
sg56
(lp3483
S''
asbasbasbag49
(g65
g51
NtRp3484
(dp3485
g54
(dp3486
sg63
g3360
sg56
(lp3487
g49
(g70
g51
NtRp3488
(dp3489
g54
(dp3490
g74
g75
ssg63
g3484
sg56
(lp3491
g412
asbag49
(g70
g51
NtRp3492
(dp3493
g54
(dp3494
g81
g82
ssg63
g3484
sg56
(lp3495
S':'
asbag49
(g70
g51
NtRp3496
(dp3497
g54
(dp3498
sg63
g3484
sg56
(lp3499
g49
(g50
g51
NtRp3500
(dp3501
g54
(dp3502
g62
I3
ssg63
g3496
sg56
(lp3503
S''
asbasbasbasbasbasbasbasbasbasbasbag49
(g65
g51
NtRp3504
(dp3505
g54
(dp3506
sg63
g3290
sg56
(lp3507
g49
(g70
g51
NtRp3508
(dp3509
g54
(dp3510
g74
g75
ssg63
g3504
sg56
(lp3511
S'delimiters'
p3512
asbag49
(g70
g51
NtRp3513
(dp3514
g54
(dp3515
g81
g82
ssg63
g3504
sg56
(lp3516
S':'
asbag49
(g70
g51
NtRp3517
(dp3518
g54
(dp3519
sg63
g3504
sg56
(lp3520
g49
(g50
g51
NtRp3521
(dp3522
g54
(dp3523
g62
I5
ssg63
g3517
sg56
(lp3524
g49
(g58
g51
NtRp3525
(dp3526
g54
(dp3527
g62
I4
ssg63
Nsg56
(lp3528
g49
(g65
g51
NtRp3529
(dp3530
g54
(dp3531
sg63
g3525
sg56
(lp3532
g49
(g70
g51
NtRp3533
(dp3534
g54
(dp3535
sg63
g3529
sg56
(lp3536
g49
(g50
g51
NtRp3537
(dp3538
g54
(dp3539
g62
I4
ssg63
g3533
sg56
(lp3540
S'{{'
p3541
asbasbasbag49
(g65
g51
NtRp3542
(dp3543
g54
(dp3544
sg63
g3525
sg56
(lp3545
g49
(g70
g51
NtRp3546
(dp3547
g54
(dp3548
sg63
g3542
sg56
(lp3549
g49
(g50
g51
NtRp3550
(dp3551
g54
(dp3552
g62
I4
ssg63
g3546
sg56
(lp3553
S'}}'
p3554
asbasbasbasbasbasbasbag49
(g65
g51
NtRp3555
(dp3556
g54
(dp3557
sg63
g3290
sg56
(lp3558
g49
(g70
g51
NtRp3559
(dp3560
g54
(dp3561
g74
g75
ssg63
g3555
sg56
(lp3562
S'files'
p3563
asbag49
(g70
g51
NtRp3564
(dp3565
g54
(dp3566
g81
g82
ssg63
g3555
sg56
(lp3567
S':'
asbag49
(g70
g51
NtRp3568
(dp3569
g54
(dp3570
sg63
g3555
sg56
(lp3571
g49
(g50
g51
NtRp3572
(dp3573
g54
(dp3574
g62
I5
ssg63
g3568
sg56
(lp3575
g49
(g58
g51
NtRp3576
(dp3577
g54
(dp3578
g62
I4
ssg63
Nsg56
(lp3579
sbasbasbasbag49
(g65
g51
NtRp3580
(dp3581
g54
(dp3582
sg63
g3290
sg56
(lp3583
g49
(g70
g51
NtRp3584
(dp3585
g54
(dp3586
g74
g75
ssg63
g3580
sg56
(lp3587
S'flash'
p3588
asbag49
(g70
g51
NtRp3589
(dp3590
g54
(dp3591
g81
g82
ssg63
g3580
sg56
(lp3592
S':'
asbag49
(g70
g51
NtRp3593
(dp3594
g54
(dp3595
sg63
g3580
sg56
(lp3596
g49
(g50
g51
NtRp3597
(dp3598
g54
(dp3599
g62
I5
ssg63
g3593
sg56
(lp3600
S''
asbasbasbag49
(g65
g51
NtRp3601
(dp3602
g54
(dp3603
sg63
g3290
sg56
(lp3604
g49
(g70
g51
NtRp3605
(dp3606
g54
(dp3607
g74
g75
ssg63
g3601
sg56
(lp3608
S'generic_patterns'
p3609
asbag49
(g70
g51
NtRp3610
(dp3611
g54
(dp3612
g81
g82
ssg63
g3601
sg56
(lp3613
S':'
asbag49
(g70
g51
NtRp3614
(dp3615
g54
(dp3616
sg63
g3601
sg56
(lp3617
g49
(g50
g51
NtRp3618
(dp3619
g54
(dp3620
g62
I5
ssg63
g3614
sg56
(lp3621
g49
(g58
g51
NtRp3622
(dp3623
g54
(dp3624
g62
I4
ssg63
Nsg56
(lp3625
g49
(g65
g51
NtRp3626
(dp3627
g54
(dp3628
sg63
g3622
sg56
(lp3629
g49
(g70
g51
NtRp3630
(dp3631
g54
(dp3632
sg63
g3626
sg56
(lp3633
g49
(g50
g51
NtRp3634
(dp3635
g54
(dp3636
g62
I4
ssg63
g3630
sg56
(lp3637
S'*'
asbasbasbasbasbasbasbag49
(g65
g51
NtRp3638
(dp3639
g54
(dp3640
sg63
g3290
sg56
(lp3641
g49
(g70
g51
NtRp3642
(dp3643
g54
(dp3644
g74
g75
ssg63
g3638
sg56
(lp3645
S'google_analytics_id'
p3646
asbag49
(g70
g51
NtRp3647
(dp3648
g54
(dp3649
g81
g82
ssg63
g3638
sg56
(lp3650
S':'
asbag49
(g70
g51
NtRp3651
(dp3652
g54
(dp3653
sg63
g3638
sg56
(lp3654
g49
(g50
g51
NtRp3655
(dp3656
g54
(dp3657
g62
I5
ssg63
g3651
sg56
(lp3658
S'None'
p3659
asbasbasbag49
(g65
g51
NtRp3660
(dp3661
g54
(dp3662
sg63
g3290
sg56
(lp3663
g49
(g70
g51
NtRp3664
(dp3665
g54
(dp3666
g74
g75
ssg63
g3660
sg56
(lp3667
S'headers'
p3668
asbag49
(g70
g51
NtRp3669
(dp3670
g54
(dp3671
g81
g82
ssg63
g3660
sg56
(lp3672
S':'
asbag49
(g70
g51
NtRp3673
(dp3674
g54
(dp3675
sg63
g3660
sg56
(lp3676
g49
(g50
g51
NtRp3677
(dp3678
g54
(dp3679
g62
I5
ssg63
g3673
sg56
(lp3680
g49
(g58
g51
NtRp3681
(dp3682
g54
(dp3683
g62
I4
ssg63
Nsg56
(lp3684
g49
(g65
g51
NtRp3685
(dp3686
g54
(dp3687
sg63
g3681
sg56
(lp3688
g49
(g70
g51
NtRp3689
(dp3690
g54
(dp3691
g74
g75
ssg63
g3685
sg56
(lp3692
S'X-Powered-By'
p3693
asbag49
(g70
g51
NtRp3694
(dp3695
g54
(dp3696
g81
g82
ssg63
g3685
sg56
(lp3697
S':'
asbag49
(g70
g51
NtRp3698
(dp3699
g54
(dp3700
sg63
g3685
sg56
(lp3701
g49
(g50
g51
NtRp3702
(dp3703
g54
(dp3704
g62
I4
ssg63
g3698
sg56
(lp3705
S'web2py'
p3706
asbasbasbasbasbasbasbag49
(g65
g51
NtRp3707
(dp3708
g54
(dp3709
sg63
g3290
sg56
(lp3710
g49
(g70
g51
NtRp3711
(dp3712
g54
(dp3713
g74
g75
ssg63
g3707
sg56
(lp3714
S'logo'
p3715
asbag49
(g70
g51
NtRp3716
(dp3717
g54
(dp3718
g81
g82
ssg63
g3707
sg56
(lp3719
S':'
asbag49
(g70
g51
NtRp3720
(dp3721
g54
(dp3722
sg63
g3707
sg56
(lp3723
g49
(g50
g51
NtRp3724
(dp3725
g54
(dp3726
g62
I5
ssg63
g3720
sg56
(lp3727
g49
(cgluon.html
A
p3728
g51
NtRp3729
(dp3730
g54
(dp3731
S'_class'
p3732
S'brand'
p3733
sS'_href'
p3734
S'http://www.web2py.com/'
p3735
ssg63
Nsg56
(lp3736
g49
(cgluon.html
B
p3737
g51
NtRp3738
(dp3739
g54
(dp3740
sg63
g3729
sg56
(lp3741
S'web'
p3742
ag49
(cgluon.html
SPAN
p3743
g51
NtRp3744
(dp3745
g54
(dp3746
sg63
g3738
sg56
(lp3747
I2
asbaS'py'
p3748
asbacgluon.html
XML_unpickle
p3749
(S's\r\x00\x00\x00&trade;&nbsp;'
tRp3750
asbasbasbasbag49
(g65
g51
NtRp3751
(dp3752
g54
(dp3753
sg63
g3290
sg56
(lp3754
g49
(g70
g51
NtRp3755
(dp3756
g54
(dp3757
g74
g75
ssg63
g3751
sg56
(lp3758
S'menu'
p3759
asbag49
(g70
g51
NtRp3760
(dp3761
g54
(dp3762
g81
g82
ssg63
g3751
sg56
(lp3763
S':'
asbag49
(g70
g51
NtRp3764
(dp3765
g54
(dp3766
sg63
g3751
sg56
(lp3767
g49
(g50
g51
NtRp3768
(dp3769
g54
(dp3770
g62
I5
ssg63
g3764
sg56
(lp3771
g49
(g58
g51
NtRp3772
(dp3773
g54
(dp3774
g62
I4
ssg63
Nsg56
(lp3775
g49
(g65
g51
NtRp3776
(dp3777
g54
(dp3778
sg63
g3772
sg56
(lp3779
g49
(g70
g51
NtRp3780
(dp3781
g54
(dp3782
sg63
g3776
sg56
(lp3783
g49
(g50
g51
NtRp3784
(dp3785
g54
(dp3786
g62
I4
ssg63
g3780
sg56
(lp3787
g49
(g58
g51
NtRp3788
(dp3789
g54
(dp3790
g62
I3
ssg63
Nsg56
(lp3791
g49
(g65
g51
NtRp3792
(dp3793
g54
(dp3794
sg63
g3788
sg56
(lp3795
g49
(g70
g51
NtRp3796
(dp3797
g54
(dp3798
sg63
g3792
sg56
(lp3799
g49
(g50
g51
NtRp3800
(dp3801
g54
(dp3802
g62
I3
ssg63
g3796
sg56
(lp3803
cgluon.languages
lazyT_unpickle
p3804
(S't\x04\x00\x00\x00Home'
tRp3805
asbasbasbag49
(g65
g51
NtRp3806
(dp3807
g54
(dp3808
sg63
g3788
sg56
(lp3809
g49
(g70
g51
NtRp3810
(dp3811
g54
(dp3812
sg63
g3806
sg56
(lp3813
g49
(g50
g51
NtRp3814
(dp3815
g54
(dp3816
g62
I3
ssg63
g3810
sg56
(lp3817
g92
asbasbasbag49
(g65
g51
NtRp3818
(dp3819
g54
(dp3820
sg63
g3788
sg56
(lp3821
g49
(g70
g51
NtRp3822
(dp3823
g54
(dp3824
sg63
g3818
sg56
(lp3825
g49
(g50
g51
NtRp3826
(dp3827
g54
(dp3828
g62
I3
ssg63
g3822
sg56
(lp3829
S'/MR/default/index'
p3830
asbasbasbag49
(g65
g51
NtRp3831
(dp3832
g54
(dp3833
sg63
g3788
sg56
(lp3834
g49
(g70
g51
NtRp3835
(dp3836
g54
(dp3837
sg63
g3831
sg56
(lp3838
g49
(g50
g51
NtRp3839
(dp3840
g54
(dp3841
g62
I3
ssg63
g3835
sg56
(lp3842
g49
(g58
g51
NtRp3843
(dp3844
g54
(dp3845
g62
I2
ssg63
Nsg56
(lp3846
sbasbasbasbasbasbasbasbag49
(g65
g51
NtRp3847
(dp3848
g54
(dp3849
sg63
g3772
sg56
(lp3850
g49
(g70
g51
NtRp3851
(dp3852
g54
(dp3853
sg63
g3847
sg56
(lp3854
g49
(g50
g51
NtRp3855
(dp3856
g54
(dp3857
g62
I4
ssg63
g3851
sg56
(lp3858
g49
(g58
g51
NtRp3859
(dp3860
g54
(dp3861
g62
I3
ssg63
Nsg56
(lp3862
g49
(g65
g51
NtRp3863
(dp3864
g54
(dp3865
sg63
g3859
sg56
(lp3866
g49
(g70
g51
NtRp3867
(dp3868
g54
(dp3869
sg63
g3863
sg56
(lp3870
g49
(g50
g51
NtRp3871
(dp3872
g54
(dp3873
g62
I3
ssg63
g3867
sg56
(lp3874
g49
(g3743
g51
NtRp3875
(dp3876
g54
(dp3877
g3732
S'highlighted'
p3878
ssg63
Nsg56
(lp3879
g3706
asbasbasbasbag49
(g65
g51
NtRp3880
(dp3881
g54
(dp3882
sg63
g3859
sg56
(lp3883
g49
(g70
g51
NtRp3884
(dp3885
g54
(dp3886
sg63
g3880
sg56
(lp3887
g49
(g50
g51
NtRp3888
(dp3889
g54
(dp3890
g62
I3
ssg63
g3884
sg56
(lp3891
g92
asbasbasbag49
(g65
g51
NtRp3892
(dp3893
g54
(dp3894
sg63
g3859
sg56
(lp3895
g49
(g70
g51
NtRp3896
(dp3897
g54
(dp3898
sg63
g3892
sg56
(lp3899
g49
(g50
g51
NtRp3900
(dp3901
g54
(dp3902
g62
I3
ssg63
g3896
sg56
(lp3903
S'http://web2py.com'
p3904
asbasbasbag49
(g65
g51
NtRp3905
(dp3906
g54
(dp3907
sg63
g3859
sg56
(lp3908
g49
(g70
g51
NtRp3909
(dp3910
g54
(dp3911
sg63
g3905
sg56
(lp3912
g49
(g50
g51
NtRp3913
(dp3914
g54
(dp3915
g62
I3
ssg63
g3909
sg56
(lp3916
g49
(g58
g51
NtRp3917
(dp3918
g54
(dp3919
g62
I2
ssg63
Nsg56
(lp3920
g49
(g65
g51
NtRp3921
(dp3922
g54
(dp3923
sg63
g3917
sg56
(lp3924
g49
(g70
g51
NtRp3925
(dp3926
g54
(dp3927
sg63
g3921
sg56
(lp3928
g49
(g50
g51
NtRp3929
(dp3930
g54
(dp3931
g62
I2
ssg63
g3925
sg56
(lp3932
g49
(g58
g51
NtRp3933
(dp3934
g54
(dp3935
g62
I1
ssg63
Nsg56
(lp3936
g49
(g65
g51
NtRp3937
(dp3938
g54
(dp3939
sg63
g3933
sg56
(lp3940
g49
(g70
g51
NtRp3941
(dp3942
g54
(dp3943
sg63
g3937
sg56
(lp3944
g49
(g50
g51
NtRp3945
(dp3946
g54
(dp3947
g62
I1
ssg63
g3941
sg56
(lp3948
g3804
(S's\x08\x00\x00\x00My Sites'
tRp3949
asbasbasbag49
(g65
g51
NtRp3950
(dp3951
g54
(dp3952
sg63
g3933
sg56
(lp3953
g49
(g70
g51
NtRp3954
(dp3955
g54
(dp3956
sg63
g3950
sg56
(lp3957
g49
(g50
g51
NtRp3958
(dp3959
g54
(dp3960
g62
I1
ssg63
g3954
sg56
(lp3961
I00
asbasbasbag49
(g65
g51
NtRp3962
(dp3963
g54
(dp3964
sg63
g3933
sg56
(lp3965
g49
(g70
g51
NtRp3966
(dp3967
g54
(dp3968
sg63
g3962
sg56
(lp3969
g49
(g50
g51
NtRp3970
(dp3971
g54
(dp3972
g62
I1
ssg63
g3966
sg56
(lp3973
S'/admin/default/site'
p3974
asbasbasbasbasbasbasbag49
(g65
g51
NtRp3975
(dp3976
g54
(dp3977
sg63
g3917
sg56
(lp3978
g49
(g70
g51
NtRp3979
(dp3980
g54
(dp3981
sg63
g3975
sg56
(lp3982
g49
(g50
g51
NtRp3983
(dp3984
g54
(dp3985
g62
I2
ssg63
g3979
sg56
(lp3986
g49
(g58
g51
NtRp3987
(dp3988
g54
(dp3989
g62
I1
ssg63
Nsg56
(lp3990
g49
(g65
g51
NtRp3991
(dp3992
g54
(dp3993
sg63
g3987
sg56
(lp3994
g49
(g70
g51
NtRp3995
(dp3996
g54
(dp3997
sg63
g3991
sg56
(lp3998
g49
(g50
g51
NtRp3999
(dp4000
g54
(dp4001
g62
I1
ssg63
g3995
sg56
(lp4002
g3804
(S's\x08\x00\x00\x00This App'
tRp4003
asbasbasbag49
(g65
g51
NtRp4004
(dp4005
g54
(dp4006
sg63
g3987
sg56
(lp4007
g49
(g70
g51
NtRp4008
(dp4009
g54
(dp4010
sg63
g4004
sg56
(lp4011
g49
(g50
g51
NtRp4012
(dp4013
g54
(dp4014
g62
I1
ssg63
g4008
sg56
(lp4015
I00
asbasbasbag49
(g65
g51
NtRp4016
(dp4017
g54
(dp4018
sg63
g3987
sg56
(lp4019
g49
(g70
g51
NtRp4020
(dp4021
g54
(dp4022
sg63
g4016
sg56
(lp4023
g49
(g50
g51
NtRp4024
(dp4025
g54
(dp4026
g62
I1
ssg63
g4020
sg56
(lp4027
S'/admin/default/design/MR'
p4028
asbasbasbag49
(g65
g51
NtRp4029
(dp4030
g54
(dp4031
sg63
g3987
sg56
(lp4032
g49
(g70
g51
NtRp4033
(dp4034
g54
(dp4035
sg63
g4029
sg56
(lp4036
g49
(g50
g51
NtRp4037
(dp4038
g54
(dp4039
g62
I1
ssg63
g4033
sg56
(lp4040
(lp4041
(g3804
(S's\x06\x00\x00\x00\xe6\x8e\xa7\xe4\xbb\xb6'
tRp4042
I00
S'/admin/default/edit/MR/controllers/default.py'
tp4043
a(g3804
(S's\x06\x00\x00\x00\xe8\xa6\x96\xe5\x9c\x96'
tRp4044
I00
S'/admin/default/edit/MR/views/default/mobile_patient_register.html'
tp4045
a(g3804
(S's\x0c\x00\x00\x00\xe7\xb6\xb2\xe9\xa0\x81\xe9\x85\x8d\xe7\xbd\xae'
tRp4046
I00
S'/admin/default/edit/MR/views/layout.html'
tp4047
a(g3804
(S's\x0f\x00\x00\x00\xe7\xb6\xb2\xe9\xa0\x81\xe9\xa2\xa8\xe6\xa0\xbc\xe6\xaa\x94'
tRp4048
I00
S'/admin/default/edit/MR/static/css/web2py.css'
tp4049
a(g3804
(S's\x0f\x00\x00\x00\xe8\xb3\x87\xe6\x96\x99\xe5\xba\xab\xe6\xa8\xa1\xe7\xb5\x84'
tRp4050
I00
S'/admin/default/edit/MR/models/db.py'
tp4051
a(g3804
(S's\x12\x00\x00\x00\xe9\x81\xb8\xe5\x96\xae\xe6\xa8\xa1\xe7\xb5\x84(menu)'
tRp4052
I00
S'/admin/default/edit/MR/models/menu.py'
tp4053
a(g3804
(S's\t\x00\x00\x00\xe8\xb3\x87\xe6\x96\x99\xe5\xba\xab'
tRp4054
I00
S'/MR/appadmin/index'
tp4055
a(g3804
(S't\x06\x00\x00\x00Errors'
tRp4056
I00
S'/admin/default/errors/MR'
tp4057
a(g3804
(S's\x06\x00\x00\x00\xe9\x97\x9c\xe6\x96\xbc'
tRp4058
I00
S'/admin/default/about/MR'
tp4059
aasbasbasbasbasbasbasbag49
(g65
g51
NtRp4060
(dp4061
g54
(dp4062
sg63
g3917
sg56
(lp4063
g49
(g70
g51
NtRp4064
(dp4065
g54
(dp4066
sg63
g4060
sg56
(lp4067
g49
(g50
g51
NtRp4068
(dp4069
g54
(dp4070
g62
I2
ssg63
g4064
sg56
(lp4071
g49
(g58
g51
NtRp4072
(dp4073
g54
(dp4074
g62
I1
ssg63
Nsg56
(lp4075
g49
(g65
g51
NtRp4076
(dp4077
g54
(dp4078
sg63
g4072
sg56
(lp4079
g49
(g70
g51
NtRp4080
(dp4081
g54
(dp4082
sg63
g4076
sg56
(lp4083
g49
(g50
g51
NtRp4084
(dp4085
g54
(dp4086
g62
I1
ssg63
g4080
sg56
(lp4087
S'web2py.com'
p4088
asbasbasbag49
(g65
g51
NtRp4089
(dp4090
g54
(dp4091
sg63
g4072
sg56
(lp4092
g49
(g70
g51
NtRp4093
(dp4094
g54
(dp4095
sg63
g4089
sg56
(lp4096
g49
(g50
g51
NtRp4097
(dp4098
g54
(dp4099
g62
I1
ssg63
g4093
sg56
(lp4100
I00
asbasbasbag49
(g65
g51
NtRp4101
(dp4102
g54
(dp4103
sg63
g4072
sg56
(lp4104
g49
(g70
g51
NtRp4105
(dp4106
g54
(dp4107
sg63
g4101
sg56
(lp4108
g49
(g50
g51
NtRp4109
(dp4110
g54
(dp4111
g62
I1
ssg63
g4105
sg56
(lp4112
S'http://www.web2py.com'
p4113
asbasbasbag49
(g65
g51
NtRp4114
(dp4115
g54
(dp4116
sg63
g4072
sg56
(lp4117
g49
(g70
g51
NtRp4118
(dp4119
g54
(dp4120
sg63
g4114
sg56
(lp4121
g49
(g50
g51
NtRp4122
(dp4123
g54
(dp4124
g62
I1
ssg63
g4118
sg56
(lp4125
(lp4126
(g3804
(S't\x08\x00\x00\x00Download'
tRp4127
I00
S'http://www.web2py.com/examples/default/download'
p4128
tp4129
a(g3804
(S't\x07\x00\x00\x00Support'
tRp4130
I00
S'http://www.web2py.com/examples/default/support'
p4131
tp4132
a(g3804
(S't\x04\x00\x00\x00Demo'
tRp4133
I00
S'http://web2py.com/demo_admin'
p4134
tp4135
a(g3804
(S's\x0e\x00\x00\x00Quick Examples'
tRp4136
I00
S'http://web2py.com/examples/default/examples'
p4137
tp4138
a(g3804
(S't\x03\x00\x00\x00FAQ'
tRp4139
I00
S'http://web2py.com/AlterEgo'
p4140
tp4141
a(g3804
(S't\x06\x00\x00\x00Videos'
tRp4142
I00
S'http://www.web2py.com/examples/default/videos/'
p4143
tp4144
a(g3804
(S's\x11\x00\x00\x00Free Applications'
tRp4145
I00
S'http://web2py.com/appliances'
p4146
tp4147
a(g3804
(S't\x07\x00\x00\x00Plugins'
tRp4148
I00
S'http://web2py.com/plugins'
p4149
tp4150
a(g3804
(S't\x07\x00\x00\x00Layouts'
tRp4151
I00
S'http://web2py.com/layouts'
p4152
tp4153
a(g3804
(S't\x07\x00\x00\x00Recipes'
tRp4154
I00
S'http://web2pyslices.com/'
p4155
tp4156
a(g3804
(S't\x08\x00\x00\x00Semantic'
tRp4157
I00
S'http://web2py.com/semantic'
p4158
tp4159
aasbasbasbasbasbasbasbag49
(g65
g51
NtRp4160
(dp4161
g54
(dp4162
sg63
g3917
sg56
(lp4163
g49
(g70
g51
NtRp4164
(dp4165
g54
(dp4166
sg63
g4160
sg56
(lp4167
g49
(g50
g51
NtRp4168
(dp4169
g54
(dp4170
g62
I2
ssg63
g4164
sg56
(lp4171
g49
(g58
g51
NtRp4172
(dp4173
g54
(dp4174
g62
I1
ssg63
Nsg56
(lp4175
g49
(g65
g51
NtRp4176
(dp4177
g54
(dp4178
sg63
g4172
sg56
(lp4179
g49
(g70
g51
NtRp4180
(dp4181
g54
(dp4182
sg63
g4176
sg56
(lp4183
g49
(g50
g51
NtRp4184
(dp4185
g54
(dp4186
g62
I1
ssg63
g4180
sg56
(lp4187
g3804
(S't\r\x00\x00\x00Documentation'
tRp4188
asbasbasbag49
(g65
g51
NtRp4189
(dp4190
g54
(dp4191
sg63
g4172
sg56
(lp4192
g49
(g70
g51
NtRp4193
(dp4194
g54
(dp4195
sg63
g4189
sg56
(lp4196
g49
(g50
g51
NtRp4197
(dp4198
g54
(dp4199
g62
I1
ssg63
g4193
sg56
(lp4200
I00
asbasbasbag49
(g65
g51
NtRp4201
(dp4202
g54
(dp4203
sg63
g4172
sg56
(lp4204
g49
(g70
g51
NtRp4205
(dp4206
g54
(dp4207
sg63
g4201
sg56
(lp4208
g49
(g50
g51
NtRp4209
(dp4210
g54
(dp4211
g62
I1
ssg63
g4205
sg56
(lp4212
S'http://www.web2py.com/book'
p4213
asbasbasbag49
(g65
g51
NtRp4214
(dp4215
g54
(dp4216
sg63
g4172
sg56
(lp4217
g49
(g70
g51
NtRp4218
(dp4219
g54
(dp4220
sg63
g4214
sg56
(lp4221
g49
(g50
g51
NtRp4222
(dp4223
g54
(dp4224
g62
I1
ssg63
g4218
sg56
(lp4225
(lp4226
(g3804
(S't\x07\x00\x00\x00Preface'
tRp4227
I00
S'http://www.web2py.com/book/default/chapter/00'
p4228
tp4229
a(g3804
(S't\x0c\x00\x00\x00Introduction'
tRp4230
I00
S'http://www.web2py.com/book/default/chapter/01'
p4231
tp4232
a(g3804
(S't\x06\x00\x00\x00Python'
tRp4233
I00
S'http://www.web2py.com/book/default/chapter/02'
p4234
tp4235
a(g3804
(S't\x08\x00\x00\x00Overview'
tRp4236
I00
S'http://www.web2py.com/book/default/chapter/03'
p4237
tp4238
a(g3804
(S's\x08\x00\x00\x00The Core'
tRp4239
I00
S'http://www.web2py.com/book/default/chapter/04'
p4240
tp4241
a(g3804
(S's\t\x00\x00\x00The Views'
tRp4242
I00
S'http://www.web2py.com/book/default/chapter/05'
p4243
tp4244
a(g3804
(S's\t\x00\x00\x00\xe8\xb3\x87\xe6\x96\x99\xe5\xba\xab'
tRp4245
I00
S'http://www.web2py.com/book/default/chapter/06'
p4246
tp4247
a(g3804
(S's\x14\x00\x00\x00Forms and Validators'
tRp4248
I00
S'http://www.web2py.com/book/default/chapter/07'
p4249
tp4250
a(g3804
(S's\r\x00\x00\x00Email and SMS'
tRp4251
I00
S'http://www.web2py.com/book/default/chapter/08'
p4252
tp4253
a(g3804
(S's\x0e\x00\x00\x00Access Control'
tRp4254
I00
S'http://www.web2py.com/book/default/chapter/09'
p4255
tp4256
a(g3804
(S't\x08\x00\x00\x00Services'
tRp4257
I00
S'http://www.web2py.com/book/default/chapter/10'
p4258
tp4259
a(g3804
(S's\x0c\x00\x00\x00Ajax Recipes'
tRp4260
I00
S'http://www.web2py.com/book/default/chapter/11'
p4261
tp4262
a(g3804
(S's\x16\x00\x00\x00Components and Plugins'
tRp4263
I00
S'http://www.web2py.com/book/default/chapter/12'
p4264
tp4265
a(g3804
(S's\x12\x00\x00\x00Deployment Recipes'
tRp4266
I00
S'http://www.web2py.com/book/default/chapter/13'
p4267
tp4268
a(g3804
(S's\r\x00\x00\x00Other Recipes'
tRp4269
I00
S'http://www.web2py.com/book/default/chapter/14'
p4270
tp4271
a(g3804
(S's\r\x00\x00\x00Buy this book'
tRp4272
I00
S'http://stores.lulu.com/web2py'
p4273
tp4274
aasbasbasbasbasbasbasbag49
(g65
g51
NtRp4275
(dp4276
g54
(dp4277
sg63
g3917
sg56
(lp4278
g49
(g70
g51
NtRp4279
(dp4280
g54
(dp4281
sg63
g4275
sg56
(lp4282
g49
(g50
g51
NtRp4283
(dp4284
g54
(dp4285
g62
I2
ssg63
g4279
sg56
(lp4286
g49
(g58
g51
NtRp4287
(dp4288
g54
(dp4289
g62
I1
ssg63
Nsg56
(lp4290
g49
(g65
g51
NtRp4291
(dp4292
g54
(dp4293
sg63
g4287
sg56
(lp4294
g49
(g70
g51
NtRp4295
(dp4296
g54
(dp4297
sg63
g4291
sg56
(lp4298
g49
(g50
g51
NtRp4299
(dp4300
g54
(dp4301
g62
I1
ssg63
g4295
sg56
(lp4302
g3804
(S't\t\x00\x00\x00Community'
tRp4303
asbasbasbag49
(g65
g51
NtRp4304
(dp4305
g54
(dp4306
sg63
g4287
sg56
(lp4307
g49
(g70
g51
NtRp4308
(dp4309
g54
(dp4310
sg63
g4304
sg56
(lp4311
g49
(g50
g51
NtRp4312
(dp4313
g54
(dp4314
g62
I1
ssg63
g4308
sg56
(lp4315
I00
asbasbasbag49
(g65
g51
NtRp4316
(dp4317
g54
(dp4318
sg63
g4287
sg56
(lp4319
g49
(g70
g51
NtRp4320
(dp4321
g54
(dp4322
sg63
g4316
sg56
(lp4323
g49
(g50
g51
NtRp4324
(dp4325
g54
(dp4326
g62
I1
ssg63
g4320
sg56
(lp4327
Nasbasbasbag49
(g65
g51
NtRp4328
(dp4329
g54
(dp4330
sg63
g4287
sg56
(lp4331
g49
(g70
g51
NtRp4332
(dp4333
g54
(dp4334
sg63
g4328
sg56
(lp4335
g49
(g50
g51
NtRp4336
(dp4337
g54
(dp4338
g62
I1
ssg63
g4332
sg56
(lp4339
(lp4340
(g3804
(S't\x06\x00\x00\x00Groups'
tRp4341
I00
S'http://www.web2py.com/examples/default/usergroups'
p4342
tp4343
a(g3804
(S't\x07\x00\x00\x00Twitter'
tRp4344
I00
S'http://twitter.com/web2py'
p4345
tp4346
a(g3804
(S's\t\x00\x00\x00Live Chat'
tRp4347
I00
S'http://webchat.freenode.net/?channels=web2py'
p4348
tp4349
aasbasbasbasbasbasbasbag49
(g65
g51
NtRp4350
(dp4351
g54
(dp4352
sg63
g3917
sg56
(lp4353
g49
(g70
g51
NtRp4354
(dp4355
g54
(dp4356
sg63
g4350
sg56
(lp4357
g49
(g50
g51
NtRp4358
(dp4359
g54
(dp4360
g62
I2
ssg63
g4354
sg56
(lp4361
g49
(g58
g51
NtRp4362
(dp4363
g54
(dp4364
g62
I1
ssg63
Nsg56
(lp4365
g49
(g65
g51
NtRp4366
(dp4367
g54
(dp4368
sg63
g4362
sg56
(lp4369
g49
(g70
g51
NtRp4370
(dp4371
g54
(dp4372
sg63
g4366
sg56
(lp4373
g49
(g50
g51
NtRp4374
(dp4375
g54
(dp4376
g62
I1
ssg63
g4370
sg56
(lp4377
g3804
(S't\x07\x00\x00\x00Plugins'
tRp4378
asbasbasbag49
(g65
g51
NtRp4379
(dp4380
g54
(dp4381
sg63
g4362
sg56
(lp4382
g49
(g70
g51
NtRp4383
(dp4384
g54
(dp4385
sg63
g4379
sg56
(lp4386
g49
(g50
g51
NtRp4387
(dp4388
g54
(dp4389
g62
I1
ssg63
g4383
sg56
(lp4390
I00
asbasbasbag49
(g65
g51
NtRp4391
(dp4392
g54
(dp4393
sg63
g4362
sg56
(lp4394
g49
(g70
g51
NtRp4395
(dp4396
g54
(dp4397
sg63
g4391
sg56
(lp4398
g49
(g50
g51
NtRp4399
(dp4400
g54
(dp4401
g62
I1
ssg63
g4395
sg56
(lp4402
Nasbasbasbag49
(g65
g51
NtRp4403
(dp4404
g54
(dp4405
sg63
g4362
sg56
(lp4406
g49
(g70
g51
NtRp4407
(dp4408
g54
(dp4409
sg63
g4403
sg56
(lp4410
g49
(g50
g51
NtRp4411
(dp4412
g54
(dp4413
g62
I1
ssg63
g4407
sg56
(lp4414
(lp4415
(S'plugin_wiki'
p4416
I00
S'http://web2py.com/examples/default/download'
p4417
tp4418
a(g3804
(S's\r\x00\x00\x00Other Plugins'
tRp4419
I00
g4149
tp4420
a(g3804
(S's\x0e\x00\x00\x00Layout Plugins'
tRp4421
I00
g4152
tp4422
aasbasbasbasbasbasbasbasbasbasbasbasbasbasbasbasbasbasbasbag49
(g65
g51
NtRp4423
(dp4424
g54
(dp4425
sg63
g3290
sg56
(lp4426
g49
(g70
g51
NtRp4427
(dp4428
g54
(dp4429
g74
g75
ssg63
g4423
sg56
(lp4430
S'meta'
p4431
asbag49
(g70
g51
NtRp4432
(dp4433
g54
(dp4434
g81
g82
ssg63
g4423
sg56
(lp4435
S':'
asbag49
(g70
g51
NtRp4436
(dp4437
g54
(dp4438
sg63
g4423
sg56
(lp4439
g49
(g50
g51
NtRp4440
(dp4441
g54
(dp4442
g62
I5
ssg63
g4436
sg56
(lp4443
g49
(g58
g51
NtRp4444
(dp4445
g54
(dp4446
g62
I4
ssg63
Nsg56
(lp4447
g49
(g65
g51
NtRp4448
(dp4449
g54
(dp4450
sg63
g4444
sg56
(lp4451
g49
(g70
g51
NtRp4452
(dp4453
g54
(dp4454
g74
g75
ssg63
g4448
sg56
(lp4455
S'author'
p4456
asbag49
(g70
g51
NtRp4457
(dp4458
g54
(dp4459
g81
g82
ssg63
g4448
sg56
(lp4460
S':'
asbag49
(g70
g51
NtRp4461
(dp4462
g54
(dp4463
sg63
g4448
sg56
(lp4464
g49
(g50
g51
NtRp4465
(dp4466
g54
(dp4467
g62
I4
ssg63
g4461
sg56
(lp4468
S'Your Name <you@example.com>'
p4469
asbasbasbag49
(g65
g51
NtRp4470
(dp4471
g54
(dp4472
sg63
g4444
sg56
(lp4473
g49
(g70
g51
NtRp4474
(dp4475
g54
(dp4476
g74
g75
ssg63
g4470
sg56
(lp4477
S'description'
p4478
asbag49
(g70
g51
NtRp4479
(dp4480
g54
(dp4481
g81
g82
ssg63
g4470
sg56
(lp4482
S':'
asbag49
(g70
g51
NtRp4483
(dp4484
g54
(dp4485
sg63
g4470
sg56
(lp4486
g49
(g50
g51
NtRp4487
(dp4488
g54
(dp4489
g62
I4
ssg63
g4483
sg56
(lp4490
S'a cool new app'
p4491
asbasbasbag49
(g65
g51
NtRp4492
(dp4493
g54
(dp4494
sg63
g4444
sg56
(lp4495
g49
(g70
g51
NtRp4496
(dp4497
g54
(dp4498
g74
g75
ssg63
g4492
sg56
(lp4499
S'generator'
p4500
asbag49
(g70
g51
NtRp4501
(dp4502
g54
(dp4503
g81
g82
ssg63
g4492
sg56
(lp4504
S':'
asbag49
(g70
g51
NtRp4505
(dp4506
g54
(dp4507
sg63
g4492
sg56
(lp4508
g49
(g50
g51
NtRp4509
(dp4510
g54
(dp4511
g62
I4
ssg63
g4505
sg56
(lp4512
S'Web2py Web Framework'
p4513
asbasbasbag49
(g65
g51
NtRp4514
(dp4515
g54
(dp4516
sg63
g4444
sg56
(lp4517
g49
(g70
g51
NtRp4518
(dp4519
g54
(dp4520
g74
g75
ssg63
g4514
sg56
(lp4521
S'keywords'
p4522
asbag49
(g70
g51
NtRp4523
(dp4524
g54
(dp4525
g81
g82
ssg63
g4514
sg56
(lp4526
S':'
asbag49
(g70
g51
NtRp4527
(dp4528
g54
(dp4529
sg63
g4514
sg56
(lp4530
g49
(g50
g51
NtRp4531
(dp4532
g54
(dp4533
g62
I4
ssg63
g4527
sg56
(lp4534
S'web2py, python, framework'
p4535
asbasbasbasbasbasbasbag49
(g65
g51
NtRp4536
(dp4537
g54
(dp4538
sg63
g3290
sg56
(lp4539
g49
(g70
g51
NtRp4540
(dp4541
g54
(dp4542
g74
g75
ssg63
g4536
sg56
(lp4543
S'models_to_run'
p4544
asbag49
(g70
g51
NtRp4545
(dp4546
g54
(dp4547
g81
g82
ssg63
g4536
sg56
(lp4548
S':'
asbag49
(g70
g51
NtRp4549
(dp4550
g54
(dp4551
sg63
g4536
sg56
(lp4552
g49
(g50
g51
NtRp4553
(dp4554
g54
(dp4555
g62
I5
ssg63
g4549
sg56
(lp4556
g49
(g58
g51
NtRp4557
(dp4558
g54
(dp4559
g62
I4
ssg63
Nsg56
(lp4560
g49
(g65
g51
NtRp4561
(dp4562
g54
(dp4563
sg63
g4557
sg56
(lp4564
g49
(g70
g51
NtRp4565
(dp4566
g54
(dp4567
sg63
g4561
sg56
(lp4568
g49
(g50
g51
NtRp4569
(dp4570
g54
(dp4571
g62
I4
ssg63
g4565
sg56
(lp4572
S'^\\w+\\.py$'
p4573
asbasbasbag49
(g65
g51
NtRp4574
(dp4575
g54
(dp4576
sg63
g4557
sg56
(lp4577
g49
(g70
g51
NtRp4578
(dp4579
g54
(dp4580
sg63
g4574
sg56
(lp4581
g49
(g50
g51
NtRp4582
(dp4583
g54
(dp4584
g62
I4
ssg63
g4578
sg56
(lp4585
S'^default/\\w+\\.py$'
p4586
asbasbasbag49
(g65
g51
NtRp4587
(dp4588
g54
(dp4589
sg63
g4557
sg56
(lp4590
g49
(g70
g51
NtRp4591
(dp4592
g54
(dp4593
sg63
g4587
sg56
(lp4594
g49
(g50
g51
NtRp4595
(dp4596
g54
(dp4597
g62
I4
ssg63
g4591
sg56
(lp4598
S'^default/mobile_patient_register/\\w+\\.py$'
p4599
asbasbasbasbasbasbasbag49
(g65
g51
NtRp4600
(dp4601
g54
(dp4602
sg63
g3290
sg56
(lp4603
g49
(g70
g51
NtRp4604
(dp4605
g54
(dp4606
g74
g75
ssg63
g4600
sg56
(lp4607
S'postprocessing'
p4608
asbag49
(g70
g51
NtRp4609
(dp4610
g54
(dp4611
g81
g82
ssg63
g4600
sg56
(lp4612
S':'
asbag49
(g70
g51
NtRp4613
(dp4614
g54
(dp4615
sg63
g4600
sg56
(lp4616
g49
(g50
g51
NtRp4617
(dp4618
g54
(dp4619
g62
I5
ssg63
g4613
sg56
(lp4620
g49
(g58
g51
NtRp4621
(dp4622
g54
(dp4623
g62
I4
ssg63
Nsg56
(lp4624
sbasbasbasbag49
(g65
g51
NtRp4625
(dp4626
g54
(dp4627
sg63
g3290
sg56
(lp4628
g49
(g70
g51
NtRp4629
(dp4630
g54
(dp4631
g74
g75
ssg63
g4625
sg56
(lp4632
S'session_cookie_expires'
p4633
asbag49
(g70
g51
NtRp4634
(dp4635
g54
(dp4636
g81
g82
ssg63
g4625
sg56
(lp4637
S':'
asbag49
(g70
g51
NtRp4638
(dp4639
g54
(dp4640
sg63
g4625
sg56
(lp4641
g49
(g50
g51
NtRp4642
(dp4643
g54
(dp4644
g62
I5
ssg63
g4638
sg56
(lp4645
S'None'
p4646
asbasbasbag49
(g65
g51
NtRp4647
(dp4648
g54
(dp4649
sg63
g3290
sg56
(lp4650
g49
(g70
g51
NtRp4651
(dp4652
g54
(dp4653
g74
g75
ssg63
g4647
sg56
(lp4654
S'session_data_name'
p4655
asbag49
(g70
g51
NtRp4656
(dp4657
g54
(dp4658
g81
g82
ssg63
g4647
sg56
(lp4659
S':'
asbag49
(g70
g51
NtRp4660
(dp4661
g54
(dp4662
sg63
g4647
sg56
(lp4663
g49
(g50
g51
NtRp4664
(dp4665
g54
(dp4666
g62
I5
ssg63
g4660
sg56
(lp4667
S'session_data_mr'
p4668
asbasbasbag49
(g65
g51
NtRp4669
(dp4670
g54
(dp4671
sg63
g3290
sg56
(lp4672
g49
(g70
g51
NtRp4673
(dp4674
g54
(dp4675
g74
g75
ssg63
g4669
sg56
(lp4676
S'session_file'
p4677
asbag49
(g70
g51
NtRp4678
(dp4679
g54
(dp4680
g81
g82
ssg63
g4669
sg56
(lp4681
S':'
asbag49
(g70
g51
NtRp4682
(dp4683
g54
(dp4684
sg63
g4669
sg56
(lp4685
g49
(g50
g51
NtRp4686
(dp4687
g54
(dp4688
g62
I5
ssg63
g4682
sg56
(lp4689
S"<open file '/Applications/web2py.app/Contents/Resources/applications/MR/sessions/127.0.0.1-93356ae9-d6eb-42c1-bf89-8f42dc924ebb', mode 'rb+' at 0x8d84968>"
p4690
asbasbasbag49
(g65
g51
NtRp4691
(dp4692
g54
(dp4693
sg63
g3290
sg56
(lp4694
g49
(g70
g51
NtRp4695
(dp4696
g54
(dp4697
g74
g75
ssg63
g4691
sg56
(lp4698
S'session_filename'
p4699
asbag49
(g70
g51
NtRp4700
(dp4701
g54
(dp4702
g81
g82
ssg63
g4691
sg56
(lp4703
S':'
asbag49
(g70
g51
NtRp4704
(dp4705
g54
(dp4706
sg63
g4691
sg56
(lp4707
g49
(g50
g51
NtRp4708
(dp4709
g54
(dp4710
g62
I5
ssg63
g4704
sg56
(lp4711
S'/Applications/web2py.app/Contents/Resources/applications/MR/sessions/127.0.0.1-93356ae9-d6eb-42c1-bf89-8f42dc924ebb'
p4712
asbasbasbag49
(g65
g51
NtRp4713
(dp4714
g54
(dp4715
sg63
g3290
sg56
(lp4716
g49
(g70
g51
NtRp4717
(dp4718
g54
(dp4719
g74
g75
ssg63
g4713
sg56
(lp4720
S'session_id'
p4721
asbag49
(g70
g51
NtRp4722
(dp4723
g54
(dp4724
g81
g82
ssg63
g4713
sg56
(lp4725
S':'
asbag49
(g70
g51
NtRp4726
(dp4727
g54
(dp4728
sg63
g4713
sg56
(lp4729
g49
(g50
g51
NtRp4730
(dp4731
g54
(dp4732
g62
I5
ssg63
g4726
sg56
(lp4733
g446
asbasbasbag49
(g65
g51
NtRp4734
(dp4735
g54
(dp4736
sg63
g3290
sg56
(lp4737
g49
(g70
g51
NtRp4738
(dp4739
g54
(dp4740
g74
g75
ssg63
g4734
sg56
(lp4741
S'session_id_name'
p4742
asbag49
(g70
g51
NtRp4743
(dp4744
g54
(dp4745
g81
g82
ssg63
g4734
sg56
(lp4746
S':'
asbag49
(g70
g51
NtRp4747
(dp4748
g54
(dp4749
sg63
g4734
sg56
(lp4750
g49
(g50
g51
NtRp4751
(dp4752
g54
(dp4753
g62
I5
ssg63
g4747
sg56
(lp4754
g3347
asbasbasbag49
(g65
g51
NtRp4755
(dp4756
g54
(dp4757
sg63
g3290
sg56
(lp4758
g49
(g70
g51
NtRp4759
(dp4760
g54
(dp4761
g74
g75
ssg63
g4755
sg56
(lp4762
S'session_locked'
p4763
asbag49
(g70
g51
NtRp4764
(dp4765
g54
(dp4766
g81
g82
ssg63
g4755
sg56
(lp4767
S':'
asbag49
(g70
g51
NtRp4768
(dp4769
g54
(dp4770
sg63
g4755
sg56
(lp4771
g49
(g50
g51
NtRp4772
(dp4773
g54
(dp4774
g62
I5
ssg63
g4768
sg56
(lp4775
g916
asbasbasbag49
(g65
g51
NtRp4776
(dp4777
g54
(dp4778
sg63
g3290
sg56
(lp4779
g49
(g70
g51
NtRp4780
(dp4781
g54
(dp4782
g74
g75
ssg63
g4776
sg56
(lp4783
S'session_new'
p4784
asbag49
(g70
g51
NtRp4785
(dp4786
g54
(dp4787
g81
g82
ssg63
g4776
sg56
(lp4788
S':'
asbag49
(g70
g51
NtRp4789
(dp4790
g54
(dp4791
sg63
g4776
sg56
(lp4792
g49
(g50
g51
NtRp4793
(dp4794
g54
(dp4795
g62
I5
ssg63
g4789
sg56
(lp4796
g92
asbasbasbag49
(g65
g51
NtRp4797
(dp4798
g54
(dp4799
sg63
g3290
sg56
(lp4800
g49
(g70
g51
NtRp4801
(dp4802
g54
(dp4803
g74
g75
ssg63
g4797
sg56
(lp4804
S'session_storage_type'
p4805
asbag49
(g70
g51
NtRp4806
(dp4807
g54
(dp4808
g81
g82
ssg63
g4797
sg56
(lp4809
S':'
asbag49
(g70
g51
NtRp4810
(dp4811
g54
(dp4812
sg63
g4797
sg56
(lp4813
g49
(g50
g51
NtRp4814
(dp4815
g54
(dp4816
g62
I5
ssg63
g4810
sg56
(lp4817
g3174
asbasbasbag49
(g65
g51
NtRp4818
(dp4819
g54
(dp4820
sg63
g3290
sg56
(lp4821
g49
(g70
g51
NtRp4822
(dp4823
g54
(dp4824
g74
g75
ssg63
g4818
sg56
(lp4825
S'status'
p4826
asbag49
(g70
g51
NtRp4827
(dp4828
g54
(dp4829
g81
g82
ssg63
g4818
sg56
(lp4830
S':'
asbag49
(g70
g51
NtRp4831
(dp4832
g54
(dp4833
sg63
g4818
sg56
(lp4834
g49
(g50
g51
NtRp4835
(dp4836
g54
(dp4837
g62
I5
ssg63
g4831
sg56
(lp4838
S'200'
p4839
asbasbasbag49
(g65
g51
NtRp4840
(dp4841
g54
(dp4842
sg63
g3290
sg56
(lp4843
g49
(g70
g51
NtRp4844
(dp4845
g54
(dp4846
g74
g75
ssg63
g4840
sg56
(lp4847
S'subtitle'
p4848
asbag49
(g70
g51
NtRp4849
(dp4850
g54
(dp4851
g81
g82
ssg63
g4840
sg56
(lp4852
S':'
asbag49
(g70
g51
NtRp4853
(dp4854
g54
(dp4855
sg63
g4840
sg56
(lp4856
g49
(g50
g51
NtRp4857
(dp4858
g54
(dp4859
g62
I5
ssg63
g4853
sg56
(lp4860
g3804
(S's\r\x00\x00\x00\xe8\xab\x8b\xe8\xaa\xbf\xe6\x95\xb4\xe6\x88\x91!'
tRp4861
asbasbasbag49
(g65
g51
NtRp4862
(dp4863
g54
(dp4864
sg63
g3290
sg56
(lp4865
g49
(g70
g51
NtRp4866
(dp4867
g54
(dp4868
g74
g75
ssg63
g4862
sg56
(lp4869
S'title'
p4870
asbag49
(g70
g51
NtRp4871
(dp4872
g54
(dp4873
g81
g82
ssg63
g4862
sg56
(lp4874
S':'
asbag49
(g70
g51
NtRp4875
(dp4876
g54
(dp4877
sg63
g4862
sg56
(lp4878
g49
(g50
g51
NtRp4879
(dp4880
g54
(dp4881
g62
I5
ssg63
g4875
sg56
(lp4882
S'Mr'
p4883
asbasbasbag49
(g65
g51
NtRp4884
(dp4885
g54
(dp4886
sg63
g3290
sg56
(lp4887
g49
(g70
g51
NtRp4888
(dp4889
g54
(dp4890
g74
g75
ssg63
g4884
sg56
(lp4891
S'view'
p4892
asbag49
(g70
g51
NtRp4893
(dp4894
g54
(dp4895
g81
g82
ssg63
g4884
sg56
(lp4896
S':'
asbag49
(g70
g51
NtRp4897
(dp4898
g54
(dp4899
sg63
g4884
sg56
(lp4900
g49
(g50
g51
NtRp4901
(dp4902
g54
(dp4903
g62
I5
ssg63
g4897
sg56
(lp4904
S'default/mobile_patient_register.html'
p4905
asbasbasbasbasbsS'locals'
p4906
(dp4907
S'text'
p4908
S'None'
p4909
sssS'traceback'
p4910
S'Traceback (most recent call last):\n  File "/home/mdipierro/web2py/gluon/restricted.py", line 212, in restricted\n  File "/Applications/web2py.app/Contents/Resources/applications/MR/controllers/default.py", line 126, in <module>\n  File "/home/mdipierro/web2py/gluon/globals.py", line 193, in <lambda>\n  File "/Applications/web2py.app/Contents/Resources/applications/MR/controllers/default.py", line 64, in mobile_patient_register\n  File "/home/mdipierro/web2py/gluon/utils.py", line 66, in md5_hash\nTypeError: md5() argument 1 must be string or read-only buffer, not None\n'
p4911
s.