(dp1
S'output'
p2
S"<type 'exceptions.TypeError'> list indices must be integers"
p3
sS'layer'
p4
S'/Applications/web2py.app/Contents/Resources/applications/MR/controllers/default.py'
p5
sS'code'
p6
S'# -*- coding: utf-8 -*-\n# this file is released under public domain and you can use without limitations\n\n#########################################################################\n## This is a samples controller\n## - index is the default action of any application\n## - user is required for authentication and authorization\n## - download is for downloading files uploaded in the db (does streaming)\n## - call exposes all registered services (none by default)\n#########################################################################\nimport gluon.utils as TT\n\ndef index():\n    # return dict(message=T(\'Hello World\'))\n    return "index"\n\ndef user():\n    """\n    exposes:\n    http://..../[app]/default/user/login\n    http://..../[app]/default/user/logout\n    http://..../[app]/default/user/register\n    http://..../[app]/default/user/profile\n    http://..../[app]/default/user/retrieve_password\n    http://..../[app]/default/user/change_password\n    use @auth.requires_login()\n        @auth.requires_membership(\'group name\')\n        @auth.requires_permission(\'read\',\'table name\',record_id)\n    to decorate functions that need access control\n    """\n    return dict(form=auth())\n\ndef download():\n    """\n    allows downloading of uploaded files\n    http://..../[app]/default/download/[filename]\n    """\n    return response.download(request, db)\n\n\ndef call():\n    """\n    exposes services. for example:\n    http://..../[app]/default/call/jsonrpc\n    decorate with @services.jsonrpc the functions to expose\n    supports xml, json, xmlrpc, jsonrpc, amfrpc, rss, csv\n    """\n    return service()\n\ndef mobile_user_register():\n    email = request.vars.email\n    password = request.vars.password\n    firstname = request.vars.firstname\n    lastname = request.vars.lastname\n    country = request.vars.country\n    rows = db(db.mobile_user.email==email).select()\n    result = []\n    \n    if len(rows) != 0:\n        result[\'status\'] = "exist"\n        return response.json(result)\n    \n    result = TT.md5_hash(password)\n    ret = db.mobile_user.validate_and_insert(email=email, password=password, first_name=firstname, last_name=lastname, md5=result, country=country)\n    if ret.errors:\n        result[\'status\'] = "ERROR"\n        return response.json(result)        \n    \n    result[\'status\'] = "success"\n    result[\'result\'] = result   \n    return response.json(result)\n    \n#@service.jsonrpc\ndef mobile_user_login(email, password):\n    rows = db(db.mobile_user.email==email).select()\n    if len(rows) != 1:\n        return {\'status\': \'ERROR\'}\n    user = rows[0]\n    return {\'status\':\'success\', \'result\': user.md5}\n\n@auth.requires_signature()\ndef data():\n    """\n    http://..../[app]/default/data/tables\n    http://..../[app]/default/data/create/[table]\n    http://..../[app]/default/data/read/[table]/[id]\n    http://..../[app]/default/data/update/[table]/[id]\n    http://..../[app]/default/data/delete/[table]/[id]\n    http://..../[app]/default/data/select/[table]\n    http://..../[app]/default/data/search/[table]\n    but URLs must be signed, i.e. linked with\n      A(\'table\',_href=URL(\'data/tables\',user_signature=True))\n    or with the signed load operator\n      LOAD(\'default\',\'data.load\',args=\'tables\',ajax=True,user_signature=True)\n    """\n    return dict(form=crud())\n\nresponse._vars=response._caller(mobile_user_register)\n'
p7
sS'snapshot'
p8
(dp9
S'exception'
p10
(dp11
S'__hash__'
p12
S"<method-wrapper '__hash__' of exceptions.TypeError object at 0x771dad0>"
p13
sS'__setattr__'
p14
S"<method-wrapper '__setattr__' of exceptions.TypeError object at 0x771dad0>"
p15
sS'__reduce_ex__'
p16
S'<built-in method __reduce_ex__ of exceptions.TypeError object at 0x771dad0>'
p17
sS'__getslice__'
p18
S"<method-wrapper '__getslice__' of exceptions.TypeError object at 0x771dad0>"
p19
sS'__getitem__'
p20
S"<method-wrapper '__getitem__' of exceptions.TypeError object at 0x771dad0>"
p21
sS'__setstate__'
p22
S'<built-in method __setstate__ of exceptions.TypeError object at 0x771dad0>'
p23
sS'__reduce__'
p24
S'<built-in method __reduce__ of exceptions.TypeError object at 0x771dad0>'
p25
sS'__str__'
p26
S"<method-wrapper '__str__' of exceptions.TypeError object at 0x771dad0>"
p27
sS'args'
p28
S"('list indices must be integers',)"
p29
sS'__getattribute__'
p30
S"<method-wrapper '__getattribute__' of exceptions.TypeError object at 0x771dad0>"
p31
sS'__class__'
p32
S"<type 'exceptions.TypeError'>"
p33
sS'__delattr__'
p34
S"<method-wrapper '__delattr__' of exceptions.TypeError object at 0x771dad0>"
p35
sS'__repr__'
p36
S"<method-wrapper '__repr__' of exceptions.TypeError object at 0x771dad0>"
p37
sS'__dict__'
p38
S'{}'
p39
sS'__doc__'
p40
S"'Inappropriate argument type.'"
p41
sS'__init__'
p42
S"<method-wrapper '__init__' of exceptions.TypeError object at 0x771dad0>"
p43
sS'__new__'
p44
S'<built-in method __new__ of type object at 0x5fa140>'
p45
ssS'evalue'
p46
S'list indices must be integers'
p47
sS'request'
p48
ccopy_reg
_reconstructor
p49
(cgluon.html
BEAUTIFY
p50
c__builtin__
object
p51
NtRp52
(dp53
S'attributes'
p54
(dp55
sS'components'
p56
(lp57
g49
(cgluon.html
TABLE
p58
g51
NtRp59
(dp60
g54
(dp61
S'level'
p62
I5
ssS'parent'
p63
Nsg56
(lp64
g49
(cgluon.html
TR
p65
g51
NtRp66
(dp67
g54
(dp68
sg63
g59
sg56
(lp69
g49
(cgluon.html
TD
p70
g51
NtRp71
(dp72
g54
(dp73
S'_style'
p74
S'font-weight:bold;vertical-align:top'
p75
ssg63
g66
sg56
(lp76
S'ajax'
p77
asbag49
(g70
g51
NtRp78
(dp79
g54
(dp80
S'_valign'
p81
S'top'
p82
ssg63
g66
sg56
(lp83
S':'
asbag49
(g70
g51
NtRp84
(dp85
g54
(dp86
sg63
g66
sg56
(lp87
g49
(g50
g51
NtRp88
(dp89
g54
(dp90
g62
I5
ssg63
g84
sg56
(lp91
S'False'
p92
asbasbasbag49
(g65
g51
NtRp93
(dp94
g54
(dp95
sg63
g59
sg56
(lp96
g49
(g70
g51
NtRp97
(dp98
g54
(dp99
g74
g75
ssg63
g93
sg56
(lp100
S'application'
p101
asbag49
(g70
g51
NtRp102
(dp103
g54
(dp104
g81
g82
ssg63
g93
sg56
(lp105
S':'
asbag49
(g70
g51
NtRp106
(dp107
g54
(dp108
sg63
g93
sg56
(lp109
g49
(g50
g51
NtRp110
(dp111
g54
(dp112
g62
I5
ssg63
g106
sg56
(lp113
S'MR'
p114
asbasbasbag49
(g65
g51
NtRp115
(dp116
g54
(dp117
sg63
g59
sg56
(lp118
g49
(g70
g51
NtRp119
(dp120
g54
(dp121
g74
g75
ssg63
g115
sg56
(lp122
g28
asbag49
(g70
g51
NtRp123
(dp124
g54
(dp125
g81
g82
ssg63
g115
sg56
(lp126
S':'
asbag49
(g70
g51
NtRp127
(dp128
g54
(dp129
sg63
g115
sg56
(lp130
g49
(g50
g51
NtRp131
(dp132
g54
(dp133
g62
I5
ssg63
g127
sg56
(lp134
g49
(g58
g51
NtRp135
(dp136
g54
(dp137
g62
I4
ssg63
Nsg56
(lp138
sbasbasbasbag49
(g65
g51
NtRp139
(dp140
g54
(dp141
sg63
g59
sg56
(lp142
g49
(g70
g51
NtRp143
(dp144
g54
(dp145
g74
g75
ssg63
g139
sg56
(lp146
S'body'
p147
asbag49
(g70
g51
NtRp148
(dp149
g54
(dp150
g81
g82
ssg63
g139
sg56
(lp151
S':'
asbag49
(g70
g51
NtRp152
(dp153
g54
(dp154
sg63
g139
sg56
(lp155
g49
(g50
g51
NtRp156
(dp157
g54
(dp158
g62
I5
ssg63
g152
sg56
(lp159
S'<cStringIO.StringO object at 0x90bd2a0>'
p160
asbasbasbag49
(g65
g51
NtRp161
(dp162
g54
(dp163
sg63
g59
sg56
(lp164
g49
(g70
g51
NtRp165
(dp166
g54
(dp167
g74
g75
ssg63
g161
sg56
(lp168
S'cid'
p169
asbag49
(g70
g51
NtRp170
(dp171
g54
(dp172
g81
g82
ssg63
g161
sg56
(lp173
S':'
asbag49
(g70
g51
NtRp174
(dp175
g54
(dp176
sg63
g161
sg56
(lp177
g49
(g50
g51
NtRp178
(dp179
g54
(dp180
g62
I5
ssg63
g174
sg56
(lp181
S'None'
p182
asbasbasbag49
(g65
g51
NtRp183
(dp184
g54
(dp185
sg63
g59
sg56
(lp186
g49
(g70
g51
NtRp187
(dp188
g54
(dp189
g74
g75
ssg63
g183
sg56
(lp190
S'client'
p191
asbag49
(g70
g51
NtRp192
(dp193
g54
(dp194
g81
g82
ssg63
g183
sg56
(lp195
S':'
asbag49
(g70
g51
NtRp196
(dp197
g54
(dp198
sg63
g183
sg56
(lp199
g49
(g50
g51
NtRp200
(dp201
g54
(dp202
g62
I5
ssg63
g196
sg56
(lp203
S'127.0.0.1'
p204
asbasbasbag49
(g65
g51
NtRp205
(dp206
g54
(dp207
sg63
g59
sg56
(lp208
g49
(g70
g51
NtRp209
(dp210
g54
(dp211
g74
g75
ssg63
g205
sg56
(lp212
S'controller'
p213
asbag49
(g70
g51
NtRp214
(dp215
g54
(dp216
g81
g82
ssg63
g205
sg56
(lp217
S':'
asbag49
(g70
g51
NtRp218
(dp219
g54
(dp220
sg63
g205
sg56
(lp221
g49
(g50
g51
NtRp222
(dp223
g54
(dp224
g62
I5
ssg63
g218
sg56
(lp225
S'default'
p226
asbasbasbag49
(g65
g51
NtRp227
(dp228
g54
(dp229
sg63
g59
sg56
(lp230
g49
(g70
g51
NtRp231
(dp232
g54
(dp233
g74
g75
ssg63
g227
sg56
(lp234
S'cookies'
p235
asbag49
(g70
g51
NtRp236
(dp237
g54
(dp238
g81
g82
ssg63
g227
sg56
(lp239
S':'
asbag49
(g70
g51
NtRp240
(dp241
g54
(dp242
sg63
g227
sg56
(lp243
g49
(g50
g51
NtRp244
(dp245
g54
(dp246
g62
I5
ssg63
g240
sg56
(lp247
g49
(g58
g51
NtRp248
(dp249
g54
(dp250
g62
I4
ssg63
Nsg56
(lp251
g49
(g65
g51
NtRp252
(dp253
g54
(dp254
sg63
g248
sg56
(lp255
g49
(g70
g51
NtRp256
(dp257
g54
(dp258
g74
g75
ssg63
g252
sg56
(lp259
S'session_id_admin'
p260
asbag49
(g70
g51
NtRp261
(dp262
g54
(dp263
g81
g82
ssg63
g252
sg56
(lp264
S':'
asbag49
(g70
g51
NtRp265
(dp266
g54
(dp267
sg63
g252
sg56
(lp268
g49
(g50
g51
NtRp269
(dp270
g54
(dp271
g62
I4
ssg63
g265
sg56
(lp272
S'127.0.0.1-b7ab76a0-45ac-4b6b-8f97-61c071e8ddc3'
p273
ag49
(g58
g51
NtRp274
(dp275
g54
(dp276
g62
I3
ssg63
Nsg56
(lp277
g49
(g65
g51
NtRp278
(dp279
g54
(dp280
sg63
g274
sg56
(lp281
g49
(g70
g51
NtRp282
(dp283
g54
(dp284
g74
g75
ssg63
g278
sg56
(lp285
S'comment'
p286
asbag49
(g70
g51
NtRp287
(dp288
g54
(dp289
g81
g82
ssg63
g278
sg56
(lp290
S':'
asbag49
(g70
g51
NtRp291
(dp292
g54
(dp293
sg63
g278
sg56
(lp294
g49
(g50
g51
NtRp295
(dp296
g54
(dp297
g62
I3
ssg63
g291
sg56
(lp298
S''
asbasbasbag49
(g65
g51
NtRp299
(dp300
g54
(dp301
sg63
g274
sg56
(lp302
g49
(g70
g51
NtRp303
(dp304
g54
(dp305
g74
g75
ssg63
g299
sg56
(lp306
S'domain'
p307
asbag49
(g70
g51
NtRp308
(dp309
g54
(dp310
g81
g82
ssg63
g299
sg56
(lp311
S':'
asbag49
(g70
g51
NtRp312
(dp313
g54
(dp314
sg63
g299
sg56
(lp315
g49
(g50
g51
NtRp316
(dp317
g54
(dp318
g62
I3
ssg63
g312
sg56
(lp319
S''
asbasbasbag49
(g65
g51
NtRp320
(dp321
g54
(dp322
sg63
g274
sg56
(lp323
g49
(g70
g51
NtRp324
(dp325
g54
(dp326
g74
g75
ssg63
g320
sg56
(lp327
S'expires'
p328
asbag49
(g70
g51
NtRp329
(dp330
g54
(dp331
g81
g82
ssg63
g320
sg56
(lp332
S':'
asbag49
(g70
g51
NtRp333
(dp334
g54
(dp335
sg63
g320
sg56
(lp336
g49
(g50
g51
NtRp337
(dp338
g54
(dp339
g62
I3
ssg63
g333
sg56
(lp340
S''
asbasbasbag49
(g65
g51
NtRp341
(dp342
g54
(dp343
sg63
g274
sg56
(lp344
g49
(g70
g51
NtRp345
(dp346
g54
(dp347
g74
g75
ssg63
g341
sg56
(lp348
S'max-age'
p349
asbag49
(g70
g51
NtRp350
(dp351
g54
(dp352
g81
g82
ssg63
g341
sg56
(lp353
S':'
asbag49
(g70
g51
NtRp354
(dp355
g54
(dp356
sg63
g341
sg56
(lp357
g49
(g50
g51
NtRp358
(dp359
g54
(dp360
g62
I3
ssg63
g354
sg56
(lp361
S''
asbasbasbag49
(g65
g51
NtRp362
(dp363
g54
(dp364
sg63
g274
sg56
(lp365
g49
(g70
g51
NtRp366
(dp367
g54
(dp368
g74
g75
ssg63
g362
sg56
(lp369
S'path'
p370
asbag49
(g70
g51
NtRp371
(dp372
g54
(dp373
g81
g82
ssg63
g362
sg56
(lp374
S':'
asbag49
(g70
g51
NtRp375
(dp376
g54
(dp377
sg63
g362
sg56
(lp378
g49
(g50
g51
NtRp379
(dp380
g54
(dp381
g62
I3
ssg63
g375
sg56
(lp382
S''
asbasbasbag49
(g65
g51
NtRp383
(dp384
g54
(dp385
sg63
g274
sg56
(lp386
g49
(g70
g51
NtRp387
(dp388
g54
(dp389
g74
g75
ssg63
g383
sg56
(lp390
S'secure'
p391
asbag49
(g70
g51
NtRp392
(dp393
g54
(dp394
g81
g82
ssg63
g383
sg56
(lp395
S':'
asbag49
(g70
g51
NtRp396
(dp397
g54
(dp398
sg63
g383
sg56
(lp399
g49
(g50
g51
NtRp400
(dp401
g54
(dp402
g62
I3
ssg63
g396
sg56
(lp403
S''
asbasbasbag49
(g65
g51
NtRp404
(dp405
g54
(dp406
sg63
g274
sg56
(lp407
g49
(g70
g51
NtRp408
(dp409
g54
(dp410
g74
g75
ssg63
g404
sg56
(lp411
S'version'
p412
asbag49
(g70
g51
NtRp413
(dp414
g54
(dp415
g81
g82
ssg63
g404
sg56
(lp416
S':'
asbag49
(g70
g51
NtRp417
(dp418
g54
(dp419
sg63
g404
sg56
(lp420
g49
(g50
g51
NtRp421
(dp422
g54
(dp423
g62
I3
ssg63
g417
sg56
(lp424
S''
asbasbasbasbasbasbasbag49
(g65
g51
NtRp425
(dp426
g54
(dp427
sg63
g248
sg56
(lp428
g49
(g70
g51
NtRp429
(dp430
g54
(dp431
g74
g75
ssg63
g425
sg56
(lp432
S'session_id_mr'
p433
asbag49
(g70
g51
NtRp434
(dp435
g54
(dp436
g81
g82
ssg63
g425
sg56
(lp437
S':'
asbag49
(g70
g51
NtRp438
(dp439
g54
(dp440
sg63
g425
sg56
(lp441
g49
(g50
g51
NtRp442
(dp443
g54
(dp444
g62
I4
ssg63
g438
sg56
(lp445
S'127.0.0.1-01c54a64-3e63-47a8-a67b-a7e1fee963a1'
p446
ag49
(g58
g51
NtRp447
(dp448
g54
(dp449
g62
I3
ssg63
Nsg56
(lp450
g49
(g65
g51
NtRp451
(dp452
g54
(dp453
sg63
g447
sg56
(lp454
g49
(g70
g51
NtRp455
(dp456
g54
(dp457
g74
g75
ssg63
g451
sg56
(lp458
g286
asbag49
(g70
g51
NtRp459
(dp460
g54
(dp461
g81
g82
ssg63
g451
sg56
(lp462
S':'
asbag49
(g70
g51
NtRp463
(dp464
g54
(dp465
sg63
g451
sg56
(lp466
g49
(g50
g51
NtRp467
(dp468
g54
(dp469
g62
I3
ssg63
g463
sg56
(lp470
S''
asbasbasbag49
(g65
g51
NtRp471
(dp472
g54
(dp473
sg63
g447
sg56
(lp474
g49
(g70
g51
NtRp475
(dp476
g54
(dp477
g74
g75
ssg63
g471
sg56
(lp478
g307
asbag49
(g70
g51
NtRp479
(dp480
g54
(dp481
g81
g82
ssg63
g471
sg56
(lp482
S':'
asbag49
(g70
g51
NtRp483
(dp484
g54
(dp485
sg63
g471
sg56
(lp486
g49
(g50
g51
NtRp487
(dp488
g54
(dp489
g62
I3
ssg63
g483
sg56
(lp490
S''
asbasbasbag49
(g65
g51
NtRp491
(dp492
g54
(dp493
sg63
g447
sg56
(lp494
g49
(g70
g51
NtRp495
(dp496
g54
(dp497
g74
g75
ssg63
g491
sg56
(lp498
g328
asbag49
(g70
g51
NtRp499
(dp500
g54
(dp501
g81
g82
ssg63
g491
sg56
(lp502
S':'
asbag49
(g70
g51
NtRp503
(dp504
g54
(dp505
sg63
g491
sg56
(lp506
g49
(g50
g51
NtRp507
(dp508
g54
(dp509
g62
I3
ssg63
g503
sg56
(lp510
S''
asbasbasbag49
(g65
g51
NtRp511
(dp512
g54
(dp513
sg63
g447
sg56
(lp514
g49
(g70
g51
NtRp515
(dp516
g54
(dp517
g74
g75
ssg63
g511
sg56
(lp518
g349
asbag49
(g70
g51
NtRp519
(dp520
g54
(dp521
g81
g82
ssg63
g511
sg56
(lp522
S':'
asbag49
(g70
g51
NtRp523
(dp524
g54
(dp525
sg63
g511
sg56
(lp526
g49
(g50
g51
NtRp527
(dp528
g54
(dp529
g62
I3
ssg63
g523
sg56
(lp530
S''
asbasbasbag49
(g65
g51
NtRp531
(dp532
g54
(dp533
sg63
g447
sg56
(lp534
g49
(g70
g51
NtRp535
(dp536
g54
(dp537
g74
g75
ssg63
g531
sg56
(lp538
g370
asbag49
(g70
g51
NtRp539
(dp540
g54
(dp541
g81
g82
ssg63
g531
sg56
(lp542
S':'
asbag49
(g70
g51
NtRp543
(dp544
g54
(dp545
sg63
g531
sg56
(lp546
g49
(g50
g51
NtRp547
(dp548
g54
(dp549
g62
I3
ssg63
g543
sg56
(lp550
S''
asbasbasbag49
(g65
g51
NtRp551
(dp552
g54
(dp553
sg63
g447
sg56
(lp554
g49
(g70
g51
NtRp555
(dp556
g54
(dp557
g74
g75
ssg63
g551
sg56
(lp558
g391
asbag49
(g70
g51
NtRp559
(dp560
g54
(dp561
g81
g82
ssg63
g551
sg56
(lp562
S':'
asbag49
(g70
g51
NtRp563
(dp564
g54
(dp565
sg63
g551
sg56
(lp566
g49
(g50
g51
NtRp567
(dp568
g54
(dp569
g62
I3
ssg63
g563
sg56
(lp570
S''
asbasbasbag49
(g65
g51
NtRp571
(dp572
g54
(dp573
sg63
g447
sg56
(lp574
g49
(g70
g51
NtRp575
(dp576
g54
(dp577
g74
g75
ssg63
g571
sg56
(lp578
g412
asbag49
(g70
g51
NtRp579
(dp580
g54
(dp581
g81
g82
ssg63
g571
sg56
(lp582
S':'
asbag49
(g70
g51
NtRp583
(dp584
g54
(dp585
sg63
g571
sg56
(lp586
g49
(g50
g51
NtRp587
(dp588
g54
(dp589
g62
I3
ssg63
g583
sg56
(lp590
S''
asbasbasbasbasbasbasbag49
(g65
g51
NtRp591
(dp592
g54
(dp593
sg63
g248
sg56
(lp594
g49
(g70
g51
NtRp595
(dp596
g54
(dp597
g74
g75
ssg63
g591
sg56
(lp598
S'session_id_welcome'
p599
asbag49
(g70
g51
NtRp600
(dp601
g54
(dp602
g81
g82
ssg63
g591
sg56
(lp603
S':'
asbag49
(g70
g51
NtRp604
(dp605
g54
(dp606
sg63
g591
sg56
(lp607
g49
(g50
g51
NtRp608
(dp609
g54
(dp610
g62
I4
ssg63
g604
sg56
(lp611
S'127.0.0.1-a778279e-f52c-445d-8f7c-e233402a4664'
p612
ag49
(g58
g51
NtRp613
(dp614
g54
(dp615
g62
I3
ssg63
Nsg56
(lp616
g49
(g65
g51
NtRp617
(dp618
g54
(dp619
sg63
g613
sg56
(lp620
g49
(g70
g51
NtRp621
(dp622
g54
(dp623
g74
g75
ssg63
g617
sg56
(lp624
g286
asbag49
(g70
g51
NtRp625
(dp626
g54
(dp627
g81
g82
ssg63
g617
sg56
(lp628
S':'
asbag49
(g70
g51
NtRp629
(dp630
g54
(dp631
sg63
g617
sg56
(lp632
g49
(g50
g51
NtRp633
(dp634
g54
(dp635
g62
I3
ssg63
g629
sg56
(lp636
S''
asbasbasbag49
(g65
g51
NtRp637
(dp638
g54
(dp639
sg63
g613
sg56
(lp640
g49
(g70
g51
NtRp641
(dp642
g54
(dp643
g74
g75
ssg63
g637
sg56
(lp644
g307
asbag49
(g70
g51
NtRp645
(dp646
g54
(dp647
g81
g82
ssg63
g637
sg56
(lp648
S':'
asbag49
(g70
g51
NtRp649
(dp650
g54
(dp651
sg63
g637
sg56
(lp652
g49
(g50
g51
NtRp653
(dp654
g54
(dp655
g62
I3
ssg63
g649
sg56
(lp656
S''
asbasbasbag49
(g65
g51
NtRp657
(dp658
g54
(dp659
sg63
g613
sg56
(lp660
g49
(g70
g51
NtRp661
(dp662
g54
(dp663
g74
g75
ssg63
g657
sg56
(lp664
g328
asbag49
(g70
g51
NtRp665
(dp666
g54
(dp667
g81
g82
ssg63
g657
sg56
(lp668
S':'
asbag49
(g70
g51
NtRp669
(dp670
g54
(dp671
sg63
g657
sg56
(lp672
g49
(g50
g51
NtRp673
(dp674
g54
(dp675
g62
I3
ssg63
g669
sg56
(lp676
S''
asbasbasbag49
(g65
g51
NtRp677
(dp678
g54
(dp679
sg63
g613
sg56
(lp680
g49
(g70
g51
NtRp681
(dp682
g54
(dp683
g74
g75
ssg63
g677
sg56
(lp684
g349
asbag49
(g70
g51
NtRp685
(dp686
g54
(dp687
g81
g82
ssg63
g677
sg56
(lp688
S':'
asbag49
(g70
g51
NtRp689
(dp690
g54
(dp691
sg63
g677
sg56
(lp692
g49
(g50
g51
NtRp693
(dp694
g54
(dp695
g62
I3
ssg63
g689
sg56
(lp696
S''
asbasbasbag49
(g65
g51
NtRp697
(dp698
g54
(dp699
sg63
g613
sg56
(lp700
g49
(g70
g51
NtRp701
(dp702
g54
(dp703
g74
g75
ssg63
g697
sg56
(lp704
g370
asbag49
(g70
g51
NtRp705
(dp706
g54
(dp707
g81
g82
ssg63
g697
sg56
(lp708
S':'
asbag49
(g70
g51
NtRp709
(dp710
g54
(dp711
sg63
g697
sg56
(lp712
g49
(g50
g51
NtRp713
(dp714
g54
(dp715
g62
I3
ssg63
g709
sg56
(lp716
S''
asbasbasbag49
(g65
g51
NtRp717
(dp718
g54
(dp719
sg63
g613
sg56
(lp720
g49
(g70
g51
NtRp721
(dp722
g54
(dp723
g74
g75
ssg63
g717
sg56
(lp724
g391
asbag49
(g70
g51
NtRp725
(dp726
g54
(dp727
g81
g82
ssg63
g717
sg56
(lp728
S':'
asbag49
(g70
g51
NtRp729
(dp730
g54
(dp731
sg63
g717
sg56
(lp732
g49
(g50
g51
NtRp733
(dp734
g54
(dp735
g62
I3
ssg63
g729
sg56
(lp736
S''
asbasbasbag49
(g65
g51
NtRp737
(dp738
g54
(dp739
sg63
g613
sg56
(lp740
g49
(g70
g51
NtRp741
(dp742
g54
(dp743
g74
g75
ssg63
g737
sg56
(lp744
g412
asbag49
(g70
g51
NtRp745
(dp746
g54
(dp747
g81
g82
ssg63
g737
sg56
(lp748
S':'
asbag49
(g70
g51
NtRp749
(dp750
g54
(dp751
sg63
g737
sg56
(lp752
g49
(g50
g51
NtRp753
(dp754
g54
(dp755
g62
I3
ssg63
g749
sg56
(lp756
S''
asbasbasbasbasbasbasbasbasbasbasbag49
(g65
g51
NtRp757
(dp758
g54
(dp759
sg63
g59
sg56
(lp760
g49
(g70
g51
NtRp761
(dp762
g54
(dp763
g74
g75
ssg63
g757
sg56
(lp764
S'env'
p765
asbag49
(g70
g51
NtRp766
(dp767
g54
(dp768
g81
g82
ssg63
g757
sg56
(lp769
S':'
asbag49
(g70
g51
NtRp770
(dp771
g54
(dp772
sg63
g757
sg56
(lp773
g49
(g50
g51
NtRp774
(dp775
g54
(dp776
g62
I5
ssg63
g770
sg56
(lp777
g49
(g58
g51
NtRp778
(dp779
g54
(dp780
g62
I4
ssg63
Nsg56
(lp781
g49
(g65
g51
NtRp782
(dp783
g54
(dp784
sg63
g778
sg56
(lp785
g49
(g70
g51
NtRp786
(dp787
g54
(dp788
g74
g75
ssg63
g782
sg56
(lp789
S'app_folders'
p790
asbag49
(g70
g51
NtRp791
(dp792
g54
(dp793
g81
g82
ssg63
g782
sg56
(lp794
S':'
asbag49
(g70
g51
NtRp795
(dp796
g54
(dp797
sg63
g782
sg56
(lp798
g49
(g50
g51
NtRp799
(dp800
g54
(dp801
g62
I4
ssg63
g795
sg56
(lp802
S"set(['/Applications/web2py.app/Contents/Resources/applications/admin/', '/Applications/web2py.app/Contents/Resources/applications/welcome/', '/Applications/web2py.app/Contents/Resources/applications/MR/'])"
p803
asbasbasbag49
(g65
g51
NtRp804
(dp805
g54
(dp806
sg63
g778
sg56
(lp807
g49
(g70
g51
NtRp808
(dp809
g54
(dp810
g74
g75
ssg63
g804
sg56
(lp811
S'applications_parent'
p812
asbag49
(g70
g51
NtRp813
(dp814
g54
(dp815
g81
g82
ssg63
g804
sg56
(lp816
S':'
asbag49
(g70
g51
NtRp817
(dp818
g54
(dp819
sg63
g804
sg56
(lp820
g49
(g50
g51
NtRp821
(dp822
g54
(dp823
g62
I4
ssg63
g817
sg56
(lp824
S'/Applications/web2py.app/Contents/Resources'
p825
asbasbasbag49
(g65
g51
NtRp826
(dp827
g54
(dp828
sg63
g778
sg56
(lp829
g49
(g70
g51
NtRp830
(dp831
g54
(dp832
g74
g75
ssg63
g826
sg56
(lp833
S'cmd_args'
p834
asbag49
(g70
g51
NtRp835
(dp836
g54
(dp837
g81
g82
ssg63
g826
sg56
(lp838
S':'
asbag49
(g70
g51
NtRp839
(dp840
g54
(dp841
sg63
g826
sg56
(lp842
g49
(g50
g51
NtRp843
(dp844
g54
(dp845
g62
I4
ssg63
g839
sg56
(lp846
g49
(g58
g51
NtRp847
(dp848
g54
(dp849
g62
I3
ssg63
Nsg56
(lp850
sbasbasbasbag49
(g65
g51
NtRp851
(dp852
g54
(dp853
sg63
g778
sg56
(lp854
g49
(g70
g51
NtRp855
(dp856
g54
(dp857
g74
g75
ssg63
g851
sg56
(lp858
S'cmd_options'
p859
asbag49
(g70
g51
NtRp860
(dp861
g54
(dp862
g81
g82
ssg63
g851
sg56
(lp863
S':'
asbag49
(g70
g51
NtRp864
(dp865
g54
(dp866
sg63
g851
sg56
(lp867
g49
(g50
g51
NtRp868
(dp869
g54
(dp870
g62
I4
ssg63
g864
sg56
(lp871
S"<Values at 0x4596f58: {'verbose': False, 'ip': '127.0.0.1', 'with_scheduler': False, 'ips': ['140.142.222.54'], 'shutdown_timeout': 5, 'taskbar': False, 'port': 8000, 'maxthreads': None, 'softcron': False, 'server_name': 'd-140-142-222-54.dhcp4.washington.edu', 'bpython': False, 'nogui': False, 'pid_filename': 'httpserver.pid', 'extcron': False, 'runcron': False, 'run_system_tests': False, 'test': None, 'folder': '/Applications/web2py.app/Contents/Resources', 'config': '', 'import_models': False, 'winservice': '', 'shell': None, 'run': '', 'log_filename': 'httpserver.log', 'debuglevel': 30, 'args': [''], 'socket_timeout': 5, 'ssl_ca_certificate': None, 'scheduler': None, 'profiler_filename': None, 'ssl_private_key': '', 'scheduler_groups': None, 'password': '<ask>', 'request_queue_size': 5, 'ssl_certificate': '', 'cronjob': False, 'numthreads': None, 'quiet': False, 'interfaces': None, 'minthreads': None, 'timeout': 10, 'plain': False, 'nobanner': False}>"
p872
asbasbasbag49
(g65
g51
NtRp873
(dp874
g54
(dp875
sg63
g778
sg56
(lp876
g49
(g70
g51
NtRp877
(dp878
g54
(dp879
g74
g75
ssg63
g873
sg56
(lp880
S'db_sessions'
p881
asbag49
(g70
g51
NtRp882
(dp883
g54
(dp884
g81
g82
ssg63
g873
sg56
(lp885
S':'
asbag49
(g70
g51
NtRp886
(dp887
g54
(dp888
sg63
g873
sg56
(lp889
g49
(g50
g51
NtRp890
(dp891
g54
(dp892
g62
I4
ssg63
g886
sg56
(lp893
S'set([])'
p894
asbasbasbag49
(g65
g51
NtRp895
(dp896
g54
(dp897
sg63
g778
sg56
(lp898
g49
(g70
g51
NtRp899
(dp900
g54
(dp901
g74
g75
ssg63
g895
sg56
(lp902
S'debugging'
p903
asbag49
(g70
g51
NtRp904
(dp905
g54
(dp906
g81
g82
ssg63
g895
sg56
(lp907
S':'
asbag49
(g70
g51
NtRp908
(dp909
g54
(dp910
sg63
g895
sg56
(lp911
g49
(g50
g51
NtRp912
(dp913
g54
(dp914
g62
I4
ssg63
g908
sg56
(lp915
S'True'
p916
asbasbasbag49
(g65
g51
NtRp917
(dp918
g54
(dp919
sg63
g778
sg56
(lp920
g49
(g70
g51
NtRp921
(dp922
g54
(dp923
g74
g75
ssg63
g917
sg56
(lp924
S'gluon_parent'
p925
asbag49
(g70
g51
NtRp926
(dp927
g54
(dp928
g81
g82
ssg63
g917
sg56
(lp929
S':'
asbag49
(g70
g51
NtRp930
(dp931
g54
(dp932
sg63
g917
sg56
(lp933
g49
(g50
g51
NtRp934
(dp935
g54
(dp936
g62
I4
ssg63
g930
sg56
(lp937
S'/Applications/web2py.app/Contents/Resources'
p938
asbasbasbag49
(g65
g51
NtRp939
(dp940
g54
(dp941
sg63
g778
sg56
(lp942
g49
(g70
g51
NtRp943
(dp944
g54
(dp945
g74
g75
ssg63
g939
sg56
(lp946
S'http_accept'
p947
asbag49
(g70
g51
NtRp948
(dp949
g54
(dp950
g81
g82
ssg63
g939
sg56
(lp951
S':'
asbag49
(g70
g51
NtRp952
(dp953
g54
(dp954
sg63
g939
sg56
(lp955
g49
(g50
g51
NtRp956
(dp957
g54
(dp958
g62
I4
ssg63
g952
sg56
(lp959
S'text/html,application/xhtml+xml,application/xml;q=0.9,*/*;q=0.8'
p960
asbasbasbag49
(g65
g51
NtRp961
(dp962
g54
(dp963
sg63
g778
sg56
(lp964
g49
(g70
g51
NtRp965
(dp966
g54
(dp967
g74
g75
ssg63
g961
sg56
(lp968
S'http_accept_charset'
p969
asbag49
(g70
g51
NtRp970
(dp971
g54
(dp972
g81
g82
ssg63
g961
sg56
(lp973
S':'
asbag49
(g70
g51
NtRp974
(dp975
g54
(dp976
sg63
g961
sg56
(lp977
g49
(g50
g51
NtRp978
(dp979
g54
(dp980
g62
I4
ssg63
g974
sg56
(lp981
S'GBK,utf-8;q=0.7,*;q=0.3'
p982
asbasbasbag49
(g65
g51
NtRp983
(dp984
g54
(dp985
sg63
g778
sg56
(lp986
g49
(g70
g51
NtRp987
(dp988
g54
(dp989
g74
g75
ssg63
g983
sg56
(lp990
S'http_accept_encoding'
p991
asbag49
(g70
g51
NtRp992
(dp993
g54
(dp994
g81
g82
ssg63
g983
sg56
(lp995
S':'
asbag49
(g70
g51
NtRp996
(dp997
g54
(dp998
sg63
g983
sg56
(lp999
g49
(g50
g51
NtRp1000
(dp1001
g54
(dp1002
g62
I4
ssg63
g996
sg56
(lp1003
S'gzip,deflate,sdch'
p1004
asbasbasbag49
(g65
g51
NtRp1005
(dp1006
g54
(dp1007
sg63
g778
sg56
(lp1008
g49
(g70
g51
NtRp1009
(dp1010
g54
(dp1011
g74
g75
ssg63
g1005
sg56
(lp1012
S'http_accept_language'
p1013
asbag49
(g70
g51
NtRp1014
(dp1015
g54
(dp1016
g81
g82
ssg63
g1005
sg56
(lp1017
S':'
asbag49
(g70
g51
NtRp1018
(dp1019
g54
(dp1020
sg63
g1005
sg56
(lp1021
g49
(g50
g51
NtRp1022
(dp1023
g54
(dp1024
g62
I4
ssg63
g1018
sg56
(lp1025
S'zh-CN,zh;q=0.8'
p1026
asbasbasbag49
(g65
g51
NtRp1027
(dp1028
g54
(dp1029
sg63
g778
sg56
(lp1030
g49
(g70
g51
NtRp1031
(dp1032
g54
(dp1033
g74
g75
ssg63
g1027
sg56
(lp1034
S'http_cache_control'
p1035
asbag49
(g70
g51
NtRp1036
(dp1037
g54
(dp1038
g81
g82
ssg63
g1027
sg56
(lp1039
S':'
asbag49
(g70
g51
NtRp1040
(dp1041
g54
(dp1042
sg63
g1027
sg56
(lp1043
g49
(g50
g51
NtRp1044
(dp1045
g54
(dp1046
g62
I4
ssg63
g1040
sg56
(lp1047
S'max-age=0'
p1048
asbasbasbag49
(g65
g51
NtRp1049
(dp1050
g54
(dp1051
sg63
g778
sg56
(lp1052
g49
(g70
g51
NtRp1053
(dp1054
g54
(dp1055
g74
g75
ssg63
g1049
sg56
(lp1056
S'http_connection'
p1057
asbag49
(g70
g51
NtRp1058
(dp1059
g54
(dp1060
g81
g82
ssg63
g1049
sg56
(lp1061
S':'
asbag49
(g70
g51
NtRp1062
(dp1063
g54
(dp1064
sg63
g1049
sg56
(lp1065
g49
(g50
g51
NtRp1066
(dp1067
g54
(dp1068
g62
I4
ssg63
g1062
sg56
(lp1069
S'keep-alive'
p1070
asbasbasbag49
(g65
g51
NtRp1071
(dp1072
g54
(dp1073
sg63
g778
sg56
(lp1074
g49
(g70
g51
NtRp1075
(dp1076
g54
(dp1077
g74
g75
ssg63
g1071
sg56
(lp1078
S'http_cookie'
p1079
asbag49
(g70
g51
NtRp1080
(dp1081
g54
(dp1082
g81
g82
ssg63
g1071
sg56
(lp1083
S':'
asbag49
(g70
g51
NtRp1084
(dp1085
g54
(dp1086
sg63
g1071
sg56
(lp1087
g49
(g50
g51
NtRp1088
(dp1089
g54
(dp1090
g62
I4
ssg63
g1084
sg56
(lp1091
S'session_id_welcome=127.0.0.1-a778279e-f52c-445d-8f7c-e233402a4664; session_id_mr=127.0.0.1-01c54a64-3e63-47a8-a67b-a7e1fee963a1; session_id_admin=127.0.0.1-b7ab76a0-45ac-4b6b-8f97-61c071e8ddc3'
p1092
asbasbasbag49
(g65
g51
NtRp1093
(dp1094
g54
(dp1095
sg63
g778
sg56
(lp1096
g49
(g70
g51
NtRp1097
(dp1098
g54
(dp1099
g74
g75
ssg63
g1093
sg56
(lp1100
S'http_host'
p1101
asbag49
(g70
g51
NtRp1102
(dp1103
g54
(dp1104
g81
g82
ssg63
g1093
sg56
(lp1105
S':'
asbag49
(g70
g51
NtRp1106
(dp1107
g54
(dp1108
sg63
g1093
sg56
(lp1109
g49
(g50
g51
NtRp1110
(dp1111
g54
(dp1112
g62
I4
ssg63
g1106
sg56
(lp1113
S'127.0.0.1:8000'
p1114
asbasbasbag49
(g65
g51
NtRp1115
(dp1116
g54
(dp1117
sg63
g778
sg56
(lp1118
g49
(g70
g51
NtRp1119
(dp1120
g54
(dp1121
g74
g75
ssg63
g1115
sg56
(lp1122
S'http_user_agent'
p1123
asbag49
(g70
g51
NtRp1124
(dp1125
g54
(dp1126
g81
g82
ssg63
g1115
sg56
(lp1127
S':'
asbag49
(g70
g51
NtRp1128
(dp1129
g54
(dp1130
sg63
g1115
sg56
(lp1131
g49
(g50
g51
NtRp1132
(dp1133
g54
(dp1134
g62
I4
ssg63
g1128
sg56
(lp1135
S'Mozilla/5.0 (Macintosh; Intel Mac OS X 10_8_3) AppleWebKit/537.31 (KHTML, like Gecko) Chrome/26.0.1410.65 Safari/537.31'
p1136
asbasbasbag49
(g65
g51
NtRp1137
(dp1138
g54
(dp1139
sg63
g778
sg56
(lp1140
g49
(g70
g51
NtRp1141
(dp1142
g54
(dp1143
g74
g75
ssg63
g1137
sg56
(lp1144
S'is_jython'
p1145
asbag49
(g70
g51
NtRp1146
(dp1147
g54
(dp1148
g81
g82
ssg63
g1137
sg56
(lp1149
S':'
asbag49
(g70
g51
NtRp1150
(dp1151
g54
(dp1152
sg63
g1137
sg56
(lp1153
g49
(g50
g51
NtRp1154
(dp1155
g54
(dp1156
g62
I4
ssg63
g1150
sg56
(lp1157
g92
asbasbasbag49
(g65
g51
NtRp1158
(dp1159
g54
(dp1160
sg63
g778
sg56
(lp1161
g49
(g70
g51
NtRp1162
(dp1163
g54
(dp1164
g74
g75
ssg63
g1158
sg56
(lp1165
S'is_pypy'
p1166
asbag49
(g70
g51
NtRp1167
(dp1168
g54
(dp1169
g81
g82
ssg63
g1158
sg56
(lp1170
S':'
asbag49
(g70
g51
NtRp1171
(dp1172
g54
(dp1173
sg63
g1158
sg56
(lp1174
g49
(g50
g51
NtRp1175
(dp1176
g54
(dp1177
g62
I4
ssg63
g1171
sg56
(lp1178
g92
asbasbasbag49
(g65
g51
NtRp1179
(dp1180
g54
(dp1181
sg63
g778
sg56
(lp1182
g49
(g70
g51
NtRp1183
(dp1184
g54
(dp1185
g74
g75
ssg63
g1179
sg56
(lp1186
S'local_hosts'
p1187
asbag49
(g70
g51
NtRp1188
(dp1189
g54
(dp1190
g81
g82
ssg63
g1179
sg56
(lp1191
S':'
asbag49
(g70
g51
NtRp1192
(dp1193
g54
(dp1194
sg63
g1179
sg56
(lp1195
g49
(g50
g51
NtRp1196
(dp1197
g54
(dp1198
g62
I4
ssg63
g1192
sg56
(lp1199
g49
(g58
g51
NtRp1200
(dp1201
g54
(dp1202
g62
I3
ssg63
Nsg56
(lp1203
g49
(g65
g51
NtRp1204
(dp1205
g54
(dp1206
sg63
g1200
sg56
(lp1207
g49
(g70
g51
NtRp1208
(dp1209
g54
(dp1210
sg63
g1204
sg56
(lp1211
g49
(g50
g51
NtRp1212
(dp1213
g54
(dp1214
g62
I3
ssg63
g1208
sg56
(lp1215
S'::1'
p1216
asbasbasbag49
(g65
g51
NtRp1217
(dp1218
g54
(dp1219
sg63
g1200
sg56
(lp1220
g49
(g70
g51
NtRp1221
(dp1222
g54
(dp1223
sg63
g1217
sg56
(lp1224
g49
(g50
g51
NtRp1225
(dp1226
g54
(dp1227
g62
I3
ssg63
g1221
sg56
(lp1228
S'140.142.222.54'
p1229
asbasbasbag49
(g65
g51
NtRp1230
(dp1231
g54
(dp1232
sg63
g1200
sg56
(lp1233
g49
(g70
g51
NtRp1234
(dp1235
g54
(dp1236
sg63
g1230
sg56
(lp1237
g49
(g50
g51
NtRp1238
(dp1239
g54
(dp1240
g62
I3
ssg63
g1234
sg56
(lp1241
S'::ffff:127.0.0.1'
p1242
asbasbasbag49
(g65
g51
NtRp1243
(dp1244
g54
(dp1245
sg63
g1200
sg56
(lp1246
g49
(g70
g51
NtRp1247
(dp1248
g54
(dp1249
sg63
g1243
sg56
(lp1250
g49
(g50
g51
NtRp1251
(dp1252
g54
(dp1253
g62
I3
ssg63
g1247
sg56
(lp1254
S'127.0.0.1'
p1255
asbasbasbag49
(g65
g51
NtRp1256
(dp1257
g54
(dp1258
sg63
g1200
sg56
(lp1259
g49
(g70
g51
NtRp1260
(dp1261
g54
(dp1262
sg63
g1256
sg56
(lp1263
g49
(g50
g51
NtRp1264
(dp1265
g54
(dp1266
g62
I3
ssg63
g1260
sg56
(lp1267
S'd-140-142-222-54.dhcp4.washington.edu'
p1268
asbasbasbasbasbasbasbag49
(g65
g51
NtRp1269
(dp1270
g54
(dp1271
sg63
g778
sg56
(lp1272
g49
(g70
g51
NtRp1273
(dp1274
g54
(dp1275
g74
g75
ssg63
g1269
sg56
(lp1276
S'path_info'
p1277
asbag49
(g70
g51
NtRp1278
(dp1279
g54
(dp1280
g81
g82
ssg63
g1269
sg56
(lp1281
S':'
asbag49
(g70
g51
NtRp1282
(dp1283
g54
(dp1284
sg63
g1269
sg56
(lp1285
g49
(g50
g51
NtRp1286
(dp1287
g54
(dp1288
g62
I4
ssg63
g1282
sg56
(lp1289
S'/MR/default/mobile_user_register'
p1290
asbasbasbag49
(g65
g51
NtRp1291
(dp1292
g54
(dp1293
sg63
g778
sg56
(lp1294
g49
(g70
g51
NtRp1295
(dp1296
g54
(dp1297
g74
g75
ssg63
g1291
sg56
(lp1298
S'query_string'
p1299
asbag49
(g70
g51
NtRp1300
(dp1301
g54
(dp1302
g81
g82
ssg63
g1291
sg56
(lp1303
S':'
asbag49
(g70
g51
NtRp1304
(dp1305
g54
(dp1306
sg63
g1291
sg56
(lp1307
g49
(g50
g51
NtRp1308
(dp1309
g54
(dp1310
g62
I4
ssg63
g1304
sg56
(lp1311
S'email=adsf&password=adsf&firstname=asdf&lastname=asdf&country='
p1312
asbasbasbag49
(g65
g51
NtRp1313
(dp1314
g54
(dp1315
sg63
g778
sg56
(lp1316
g49
(g70
g51
NtRp1317
(dp1318
g54
(dp1319
g74
g75
ssg63
g1313
sg56
(lp1320
S'remote_addr'
p1321
asbag49
(g70
g51
NtRp1322
(dp1323
g54
(dp1324
g81
g82
ssg63
g1313
sg56
(lp1325
S':'
asbag49
(g70
g51
NtRp1326
(dp1327
g54
(dp1328
sg63
g1313
sg56
(lp1329
g49
(g50
g51
NtRp1330
(dp1331
g54
(dp1332
g62
I4
ssg63
g1326
sg56
(lp1333
g204
asbasbasbag49
(g65
g51
NtRp1334
(dp1335
g54
(dp1336
sg63
g778
sg56
(lp1337
g49
(g70
g51
NtRp1338
(dp1339
g54
(dp1340
g74
g75
ssg63
g1334
sg56
(lp1341
S'remote_port'
p1342
asbag49
(g70
g51
NtRp1343
(dp1344
g54
(dp1345
g81
g82
ssg63
g1334
sg56
(lp1346
S':'
asbag49
(g70
g51
NtRp1347
(dp1348
g54
(dp1349
sg63
g1334
sg56
(lp1350
g49
(g50
g51
NtRp1351
(dp1352
g54
(dp1353
g62
I4
ssg63
g1347
sg56
(lp1354
S'51427'
p1355
asbasbasbag49
(g65
g51
NtRp1356
(dp1357
g54
(dp1358
sg63
g778
sg56
(lp1359
g49
(g70
g51
NtRp1360
(dp1361
g54
(dp1362
g74
g75
ssg63
g1356
sg56
(lp1363
S'request_method'
p1364
asbag49
(g70
g51
NtRp1365
(dp1366
g54
(dp1367
g81
g82
ssg63
g1356
sg56
(lp1368
S':'
asbag49
(g70
g51
NtRp1369
(dp1370
g54
(dp1371
sg63
g1356
sg56
(lp1372
g49
(g50
g51
NtRp1373
(dp1374
g54
(dp1375
g62
I4
ssg63
g1369
sg56
(lp1376
S'GET'
p1377
asbasbasbag49
(g65
g51
NtRp1378
(dp1379
g54
(dp1380
sg63
g778
sg56
(lp1381
g49
(g70
g51
NtRp1382
(dp1383
g54
(dp1384
g74
g75
ssg63
g1378
sg56
(lp1385
S'request_uri'
p1386
asbag49
(g70
g51
NtRp1387
(dp1388
g54
(dp1389
g81
g82
ssg63
g1378
sg56
(lp1390
S':'
asbag49
(g70
g51
NtRp1391
(dp1392
g54
(dp1393
sg63
g1378
sg56
(lp1394
g49
(g50
g51
NtRp1395
(dp1396
g54
(dp1397
g62
I4
ssg63
g1391
sg56
(lp1398
S'/MR/default/mobile_user_register?email=adsf&password=adsf&firstname=asdf&lastname=asdf&country='
p1399
asbasbasbag49
(g65
g51
NtRp1400
(dp1401
g54
(dp1402
sg63
g778
sg56
(lp1403
g49
(g70
g51
NtRp1404
(dp1405
g54
(dp1406
g74
g75
ssg63
g1400
sg56
(lp1407
S'script_name'
p1408
asbag49
(g70
g51
NtRp1409
(dp1410
g54
(dp1411
g81
g82
ssg63
g1400
sg56
(lp1412
S':'
asbag49
(g70
g51
NtRp1413
(dp1414
g54
(dp1415
sg63
g1400
sg56
(lp1416
g49
(g50
g51
NtRp1417
(dp1418
g54
(dp1419
g62
I4
ssg63
g1413
sg56
(lp1420
S''
asbasbasbag49
(g65
g51
NtRp1421
(dp1422
g54
(dp1423
sg63
g778
sg56
(lp1424
g49
(g70
g51
NtRp1425
(dp1426
g54
(dp1427
g74
g75
ssg63
g1421
sg56
(lp1428
S'server_name'
p1429
asbag49
(g70
g51
NtRp1430
(dp1431
g54
(dp1432
g81
g82
ssg63
g1421
sg56
(lp1433
S':'
asbag49
(g70
g51
NtRp1434
(dp1435
g54
(dp1436
sg63
g1421
sg56
(lp1437
g49
(g50
g51
NtRp1438
(dp1439
g54
(dp1440
g62
I4
ssg63
g1434
sg56
(lp1441
S'd-140-142-222-54.dhcp4.washington.edu'
p1442
asbasbasbag49
(g65
g51
NtRp1443
(dp1444
g54
(dp1445
sg63
g778
sg56
(lp1446
g49
(g70
g51
NtRp1447
(dp1448
g54
(dp1449
g74
g75
ssg63
g1443
sg56
(lp1450
S'server_port'
p1451
asbag49
(g70
g51
NtRp1452
(dp1453
g54
(dp1454
g81
g82
ssg63
g1443
sg56
(lp1455
S':'
asbag49
(g70
g51
NtRp1456
(dp1457
g54
(dp1458
sg63
g1443
sg56
(lp1459
g49
(g50
g51
NtRp1460
(dp1461
g54
(dp1462
g62
I4
ssg63
g1456
sg56
(lp1463
S'8000'
p1464
asbasbasbag49
(g65
g51
NtRp1465
(dp1466
g54
(dp1467
sg63
g778
sg56
(lp1468
g49
(g70
g51
NtRp1469
(dp1470
g54
(dp1471
g74
g75
ssg63
g1465
sg56
(lp1472
S'server_protocol'
p1473
asbag49
(g70
g51
NtRp1474
(dp1475
g54
(dp1476
g81
g82
ssg63
g1465
sg56
(lp1477
S':'
asbag49
(g70
g51
NtRp1478
(dp1479
g54
(dp1480
sg63
g1465
sg56
(lp1481
g49
(g50
g51
NtRp1482
(dp1483
g54
(dp1484
g62
I4
ssg63
g1478
sg56
(lp1485
S'HTTP/1.1'
p1486
asbasbasbag49
(g65
g51
NtRp1487
(dp1488
g54
(dp1489
sg63
g778
sg56
(lp1490
g49
(g70
g51
NtRp1491
(dp1492
g54
(dp1493
g74
g75
ssg63
g1487
sg56
(lp1494
S'server_software'
p1495
asbag49
(g70
g51
NtRp1496
(dp1497
g54
(dp1498
g81
g82
ssg63
g1487
sg56
(lp1499
S':'
asbag49
(g70
g51
NtRp1500
(dp1501
g54
(dp1502
sg63
g1487
sg56
(lp1503
g49
(g50
g51
NtRp1504
(dp1505
g54
(dp1506
g62
I4
ssg63
g1500
sg56
(lp1507
S'Rocket 1.2.6'
p1508
asbasbasbag49
(g65
g51
NtRp1509
(dp1510
g54
(dp1511
sg63
g778
sg56
(lp1512
g49
(g70
g51
NtRp1513
(dp1514
g54
(dp1515
g74
g75
ssg63
g1509
sg56
(lp1516
S'web2py_path'
p1517
asbag49
(g70
g51
NtRp1518
(dp1519
g54
(dp1520
g81
g82
ssg63
g1509
sg56
(lp1521
S':'
asbag49
(g70
g51
NtRp1522
(dp1523
g54
(dp1524
sg63
g1509
sg56
(lp1525
g49
(g50
g51
NtRp1526
(dp1527
g54
(dp1528
g62
I4
ssg63
g1522
sg56
(lp1529
g825
asbasbasbag49
(g65
g51
NtRp1530
(dp1531
g54
(dp1532
sg63
g778
sg56
(lp1533
g49
(g70
g51
NtRp1534
(dp1535
g54
(dp1536
g74
g75
ssg63
g1530
sg56
(lp1537
S'web2py_version'
p1538
asbag49
(g70
g51
NtRp1539
(dp1540
g54
(dp1541
g81
g82
ssg63
g1530
sg56
(lp1542
S':'
asbag49
(g70
g51
NtRp1543
(dp1544
g54
(dp1545
sg63
g1530
sg56
(lp1546
g49
(g50
g51
NtRp1547
(dp1548
g54
(dp1549
g62
I4
ssg63
g1543
sg56
(lp1550
g49
(g58
g51
NtRp1551
(dp1552
g54
(dp1553
g62
I3
ssg63
Nsg56
(lp1554
g49
(g65
g51
NtRp1555
(dp1556
g54
(dp1557
sg63
g1551
sg56
(lp1558
g49
(g70
g51
NtRp1559
(dp1560
g54
(dp1561
sg63
g1555
sg56
(lp1562
g49
(g50
g51
NtRp1563
(dp1564
g54
(dp1565
g62
I3
ssg63
g1559
sg56
(lp1566
S'2'
asbasbasbag49
(g65
g51
NtRp1567
(dp1568
g54
(dp1569
sg63
g1551
sg56
(lp1570
g49
(g70
g51
NtRp1571
(dp1572
g54
(dp1573
sg63
g1567
sg56
(lp1574
g49
(g50
g51
NtRp1575
(dp1576
g54
(dp1577
g62
I3
ssg63
g1571
sg56
(lp1578
S'4'
asbasbasbag49
(g65
g51
NtRp1579
(dp1580
g54
(dp1581
sg63
g1551
sg56
(lp1582
g49
(g70
g51
NtRp1583
(dp1584
g54
(dp1585
sg63
g1579
sg56
(lp1586
g49
(g50
g51
NtRp1587
(dp1588
g54
(dp1589
g62
I3
ssg63
g1583
sg56
(lp1590
S'5'
asbasbasbag49
(g65
g51
NtRp1591
(dp1592
g54
(dp1593
sg63
g1551
sg56
(lp1594
g49
(g70
g51
NtRp1595
(dp1596
g54
(dp1597
sg63
g1591
sg56
(lp1598
g49
(g50
g51
NtRp1599
(dp1600
g54
(dp1601
g62
I3
ssg63
g1595
sg56
(lp1602
S'stable'
p1603
asbasbasbag49
(g65
g51
NtRp1604
(dp1605
g54
(dp1606
sg63
g1551
sg56
(lp1607
g49
(g70
g51
NtRp1608
(dp1609
g54
(dp1610
sg63
g1604
sg56
(lp1611
g49
(g50
g51
NtRp1612
(dp1613
g54
(dp1614
g62
I3
ssg63
g1608
sg56
(lp1615
S'datetime.datetime(2013, 3, 18, 22, 46, 22)'
p1616
asbasbasbasbasbasbasbag49
(g65
g51
NtRp1617
(dp1618
g54
(dp1619
sg63
g778
sg56
(lp1620
g49
(g70
g51
NtRp1621
(dp1622
g54
(dp1623
g74
g75
ssg63
g1617
sg56
(lp1624
S'wsgi_errors'
p1625
asbag49
(g70
g51
NtRp1626
(dp1627
g54
(dp1628
g81
g82
ssg63
g1617
sg56
(lp1629
S':'
asbag49
(g70
g51
NtRp1630
(dp1631
g54
(dp1632
sg63
g1617
sg56
(lp1633
g49
(g50
g51
NtRp1634
(dp1635
g54
(dp1636
g62
I4
ssg63
g1630
sg56
(lp1637
S"<open file '<stderr>', mode 'w' at 0x660b0>"
p1638
asbasbasbag49
(g65
g51
NtRp1639
(dp1640
g54
(dp1641
sg63
g778
sg56
(lp1642
g49
(g70
g51
NtRp1643
(dp1644
g54
(dp1645
g74
g75
ssg63
g1639
sg56
(lp1646
S'wsgi_file_wrapper'
p1647
asbag49
(g70
g51
NtRp1648
(dp1649
g54
(dp1650
g81
g82
ssg63
g1639
sg56
(lp1651
S':'
asbag49
(g70
g51
NtRp1652
(dp1653
g54
(dp1654
sg63
g1639
sg56
(lp1655
g49
(g50
g51
NtRp1656
(dp1657
g54
(dp1658
g62
I4
ssg63
g1652
sg56
(lp1659
S'<class wsgiref.util.FileWrapper at 0x456f060>'
p1660
asbasbasbag49
(g65
g51
NtRp1661
(dp1662
g54
(dp1663
sg63
g778
sg56
(lp1664
g49
(g70
g51
NtRp1665
(dp1666
g54
(dp1667
g74
g75
ssg63
g1661
sg56
(lp1668
S'wsgi_input'
p1669
asbag49
(g70
g51
NtRp1670
(dp1671
g54
(dp1672
g81
g82
ssg63
g1661
sg56
(lp1673
S':'
asbag49
(g70
g51
NtRp1674
(dp1675
g54
(dp1676
sg63
g1661
sg56
(lp1677
g49
(g50
g51
NtRp1678
(dp1679
g54
(dp1680
g62
I4
ssg63
g1674
sg56
(lp1681
S'<socket._fileobject object at 0x8c656f0>'
p1682
asbasbasbag49
(g65
g51
NtRp1683
(dp1684
g54
(dp1685
sg63
g778
sg56
(lp1686
g49
(g70
g51
NtRp1687
(dp1688
g54
(dp1689
g74
g75
ssg63
g1683
sg56
(lp1690
S'wsgi_multiprocess'
p1691
asbag49
(g70
g51
NtRp1692
(dp1693
g54
(dp1694
g81
g82
ssg63
g1683
sg56
(lp1695
S':'
asbag49
(g70
g51
NtRp1696
(dp1697
g54
(dp1698
sg63
g1683
sg56
(lp1699
g49
(g50
g51
NtRp1700
(dp1701
g54
(dp1702
g62
I4
ssg63
g1696
sg56
(lp1703
g92
asbasbasbag49
(g65
g51
NtRp1704
(dp1705
g54
(dp1706
sg63
g778
sg56
(lp1707
g49
(g70
g51
NtRp1708
(dp1709
g54
(dp1710
g74
g75
ssg63
g1704
sg56
(lp1711
S'wsgi_multithread'
p1712
asbag49
(g70
g51
NtRp1713
(dp1714
g54
(dp1715
g81
g82
ssg63
g1704
sg56
(lp1716
S':'
asbag49
(g70
g51
NtRp1717
(dp1718
g54
(dp1719
sg63
g1704
sg56
(lp1720
g49
(g50
g51
NtRp1721
(dp1722
g54
(dp1723
g62
I4
ssg63
g1717
sg56
(lp1724
g916
asbasbasbag49
(g65
g51
NtRp1725
(dp1726
g54
(dp1727
sg63
g778
sg56
(lp1728
g49
(g70
g51
NtRp1729
(dp1730
g54
(dp1731
g74
g75
ssg63
g1725
sg56
(lp1732
S'wsgi_run_once'
p1733
asbag49
(g70
g51
NtRp1734
(dp1735
g54
(dp1736
g81
g82
ssg63
g1725
sg56
(lp1737
S':'
asbag49
(g70
g51
NtRp1738
(dp1739
g54
(dp1740
sg63
g1725
sg56
(lp1741
g49
(g50
g51
NtRp1742
(dp1743
g54
(dp1744
g62
I4
ssg63
g1738
sg56
(lp1745
g92
asbasbasbag49
(g65
g51
NtRp1746
(dp1747
g54
(dp1748
sg63
g778
sg56
(lp1749
g49
(g70
g51
NtRp1750
(dp1751
g54
(dp1752
g74
g75
ssg63
g1746
sg56
(lp1753
S'wsgi_url_scheme'
p1754
asbag49
(g70
g51
NtRp1755
(dp1756
g54
(dp1757
g81
g82
ssg63
g1746
sg56
(lp1758
S':'
asbag49
(g70
g51
NtRp1759
(dp1760
g54
(dp1761
sg63
g1746
sg56
(lp1762
g49
(g50
g51
NtRp1763
(dp1764
g54
(dp1765
g62
I4
ssg63
g1759
sg56
(lp1766
S'http'
p1767
asbasbasbag49
(g65
g51
NtRp1768
(dp1769
g54
(dp1770
sg63
g778
sg56
(lp1771
g49
(g70
g51
NtRp1772
(dp1773
g54
(dp1774
g74
g75
ssg63
g1768
sg56
(lp1775
S'wsgi_version'
p1776
asbag49
(g70
g51
NtRp1777
(dp1778
g54
(dp1779
g81
g82
ssg63
g1768
sg56
(lp1780
S':'
asbag49
(g70
g51
NtRp1781
(dp1782
g54
(dp1783
sg63
g1768
sg56
(lp1784
g49
(g50
g51
NtRp1785
(dp1786
g54
(dp1787
g62
I4
ssg63
g1781
sg56
(lp1788
g49
(g58
g51
NtRp1789
(dp1790
g54
(dp1791
g62
I3
ssg63
Nsg56
(lp1792
g49
(g65
g51
NtRp1793
(dp1794
g54
(dp1795
sg63
g1789
sg56
(lp1796
g49
(g70
g51
NtRp1797
(dp1798
g54
(dp1799
sg63
g1793
sg56
(lp1800
g49
(g50
g51
NtRp1801
(dp1802
g54
(dp1803
g62
I3
ssg63
g1797
sg56
(lp1804
S'1'
asbasbasbag49
(g65
g51
NtRp1805
(dp1806
g54
(dp1807
sg63
g1789
sg56
(lp1808
g49
(g70
g51
NtRp1809
(dp1810
g54
(dp1811
sg63
g1805
sg56
(lp1812
g49
(g50
g51
NtRp1813
(dp1814
g54
(dp1815
g62
I3
ssg63
g1809
sg56
(lp1816
S'0'
asbasbasbasbasbasbasbasbasbasbasbag49
(g65
g51
NtRp1817
(dp1818
g54
(dp1819
sg63
g59
sg56
(lp1820
g49
(g70
g51
NtRp1821
(dp1822
g54
(dp1823
g74
g75
ssg63
g1817
sg56
(lp1824
S'extension'
p1825
asbag49
(g70
g51
NtRp1826
(dp1827
g54
(dp1828
g81
g82
ssg63
g1817
sg56
(lp1829
S':'
asbag49
(g70
g51
NtRp1830
(dp1831
g54
(dp1832
sg63
g1817
sg56
(lp1833
g49
(g50
g51
NtRp1834
(dp1835
g54
(dp1836
g62
I5
ssg63
g1830
sg56
(lp1837
S'html'
p1838
asbasbasbag49
(g65
g51
NtRp1839
(dp1840
g54
(dp1841
sg63
g59
sg56
(lp1842
g49
(g70
g51
NtRp1843
(dp1844
g54
(dp1845
g74
g75
ssg63
g1839
sg56
(lp1846
S'folder'
p1847
asbag49
(g70
g51
NtRp1848
(dp1849
g54
(dp1850
g81
g82
ssg63
g1839
sg56
(lp1851
S':'
asbag49
(g70
g51
NtRp1852
(dp1853
g54
(dp1854
sg63
g1839
sg56
(lp1855
g49
(g50
g51
NtRp1856
(dp1857
g54
(dp1858
g62
I5
ssg63
g1852
sg56
(lp1859
S'/Applications/web2py.app/Contents/Resources/applications/MR/'
p1860
asbasbasbag49
(g65
g51
NtRp1861
(dp1862
g54
(dp1863
sg63
g59
sg56
(lp1864
g49
(g70
g51
NtRp1865
(dp1866
g54
(dp1867
g74
g75
ssg63
g1861
sg56
(lp1868
S'function'
p1869
asbag49
(g70
g51
NtRp1870
(dp1871
g54
(dp1872
g81
g82
ssg63
g1861
sg56
(lp1873
S':'
asbag49
(g70
g51
NtRp1874
(dp1875
g54
(dp1876
sg63
g1861
sg56
(lp1877
g49
(g50
g51
NtRp1878
(dp1879
g54
(dp1880
g62
I5
ssg63
g1874
sg56
(lp1881
S'mobile_user_register'
p1882
asbasbasbag49
(g65
g51
NtRp1883
(dp1884
g54
(dp1885
sg63
g59
sg56
(lp1886
g49
(g70
g51
NtRp1887
(dp1888
g54
(dp1889
g74
g75
ssg63
g1883
sg56
(lp1890
S'get_vars'
p1891
asbag49
(g70
g51
NtRp1892
(dp1893
g54
(dp1894
g81
g82
ssg63
g1883
sg56
(lp1895
S':'
asbag49
(g70
g51
NtRp1896
(dp1897
g54
(dp1898
sg63
g1883
sg56
(lp1899
g49
(g50
g51
NtRp1900
(dp1901
g54
(dp1902
g62
I5
ssg63
g1896
sg56
(lp1903
g49
(g58
g51
NtRp1904
(dp1905
g54
(dp1906
g62
I4
ssg63
Nsg56
(lp1907
g49
(g65
g51
NtRp1908
(dp1909
g54
(dp1910
sg63
g1904
sg56
(lp1911
g49
(g70
g51
NtRp1912
(dp1913
g54
(dp1914
g74
g75
ssg63
g1908
sg56
(lp1915
S'country'
p1916
asbag49
(g70
g51
NtRp1917
(dp1918
g54
(dp1919
g81
g82
ssg63
g1908
sg56
(lp1920
S':'
asbag49
(g70
g51
NtRp1921
(dp1922
g54
(dp1923
sg63
g1908
sg56
(lp1924
g49
(g50
g51
NtRp1925
(dp1926
g54
(dp1927
g62
I4
ssg63
g1921
sg56
(lp1928
S''
asbasbasbag49
(g65
g51
NtRp1929
(dp1930
g54
(dp1931
sg63
g1904
sg56
(lp1932
g49
(g70
g51
NtRp1933
(dp1934
g54
(dp1935
g74
g75
ssg63
g1929
sg56
(lp1936
S'email'
p1937
asbag49
(g70
g51
NtRp1938
(dp1939
g54
(dp1940
g81
g82
ssg63
g1929
sg56
(lp1941
S':'
asbag49
(g70
g51
NtRp1942
(dp1943
g54
(dp1944
sg63
g1929
sg56
(lp1945
g49
(g50
g51
NtRp1946
(dp1947
g54
(dp1948
g62
I4
ssg63
g1942
sg56
(lp1949
S'adsf'
p1950
asbasbasbag49
(g65
g51
NtRp1951
(dp1952
g54
(dp1953
sg63
g1904
sg56
(lp1954
g49
(g70
g51
NtRp1955
(dp1956
g54
(dp1957
g74
g75
ssg63
g1951
sg56
(lp1958
S'firstname'
p1959
asbag49
(g70
g51
NtRp1960
(dp1961
g54
(dp1962
g81
g82
ssg63
g1951
sg56
(lp1963
S':'
asbag49
(g70
g51
NtRp1964
(dp1965
g54
(dp1966
sg63
g1951
sg56
(lp1967
g49
(g50
g51
NtRp1968
(dp1969
g54
(dp1970
g62
I4
ssg63
g1964
sg56
(lp1971
S'asdf'
p1972
asbasbasbag49
(g65
g51
NtRp1973
(dp1974
g54
(dp1975
sg63
g1904
sg56
(lp1976
g49
(g70
g51
NtRp1977
(dp1978
g54
(dp1979
g74
g75
ssg63
g1973
sg56
(lp1980
S'lastname'
p1981
asbag49
(g70
g51
NtRp1982
(dp1983
g54
(dp1984
g81
g82
ssg63
g1973
sg56
(lp1985
S':'
asbag49
(g70
g51
NtRp1986
(dp1987
g54
(dp1988
sg63
g1973
sg56
(lp1989
g49
(g50
g51
NtRp1990
(dp1991
g54
(dp1992
g62
I4
ssg63
g1986
sg56
(lp1993
S'asdf'
p1994
asbasbasbag49
(g65
g51
NtRp1995
(dp1996
g54
(dp1997
sg63
g1904
sg56
(lp1998
g49
(g70
g51
NtRp1999
(dp2000
g54
(dp2001
g74
g75
ssg63
g1995
sg56
(lp2002
S'password'
p2003
asbag49
(g70
g51
NtRp2004
(dp2005
g54
(dp2006
g81
g82
ssg63
g1995
sg56
(lp2007
S':'
asbag49
(g70
g51
NtRp2008
(dp2009
g54
(dp2010
sg63
g1995
sg56
(lp2011
g49
(g50
g51
NtRp2012
(dp2013
g54
(dp2014
g62
I4
ssg63
g2008
sg56
(lp2015
S'adsf'
p2016
asbasbasbasbasbasbasbag49
(g65
g51
NtRp2017
(dp2018
g54
(dp2019
sg63
g59
sg56
(lp2020
g49
(g70
g51
NtRp2021
(dp2022
g54
(dp2023
g74
g75
ssg63
g2017
sg56
(lp2024
S'global_settings'
p2025
asbag49
(g70
g51
NtRp2026
(dp2027
g54
(dp2028
g81
g82
ssg63
g2017
sg56
(lp2029
S':'
asbag49
(g70
g51
NtRp2030
(dp2031
g54
(dp2032
sg63
g2017
sg56
(lp2033
g49
(g50
g51
NtRp2034
(dp2035
g54
(dp2036
g62
I5
ssg63
g2030
sg56
(lp2037
g49
(g58
g51
NtRp2038
(dp2039
g54
(dp2040
g62
I4
ssg63
Nsg56
(lp2041
g49
(g65
g51
NtRp2042
(dp2043
g54
(dp2044
sg63
g2038
sg56
(lp2045
g49
(g70
g51
NtRp2046
(dp2047
g54
(dp2048
g74
g75
ssg63
g2042
sg56
(lp2049
g790
asbag49
(g70
g51
NtRp2050
(dp2051
g54
(dp2052
g81
g82
ssg63
g2042
sg56
(lp2053
S':'
asbag49
(g70
g51
NtRp2054
(dp2055
g54
(dp2056
sg63
g2042
sg56
(lp2057
g49
(g50
g51
NtRp2058
(dp2059
g54
(dp2060
g62
I4
ssg63
g2054
sg56
(lp2061
S"set(['/Applications/web2py.app/Contents/Resources/applications/admin/', '/Applications/web2py.app/Contents/Resources/applications/welcome/', '/Applications/web2py.app/Contents/Resources/applications/MR/'])"
p2062
asbasbasbag49
(g65
g51
NtRp2063
(dp2064
g54
(dp2065
sg63
g2038
sg56
(lp2066
g49
(g70
g51
NtRp2067
(dp2068
g54
(dp2069
g74
g75
ssg63
g2063
sg56
(lp2070
g812
asbag49
(g70
g51
NtRp2071
(dp2072
g54
(dp2073
g81
g82
ssg63
g2063
sg56
(lp2074
S':'
asbag49
(g70
g51
NtRp2075
(dp2076
g54
(dp2077
sg63
g2063
sg56
(lp2078
g49
(g50
g51
NtRp2079
(dp2080
g54
(dp2081
g62
I4
ssg63
g2075
sg56
(lp2082
g825
asbasbasbag49
(g65
g51
NtRp2083
(dp2084
g54
(dp2085
sg63
g2038
sg56
(lp2086
g49
(g70
g51
NtRp2087
(dp2088
g54
(dp2089
g74
g75
ssg63
g2083
sg56
(lp2090
g834
asbag49
(g70
g51
NtRp2091
(dp2092
g54
(dp2093
g81
g82
ssg63
g2083
sg56
(lp2094
S':'
asbag49
(g70
g51
NtRp2095
(dp2096
g54
(dp2097
sg63
g2083
sg56
(lp2098
g49
(g50
g51
NtRp2099
(dp2100
g54
(dp2101
g62
I4
ssg63
g2095
sg56
(lp2102
g49
(g58
g51
NtRp2103
(dp2104
g54
(dp2105
g62
I3
ssg63
Nsg56
(lp2106
sbasbasbasbag49
(g65
g51
NtRp2107
(dp2108
g54
(dp2109
sg63
g2038
sg56
(lp2110
g49
(g70
g51
NtRp2111
(dp2112
g54
(dp2113
g74
g75
ssg63
g2107
sg56
(lp2114
g859
asbag49
(g70
g51
NtRp2115
(dp2116
g54
(dp2117
g81
g82
ssg63
g2107
sg56
(lp2118
S':'
asbag49
(g70
g51
NtRp2119
(dp2120
g54
(dp2121
sg63
g2107
sg56
(lp2122
g49
(g50
g51
NtRp2123
(dp2124
g54
(dp2125
g62
I4
ssg63
g2119
sg56
(lp2126
S"<Values at 0x4596f58: {'verbose': False, 'ip': '127.0.0.1', 'with_scheduler': False, 'ips': ['140.142.222.54'], 'shutdown_timeout': 5, 'taskbar': False, 'port': 8000, 'maxthreads': None, 'softcron': False, 'server_name': 'd-140-142-222-54.dhcp4.washington.edu', 'bpython': False, 'nogui': False, 'pid_filename': 'httpserver.pid', 'extcron': False, 'runcron': False, 'run_system_tests': False, 'test': None, 'folder': '/Applications/web2py.app/Contents/Resources', 'config': '', 'import_models': False, 'winservice': '', 'shell': None, 'run': '', 'log_filename': 'httpserver.log', 'debuglevel': 30, 'args': [''], 'socket_timeout': 5, 'ssl_ca_certificate': None, 'scheduler': None, 'profiler_filename': None, 'ssl_private_key': '', 'scheduler_groups': None, 'password': '<ask>', 'request_queue_size': 5, 'ssl_certificate': '', 'cronjob': False, 'numthreads': None, 'quiet': False, 'interfaces': None, 'minthreads': None, 'timeout': 10, 'plain': False, 'nobanner': False}>"
p2127
asbasbasbag49
(g65
g51
NtRp2128
(dp2129
g54
(dp2130
sg63
g2038
sg56
(lp2131
g49
(g70
g51
NtRp2132
(dp2133
g54
(dp2134
g74
g75
ssg63
g2128
sg56
(lp2135
g881
asbag49
(g70
g51
NtRp2136
(dp2137
g54
(dp2138
g81
g82
ssg63
g2128
sg56
(lp2139
S':'
asbag49
(g70
g51
NtRp2140
(dp2141
g54
(dp2142
sg63
g2128
sg56
(lp2143
g49
(g50
g51
NtRp2144
(dp2145
g54
(dp2146
g62
I4
ssg63
g2140
sg56
(lp2147
S'set([])'
p2148
asbasbasbag49
(g65
g51
NtRp2149
(dp2150
g54
(dp2151
sg63
g2038
sg56
(lp2152
g49
(g70
g51
NtRp2153
(dp2154
g54
(dp2155
g74
g75
ssg63
g2149
sg56
(lp2156
g903
asbag49
(g70
g51
NtRp2157
(dp2158
g54
(dp2159
g81
g82
ssg63
g2149
sg56
(lp2160
S':'
asbag49
(g70
g51
NtRp2161
(dp2162
g54
(dp2163
sg63
g2149
sg56
(lp2164
g49
(g50
g51
NtRp2165
(dp2166
g54
(dp2167
g62
I4
ssg63
g2161
sg56
(lp2168
g916
asbasbasbag49
(g65
g51
NtRp2169
(dp2170
g54
(dp2171
sg63
g2038
sg56
(lp2172
g49
(g70
g51
NtRp2173
(dp2174
g54
(dp2175
g74
g75
ssg63
g2169
sg56
(lp2176
g925
asbag49
(g70
g51
NtRp2177
(dp2178
g54
(dp2179
g81
g82
ssg63
g2169
sg56
(lp2180
S':'
asbag49
(g70
g51
NtRp2181
(dp2182
g54
(dp2183
sg63
g2169
sg56
(lp2184
g49
(g50
g51
NtRp2185
(dp2186
g54
(dp2187
g62
I4
ssg63
g2181
sg56
(lp2188
g938
asbasbasbag49
(g65
g51
NtRp2189
(dp2190
g54
(dp2191
sg63
g2038
sg56
(lp2192
g49
(g70
g51
NtRp2193
(dp2194
g54
(dp2195
g74
g75
ssg63
g2189
sg56
(lp2196
g1145
asbag49
(g70
g51
NtRp2197
(dp2198
g54
(dp2199
g81
g82
ssg63
g2189
sg56
(lp2200
S':'
asbag49
(g70
g51
NtRp2201
(dp2202
g54
(dp2203
sg63
g2189
sg56
(lp2204
g49
(g50
g51
NtRp2205
(dp2206
g54
(dp2207
g62
I4
ssg63
g2201
sg56
(lp2208
g92
asbasbasbag49
(g65
g51
NtRp2209
(dp2210
g54
(dp2211
sg63
g2038
sg56
(lp2212
g49
(g70
g51
NtRp2213
(dp2214
g54
(dp2215
g74
g75
ssg63
g2209
sg56
(lp2216
g1166
asbag49
(g70
g51
NtRp2217
(dp2218
g54
(dp2219
g81
g82
ssg63
g2209
sg56
(lp2220
S':'
asbag49
(g70
g51
NtRp2221
(dp2222
g54
(dp2223
sg63
g2209
sg56
(lp2224
g49
(g50
g51
NtRp2225
(dp2226
g54
(dp2227
g62
I4
ssg63
g2221
sg56
(lp2228
g92
asbasbasbag49
(g65
g51
NtRp2229
(dp2230
g54
(dp2231
sg63
g2038
sg56
(lp2232
g49
(g70
g51
NtRp2233
(dp2234
g54
(dp2235
g74
g75
ssg63
g2229
sg56
(lp2236
g1187
asbag49
(g70
g51
NtRp2237
(dp2238
g54
(dp2239
g81
g82
ssg63
g2229
sg56
(lp2240
S':'
asbag49
(g70
g51
NtRp2241
(dp2242
g54
(dp2243
sg63
g2229
sg56
(lp2244
g49
(g50
g51
NtRp2245
(dp2246
g54
(dp2247
g62
I4
ssg63
g2241
sg56
(lp2248
g49
(g58
g51
NtRp2249
(dp2250
g54
(dp2251
g62
I3
ssg63
Nsg56
(lp2252
g49
(g65
g51
NtRp2253
(dp2254
g54
(dp2255
sg63
g2249
sg56
(lp2256
g49
(g70
g51
NtRp2257
(dp2258
g54
(dp2259
sg63
g2253
sg56
(lp2260
g49
(g50
g51
NtRp2261
(dp2262
g54
(dp2263
g62
I3
ssg63
g2257
sg56
(lp2264
g1216
asbasbasbag49
(g65
g51
NtRp2265
(dp2266
g54
(dp2267
sg63
g2249
sg56
(lp2268
g49
(g70
g51
NtRp2269
(dp2270
g54
(dp2271
sg63
g2265
sg56
(lp2272
g49
(g50
g51
NtRp2273
(dp2274
g54
(dp2275
g62
I3
ssg63
g2269
sg56
(lp2276
g1229
asbasbasbag49
(g65
g51
NtRp2277
(dp2278
g54
(dp2279
sg63
g2249
sg56
(lp2280
g49
(g70
g51
NtRp2281
(dp2282
g54
(dp2283
sg63
g2277
sg56
(lp2284
g49
(g50
g51
NtRp2285
(dp2286
g54
(dp2287
g62
I3
ssg63
g2281
sg56
(lp2288
g1242
asbasbasbag49
(g65
g51
NtRp2289
(dp2290
g54
(dp2291
sg63
g2249
sg56
(lp2292
g49
(g70
g51
NtRp2293
(dp2294
g54
(dp2295
sg63
g2289
sg56
(lp2296
g49
(g50
g51
NtRp2297
(dp2298
g54
(dp2299
g62
I3
ssg63
g2293
sg56
(lp2300
g1255
asbasbasbag49
(g65
g51
NtRp2301
(dp2302
g54
(dp2303
sg63
g2249
sg56
(lp2304
g49
(g70
g51
NtRp2305
(dp2306
g54
(dp2307
sg63
g2301
sg56
(lp2308
g49
(g50
g51
NtRp2309
(dp2310
g54
(dp2311
g62
I3
ssg63
g2305
sg56
(lp2312
g1268
asbasbasbasbasbasbasbag49
(g65
g51
NtRp2313
(dp2314
g54
(dp2315
sg63
g2038
sg56
(lp2316
g49
(g70
g51
NtRp2317
(dp2318
g54
(dp2319
g74
g75
ssg63
g2313
sg56
(lp2320
g1538
asbag49
(g70
g51
NtRp2321
(dp2322
g54
(dp2323
g81
g82
ssg63
g2313
sg56
(lp2324
S':'
asbag49
(g70
g51
NtRp2325
(dp2326
g54
(dp2327
sg63
g2313
sg56
(lp2328
g49
(g50
g51
NtRp2329
(dp2330
g54
(dp2331
g62
I4
ssg63
g2325
sg56
(lp2332
g49
(g58
g51
NtRp2333
(dp2334
g54
(dp2335
g62
I3
ssg63
Nsg56
(lp2336
g49
(g65
g51
NtRp2337
(dp2338
g54
(dp2339
sg63
g2333
sg56
(lp2340
g49
(g70
g51
NtRp2341
(dp2342
g54
(dp2343
sg63
g2337
sg56
(lp2344
g49
(g50
g51
NtRp2345
(dp2346
g54
(dp2347
g62
I3
ssg63
g2341
sg56
(lp2348
S'2'
asbasbasbag49
(g65
g51
NtRp2349
(dp2350
g54
(dp2351
sg63
g2333
sg56
(lp2352
g49
(g70
g51
NtRp2353
(dp2354
g54
(dp2355
sg63
g2349
sg56
(lp2356
g49
(g50
g51
NtRp2357
(dp2358
g54
(dp2359
g62
I3
ssg63
g2353
sg56
(lp2360
S'4'
asbasbasbag49
(g65
g51
NtRp2361
(dp2362
g54
(dp2363
sg63
g2333
sg56
(lp2364
g49
(g70
g51
NtRp2365
(dp2366
g54
(dp2367
sg63
g2361
sg56
(lp2368
g49
(g50
g51
NtRp2369
(dp2370
g54
(dp2371
g62
I3
ssg63
g2365
sg56
(lp2372
S'5'
asbasbasbag49
(g65
g51
NtRp2373
(dp2374
g54
(dp2375
sg63
g2333
sg56
(lp2376
g49
(g70
g51
NtRp2377
(dp2378
g54
(dp2379
sg63
g2373
sg56
(lp2380
g49
(g50
g51
NtRp2381
(dp2382
g54
(dp2383
g62
I3
ssg63
g2377
sg56
(lp2384
g1603
asbasbasbag49
(g65
g51
NtRp2385
(dp2386
g54
(dp2387
sg63
g2333
sg56
(lp2388
g49
(g70
g51
NtRp2389
(dp2390
g54
(dp2391
sg63
g2385
sg56
(lp2392
g49
(g50
g51
NtRp2393
(dp2394
g54
(dp2395
g62
I3
ssg63
g2389
sg56
(lp2396
S'datetime.datetime(2013, 3, 18, 22, 46, 22)'
p2397
asbasbasbasbasbasbasbasbasbasbasbag49
(g65
g51
NtRp2398
(dp2399
g54
(dp2400
sg63
g59
sg56
(lp2401
g49
(g70
g51
NtRp2402
(dp2403
g54
(dp2404
g74
g75
ssg63
g2398
sg56
(lp2405
S'is_https'
p2406
asbag49
(g70
g51
NtRp2407
(dp2408
g54
(dp2409
g81
g82
ssg63
g2398
sg56
(lp2410
S':'
asbag49
(g70
g51
NtRp2411
(dp2412
g54
(dp2413
sg63
g2398
sg56
(lp2414
g49
(g50
g51
NtRp2415
(dp2416
g54
(dp2417
g62
I5
ssg63
g2411
sg56
(lp2418
g92
asbasbasbag49
(g65
g51
NtRp2419
(dp2420
g54
(dp2421
sg63
g59
sg56
(lp2422
g49
(g70
g51
NtRp2423
(dp2424
g54
(dp2425
g74
g75
ssg63
g2419
sg56
(lp2426
S'is_local'
p2427
asbag49
(g70
g51
NtRp2428
(dp2429
g54
(dp2430
g81
g82
ssg63
g2419
sg56
(lp2431
S':'
asbag49
(g70
g51
NtRp2432
(dp2433
g54
(dp2434
sg63
g2419
sg56
(lp2435
g49
(g50
g51
NtRp2436
(dp2437
g54
(dp2438
g62
I5
ssg63
g2432
sg56
(lp2439
g916
asbasbasbag49
(g65
g51
NtRp2440
(dp2441
g54
(dp2442
sg63
g59
sg56
(lp2443
g49
(g70
g51
NtRp2444
(dp2445
g54
(dp2446
g74
g75
ssg63
g2440
sg56
(lp2447
S'is_restful'
p2448
asbag49
(g70
g51
NtRp2449
(dp2450
g54
(dp2451
g81
g82
ssg63
g2440
sg56
(lp2452
S':'
asbag49
(g70
g51
NtRp2453
(dp2454
g54
(dp2455
sg63
g2440
sg56
(lp2456
g49
(g50
g51
NtRp2457
(dp2458
g54
(dp2459
g62
I5
ssg63
g2453
sg56
(lp2460
g92
asbasbasbag49
(g65
g51
NtRp2461
(dp2462
g54
(dp2463
sg63
g59
sg56
(lp2464
g49
(g70
g51
NtRp2465
(dp2466
g54
(dp2467
g74
g75
ssg63
g2461
sg56
(lp2468
S'now'
p2469
asbag49
(g70
g51
NtRp2470
(dp2471
g54
(dp2472
g81
g82
ssg63
g2461
sg56
(lp2473
S':'
asbag49
(g70
g51
NtRp2474
(dp2475
g54
(dp2476
sg63
g2461
sg56
(lp2477
g49
(g50
g51
NtRp2478
(dp2479
g54
(dp2480
g62
I5
ssg63
g2474
sg56
(lp2481
S'datetime.datetime(2013, 4, 29, 17, 2, 14, 237651)'
p2482
asbasbasbag49
(g65
g51
NtRp2483
(dp2484
g54
(dp2485
sg63
g59
sg56
(lp2486
g49
(g70
g51
NtRp2487
(dp2488
g54
(dp2489
g74
g75
ssg63
g2483
sg56
(lp2490
S'post_vars'
p2491
asbag49
(g70
g51
NtRp2492
(dp2493
g54
(dp2494
g81
g82
ssg63
g2483
sg56
(lp2495
S':'
asbag49
(g70
g51
NtRp2496
(dp2497
g54
(dp2498
sg63
g2483
sg56
(lp2499
g49
(g50
g51
NtRp2500
(dp2501
g54
(dp2502
g62
I5
ssg63
g2496
sg56
(lp2503
g49
(g58
g51
NtRp2504
(dp2505
g54
(dp2506
g62
I4
ssg63
Nsg56
(lp2507
sbasbasbasbag49
(g65
g51
NtRp2508
(dp2509
g54
(dp2510
sg63
g59
sg56
(lp2511
g49
(g70
g51
NtRp2512
(dp2513
g54
(dp2514
g74
g75
ssg63
g2508
sg56
(lp2515
S'raw_args'
p2516
asbag49
(g70
g51
NtRp2517
(dp2518
g54
(dp2519
g81
g82
ssg63
g2508
sg56
(lp2520
S':'
asbag49
(g70
g51
NtRp2521
(dp2522
g54
(dp2523
sg63
g2508
sg56
(lp2524
g49
(g50
g51
NtRp2525
(dp2526
g54
(dp2527
g62
I5
ssg63
g2521
sg56
(lp2528
S''
asbasbasbag49
(g65
g51
NtRp2529
(dp2530
g54
(dp2531
sg63
g59
sg56
(lp2532
g49
(g70
g51
NtRp2533
(dp2534
g54
(dp2535
g74
g75
ssg63
g2529
sg56
(lp2536
S'raw_extension'
p2537
asbag49
(g70
g51
NtRp2538
(dp2539
g54
(dp2540
g81
g82
ssg63
g2529
sg56
(lp2541
S':'
asbag49
(g70
g51
NtRp2542
(dp2543
g54
(dp2544
sg63
g2529
sg56
(lp2545
g49
(g50
g51
NtRp2546
(dp2547
g54
(dp2548
g62
I5
ssg63
g2542
sg56
(lp2549
S'None'
p2550
asbasbasbag49
(g65
g51
NtRp2551
(dp2552
g54
(dp2553
sg63
g59
sg56
(lp2554
g49
(g70
g51
NtRp2555
(dp2556
g54
(dp2557
g74
g75
ssg63
g2551
sg56
(lp2558
S'url'
p2559
asbag49
(g70
g51
NtRp2560
(dp2561
g54
(dp2562
g81
g82
ssg63
g2551
sg56
(lp2563
S':'
asbag49
(g70
g51
NtRp2564
(dp2565
g54
(dp2566
sg63
g2551
sg56
(lp2567
g49
(g50
g51
NtRp2568
(dp2569
g54
(dp2570
g62
I5
ssg63
g2564
sg56
(lp2571
g1290
asbasbasbag49
(g65
g51
NtRp2572
(dp2573
g54
(dp2574
sg63
g59
sg56
(lp2575
g49
(g70
g51
NtRp2576
(dp2577
g54
(dp2578
g74
g75
ssg63
g2572
sg56
(lp2579
S'utcnow'
p2580
asbag49
(g70
g51
NtRp2581
(dp2582
g54
(dp2583
g81
g82
ssg63
g2572
sg56
(lp2584
S':'
asbag49
(g70
g51
NtRp2585
(dp2586
g54
(dp2587
sg63
g2572
sg56
(lp2588
g49
(g50
g51
NtRp2589
(dp2590
g54
(dp2591
g62
I5
ssg63
g2585
sg56
(lp2592
S'datetime.datetime(2013, 4, 30, 0, 2, 14, 237666)'
p2593
asbasbasbag49
(g65
g51
NtRp2594
(dp2595
g54
(dp2596
sg63
g59
sg56
(lp2597
g49
(g70
g51
NtRp2598
(dp2599
g54
(dp2600
g74
g75
ssg63
g2594
sg56
(lp2601
S'uuid'
p2602
asbag49
(g70
g51
NtRp2603
(dp2604
g54
(dp2605
g81
g82
ssg63
g2594
sg56
(lp2606
S':'
asbag49
(g70
g51
NtRp2607
(dp2608
g54
(dp2609
sg63
g2594
sg56
(lp2610
g49
(g50
g51
NtRp2611
(dp2612
g54
(dp2613
g62
I5
ssg63
g2607
sg56
(lp2614
S'MR/127.0.0.1.2013-04-29.17-02-14.9648d0b1-bb77-442f-8e1c-a55f4071e321'
p2615
asbasbasbag49
(g65
g51
NtRp2616
(dp2617
g54
(dp2618
sg63
g59
sg56
(lp2619
g49
(g70
g51
NtRp2620
(dp2621
g54
(dp2622
g74
g75
ssg63
g2616
sg56
(lp2623
S'vars'
p2624
asbag49
(g70
g51
NtRp2625
(dp2626
g54
(dp2627
g81
g82
ssg63
g2616
sg56
(lp2628
S':'
asbag49
(g70
g51
NtRp2629
(dp2630
g54
(dp2631
sg63
g2616
sg56
(lp2632
g49
(g50
g51
NtRp2633
(dp2634
g54
(dp2635
g62
I5
ssg63
g2629
sg56
(lp2636
g49
(g58
g51
NtRp2637
(dp2638
g54
(dp2639
g62
I4
ssg63
Nsg56
(lp2640
g49
(g65
g51
NtRp2641
(dp2642
g54
(dp2643
sg63
g2637
sg56
(lp2644
g49
(g70
g51
NtRp2645
(dp2646
g54
(dp2647
g74
g75
ssg63
g2641
sg56
(lp2648
g1916
asbag49
(g70
g51
NtRp2649
(dp2650
g54
(dp2651
g81
g82
ssg63
g2641
sg56
(lp2652
S':'
asbag49
(g70
g51
NtRp2653
(dp2654
g54
(dp2655
sg63
g2641
sg56
(lp2656
g49
(g50
g51
NtRp2657
(dp2658
g54
(dp2659
g62
I4
ssg63
g2653
sg56
(lp2660
S''
asbasbasbag49
(g65
g51
NtRp2661
(dp2662
g54
(dp2663
sg63
g2637
sg56
(lp2664
g49
(g70
g51
NtRp2665
(dp2666
g54
(dp2667
g74
g75
ssg63
g2661
sg56
(lp2668
g1937
asbag49
(g70
g51
NtRp2669
(dp2670
g54
(dp2671
g81
g82
ssg63
g2661
sg56
(lp2672
S':'
asbag49
(g70
g51
NtRp2673
(dp2674
g54
(dp2675
sg63
g2661
sg56
(lp2676
g49
(g50
g51
NtRp2677
(dp2678
g54
(dp2679
g62
I4
ssg63
g2673
sg56
(lp2680
g1950
asbasbasbag49
(g65
g51
NtRp2681
(dp2682
g54
(dp2683
sg63
g2637
sg56
(lp2684
g49
(g70
g51
NtRp2685
(dp2686
g54
(dp2687
g74
g75
ssg63
g2681
sg56
(lp2688
g1959
asbag49
(g70
g51
NtRp2689
(dp2690
g54
(dp2691
g81
g82
ssg63
g2681
sg56
(lp2692
S':'
asbag49
(g70
g51
NtRp2693
(dp2694
g54
(dp2695
sg63
g2681
sg56
(lp2696
g49
(g50
g51
NtRp2697
(dp2698
g54
(dp2699
g62
I4
ssg63
g2693
sg56
(lp2700
g1972
asbasbasbag49
(g65
g51
NtRp2701
(dp2702
g54
(dp2703
sg63
g2637
sg56
(lp2704
g49
(g70
g51
NtRp2705
(dp2706
g54
(dp2707
g74
g75
ssg63
g2701
sg56
(lp2708
g1981
asbag49
(g70
g51
NtRp2709
(dp2710
g54
(dp2711
g81
g82
ssg63
g2701
sg56
(lp2712
S':'
asbag49
(g70
g51
NtRp2713
(dp2714
g54
(dp2715
sg63
g2701
sg56
(lp2716
g49
(g50
g51
NtRp2717
(dp2718
g54
(dp2719
g62
I4
ssg63
g2713
sg56
(lp2720
g1994
asbasbasbag49
(g65
g51
NtRp2721
(dp2722
g54
(dp2723
sg63
g2637
sg56
(lp2724
g49
(g70
g51
NtRp2725
(dp2726
g54
(dp2727
g74
g75
ssg63
g2721
sg56
(lp2728
g2003
asbag49
(g70
g51
NtRp2729
(dp2730
g54
(dp2731
g81
g82
ssg63
g2721
sg56
(lp2732
S':'
asbag49
(g70
g51
NtRp2733
(dp2734
g54
(dp2735
sg63
g2721
sg56
(lp2736
g49
(g50
g51
NtRp2737
(dp2738
g54
(dp2739
g62
I4
ssg63
g2733
sg56
(lp2740
g2016
asbasbasbasbasbasbasbag49
(g65
g51
NtRp2741
(dp2742
g54
(dp2743
sg63
g59
sg56
(lp2744
g49
(g70
g51
NtRp2745
(dp2746
g54
(dp2747
g74
g75
ssg63
g2741
sg56
(lp2748
S'wsgi'
p2749
asbag49
(g70
g51
NtRp2750
(dp2751
g54
(dp2752
g81
g82
ssg63
g2741
sg56
(lp2753
S':'
asbag49
(g70
g51
NtRp2754
(dp2755
g54
(dp2756
sg63
g2741
sg56
(lp2757
g49
(g50
g51
NtRp2758
(dp2759
g54
(dp2760
g62
I5
ssg63
g2754
sg56
(lp2761
g49
(g58
g51
NtRp2762
(dp2763
g54
(dp2764
g62
I4
ssg63
Nsg56
(lp2765
g49
(g65
g51
NtRp2766
(dp2767
g54
(dp2768
sg63
g2762
sg56
(lp2769
g49
(g70
g51
NtRp2770
(dp2771
g54
(dp2772
g74
g75
ssg63
g2766
sg56
(lp2773
S'environ'
p2774
asbag49
(g70
g51
NtRp2775
(dp2776
g54
(dp2777
g81
g82
ssg63
g2766
sg56
(lp2778
S':'
asbag49
(g70
g51
NtRp2779
(dp2780
g54
(dp2781
sg63
g2766
sg56
(lp2782
g49
(g50
g51
NtRp2783
(dp2784
g54
(dp2785
g62
I4
ssg63
g2779
sg56
(lp2786
g49
(g58
g51
NtRp2787
(dp2788
g54
(dp2789
g62
I3
ssg63
Nsg56
(lp2790
g49
(g65
g51
NtRp2791
(dp2792
g54
(dp2793
sg63
g2787
sg56
(lp2794
g49
(g70
g51
NtRp2795
(dp2796
g54
(dp2797
g74
g75
ssg63
g2791
sg56
(lp2798
S'HTTP_ACCEPT'
p2799
asbag49
(g70
g51
NtRp2800
(dp2801
g54
(dp2802
g81
g82
ssg63
g2791
sg56
(lp2803
S':'
asbag49
(g70
g51
NtRp2804
(dp2805
g54
(dp2806
sg63
g2791
sg56
(lp2807
g49
(g50
g51
NtRp2808
(dp2809
g54
(dp2810
g62
I3
ssg63
g2804
sg56
(lp2811
g960
asbasbasbag49
(g65
g51
NtRp2812
(dp2813
g54
(dp2814
sg63
g2787
sg56
(lp2815
g49
(g70
g51
NtRp2816
(dp2817
g54
(dp2818
g74
g75
ssg63
g2812
sg56
(lp2819
S'HTTP_ACCEPT_CHARSET'
p2820
asbag49
(g70
g51
NtRp2821
(dp2822
g54
(dp2823
g81
g82
ssg63
g2812
sg56
(lp2824
S':'
asbag49
(g70
g51
NtRp2825
(dp2826
g54
(dp2827
sg63
g2812
sg56
(lp2828
g49
(g50
g51
NtRp2829
(dp2830
g54
(dp2831
g62
I3
ssg63
g2825
sg56
(lp2832
g982
asbasbasbag49
(g65
g51
NtRp2833
(dp2834
g54
(dp2835
sg63
g2787
sg56
(lp2836
g49
(g70
g51
NtRp2837
(dp2838
g54
(dp2839
g74
g75
ssg63
g2833
sg56
(lp2840
S'HTTP_ACCEPT_ENCODING'
p2841
asbag49
(g70
g51
NtRp2842
(dp2843
g54
(dp2844
g81
g82
ssg63
g2833
sg56
(lp2845
S':'
asbag49
(g70
g51
NtRp2846
(dp2847
g54
(dp2848
sg63
g2833
sg56
(lp2849
g49
(g50
g51
NtRp2850
(dp2851
g54
(dp2852
g62
I3
ssg63
g2846
sg56
(lp2853
g1004
asbasbasbag49
(g65
g51
NtRp2854
(dp2855
g54
(dp2856
sg63
g2787
sg56
(lp2857
g49
(g70
g51
NtRp2858
(dp2859
g54
(dp2860
g74
g75
ssg63
g2854
sg56
(lp2861
S'HTTP_ACCEPT_LANGUAGE'
p2862
asbag49
(g70
g51
NtRp2863
(dp2864
g54
(dp2865
g81
g82
ssg63
g2854
sg56
(lp2866
S':'
asbag49
(g70
g51
NtRp2867
(dp2868
g54
(dp2869
sg63
g2854
sg56
(lp2870
g49
(g50
g51
NtRp2871
(dp2872
g54
(dp2873
g62
I3
ssg63
g2867
sg56
(lp2874
g1026
asbasbasbag49
(g65
g51
NtRp2875
(dp2876
g54
(dp2877
sg63
g2787
sg56
(lp2878
g49
(g70
g51
NtRp2879
(dp2880
g54
(dp2881
g74
g75
ssg63
g2875
sg56
(lp2882
S'HTTP_CACHE_CONTROL'
p2883
asbag49
(g70
g51
NtRp2884
(dp2885
g54
(dp2886
g81
g82
ssg63
g2875
sg56
(lp2887
S':'
asbag49
(g70
g51
NtRp2888
(dp2889
g54
(dp2890
sg63
g2875
sg56
(lp2891
g49
(g50
g51
NtRp2892
(dp2893
g54
(dp2894
g62
I3
ssg63
g2888
sg56
(lp2895
g1048
asbasbasbag49
(g65
g51
NtRp2896
(dp2897
g54
(dp2898
sg63
g2787
sg56
(lp2899
g49
(g70
g51
NtRp2900
(dp2901
g54
(dp2902
g74
g75
ssg63
g2896
sg56
(lp2903
S'HTTP_CONNECTION'
p2904
asbag49
(g70
g51
NtRp2905
(dp2906
g54
(dp2907
g81
g82
ssg63
g2896
sg56
(lp2908
S':'
asbag49
(g70
g51
NtRp2909
(dp2910
g54
(dp2911
sg63
g2896
sg56
(lp2912
g49
(g50
g51
NtRp2913
(dp2914
g54
(dp2915
g62
I3
ssg63
g2909
sg56
(lp2916
g1070
asbasbasbag49
(g65
g51
NtRp2917
(dp2918
g54
(dp2919
sg63
g2787
sg56
(lp2920
g49
(g70
g51
NtRp2921
(dp2922
g54
(dp2923
g74
g75
ssg63
g2917
sg56
(lp2924
S'HTTP_COOKIE'
p2925
asbag49
(g70
g51
NtRp2926
(dp2927
g54
(dp2928
g81
g82
ssg63
g2917
sg56
(lp2929
S':'
asbag49
(g70
g51
NtRp2930
(dp2931
g54
(dp2932
sg63
g2917
sg56
(lp2933
g49
(g50
g51
NtRp2934
(dp2935
g54
(dp2936
g62
I3
ssg63
g2930
sg56
(lp2937
g1092
asbasbasbag49
(g65
g51
NtRp2938
(dp2939
g54
(dp2940
sg63
g2787
sg56
(lp2941
g49
(g70
g51
NtRp2942
(dp2943
g54
(dp2944
g74
g75
ssg63
g2938
sg56
(lp2945
S'HTTP_HOST'
p2946
asbag49
(g70
g51
NtRp2947
(dp2948
g54
(dp2949
g81
g82
ssg63
g2938
sg56
(lp2950
S':'
asbag49
(g70
g51
NtRp2951
(dp2952
g54
(dp2953
sg63
g2938
sg56
(lp2954
g49
(g50
g51
NtRp2955
(dp2956
g54
(dp2957
g62
I3
ssg63
g2951
sg56
(lp2958
g1114
asbasbasbag49
(g65
g51
NtRp2959
(dp2960
g54
(dp2961
sg63
g2787
sg56
(lp2962
g49
(g70
g51
NtRp2963
(dp2964
g54
(dp2965
g74
g75
ssg63
g2959
sg56
(lp2966
S'HTTP_USER_AGENT'
p2967
asbag49
(g70
g51
NtRp2968
(dp2969
g54
(dp2970
g81
g82
ssg63
g2959
sg56
(lp2971
S':'
asbag49
(g70
g51
NtRp2972
(dp2973
g54
(dp2974
sg63
g2959
sg56
(lp2975
g49
(g50
g51
NtRp2976
(dp2977
g54
(dp2978
g62
I3
ssg63
g2972
sg56
(lp2979
g1136
asbasbasbag49
(g65
g51
NtRp2980
(dp2981
g54
(dp2982
sg63
g2787
sg56
(lp2983
g49
(g70
g51
NtRp2984
(dp2985
g54
(dp2986
g74
g75
ssg63
g2980
sg56
(lp2987
S'PATH_INFO'
p2988
asbag49
(g70
g51
NtRp2989
(dp2990
g54
(dp2991
g81
g82
ssg63
g2980
sg56
(lp2992
S':'
asbag49
(g70
g51
NtRp2993
(dp2994
g54
(dp2995
sg63
g2980
sg56
(lp2996
g49
(g50
g51
NtRp2997
(dp2998
g54
(dp2999
g62
I3
ssg63
g2993
sg56
(lp3000
g1290
asbasbasbag49
(g65
g51
NtRp3001
(dp3002
g54
(dp3003
sg63
g2787
sg56
(lp3004
g49
(g70
g51
NtRp3005
(dp3006
g54
(dp3007
g74
g75
ssg63
g3001
sg56
(lp3008
S'QUERY_STRING'
p3009
asbag49
(g70
g51
NtRp3010
(dp3011
g54
(dp3012
g81
g82
ssg63
g3001
sg56
(lp3013
S':'
asbag49
(g70
g51
NtRp3014
(dp3015
g54
(dp3016
sg63
g3001
sg56
(lp3017
g49
(g50
g51
NtRp3018
(dp3019
g54
(dp3020
g62
I3
ssg63
g3014
sg56
(lp3021
g1312
asbasbasbag49
(g65
g51
NtRp3022
(dp3023
g54
(dp3024
sg63
g2787
sg56
(lp3025
g49
(g70
g51
NtRp3026
(dp3027
g54
(dp3028
g74
g75
ssg63
g3022
sg56
(lp3029
S'REMOTE_ADDR'
p3030
asbag49
(g70
g51
NtRp3031
(dp3032
g54
(dp3033
g81
g82
ssg63
g3022
sg56
(lp3034
S':'
asbag49
(g70
g51
NtRp3035
(dp3036
g54
(dp3037
sg63
g3022
sg56
(lp3038
g49
(g50
g51
NtRp3039
(dp3040
g54
(dp3041
g62
I3
ssg63
g3035
sg56
(lp3042
g204
asbasbasbag49
(g65
g51
NtRp3043
(dp3044
g54
(dp3045
sg63
g2787
sg56
(lp3046
g49
(g70
g51
NtRp3047
(dp3048
g54
(dp3049
g74
g75
ssg63
g3043
sg56
(lp3050
S'REMOTE_PORT'
p3051
asbag49
(g70
g51
NtRp3052
(dp3053
g54
(dp3054
g81
g82
ssg63
g3043
sg56
(lp3055
S':'
asbag49
(g70
g51
NtRp3056
(dp3057
g54
(dp3058
sg63
g3043
sg56
(lp3059
g49
(g50
g51
NtRp3060
(dp3061
g54
(dp3062
g62
I3
ssg63
g3056
sg56
(lp3063
g1355
asbasbasbag49
(g65
g51
NtRp3064
(dp3065
g54
(dp3066
sg63
g2787
sg56
(lp3067
g49
(g70
g51
NtRp3068
(dp3069
g54
(dp3070
g74
g75
ssg63
g3064
sg56
(lp3071
S'REQUEST_METHOD'
p3072
asbag49
(g70
g51
NtRp3073
(dp3074
g54
(dp3075
g81
g82
ssg63
g3064
sg56
(lp3076
S':'
asbag49
(g70
g51
NtRp3077
(dp3078
g54
(dp3079
sg63
g3064
sg56
(lp3080
g49
(g50
g51
NtRp3081
(dp3082
g54
(dp3083
g62
I3
ssg63
g3077
sg56
(lp3084
g1377
asbasbasbag49
(g65
g51
NtRp3085
(dp3086
g54
(dp3087
sg63
g2787
sg56
(lp3088
g49
(g70
g51
NtRp3089
(dp3090
g54
(dp3091
g74
g75
ssg63
g3085
sg56
(lp3092
S'REQUEST_URI'
p3093
asbag49
(g70
g51
NtRp3094
(dp3095
g54
(dp3096
g81
g82
ssg63
g3085
sg56
(lp3097
S':'
asbag49
(g70
g51
NtRp3098
(dp3099
g54
(dp3100
sg63
g3085
sg56
(lp3101
g49
(g50
g51
NtRp3102
(dp3103
g54
(dp3104
g62
I3
ssg63
g3098
sg56
(lp3105
g1399
asbasbasbag49
(g65
g51
NtRp3106
(dp3107
g54
(dp3108
sg63
g2787
sg56
(lp3109
g49
(g70
g51
NtRp3110
(dp3111
g54
(dp3112
g74
g75
ssg63
g3106
sg56
(lp3113
S'SCRIPT_NAME'
p3114
asbag49
(g70
g51
NtRp3115
(dp3116
g54
(dp3117
g81
g82
ssg63
g3106
sg56
(lp3118
S':'
asbag49
(g70
g51
NtRp3119
(dp3120
g54
(dp3121
sg63
g3106
sg56
(lp3122
g49
(g50
g51
NtRp3123
(dp3124
g54
(dp3125
g62
I3
ssg63
g3119
sg56
(lp3126
S''
asbasbasbag49
(g65
g51
NtRp3127
(dp3128
g54
(dp3129
sg63
g2787
sg56
(lp3130
g49
(g70
g51
NtRp3131
(dp3132
g54
(dp3133
g74
g75
ssg63
g3127
sg56
(lp3134
S'SERVER_NAME'
p3135
asbag49
(g70
g51
NtRp3136
(dp3137
g54
(dp3138
g81
g82
ssg63
g3127
sg56
(lp3139
S':'
asbag49
(g70
g51
NtRp3140
(dp3141
g54
(dp3142
sg63
g3127
sg56
(lp3143
g49
(g50
g51
NtRp3144
(dp3145
g54
(dp3146
g62
I3
ssg63
g3140
sg56
(lp3147
g1442
asbasbasbag49
(g65
g51
NtRp3148
(dp3149
g54
(dp3150
sg63
g2787
sg56
(lp3151
g49
(g70
g51
NtRp3152
(dp3153
g54
(dp3154
g74
g75
ssg63
g3148
sg56
(lp3155
S'SERVER_PORT'
p3156
asbag49
(g70
g51
NtRp3157
(dp3158
g54
(dp3159
g81
g82
ssg63
g3148
sg56
(lp3160
S':'
asbag49
(g70
g51
NtRp3161
(dp3162
g54
(dp3163
sg63
g3148
sg56
(lp3164
g49
(g50
g51
NtRp3165
(dp3166
g54
(dp3167
g62
I3
ssg63
g3161
sg56
(lp3168
g1464
asbasbasbag49
(g65
g51
NtRp3169
(dp3170
g54
(dp3171
sg63
g2787
sg56
(lp3172
g49
(g70
g51
NtRp3173
(dp3174
g54
(dp3175
g74
g75
ssg63
g3169
sg56
(lp3176
S'SERVER_PROTOCOL'
p3177
asbag49
(g70
g51
NtRp3178
(dp3179
g54
(dp3180
g81
g82
ssg63
g3169
sg56
(lp3181
S':'
asbag49
(g70
g51
NtRp3182
(dp3183
g54
(dp3184
sg63
g3169
sg56
(lp3185
g49
(g50
g51
NtRp3186
(dp3187
g54
(dp3188
g62
I3
ssg63
g3182
sg56
(lp3189
g1486
asbasbasbag49
(g65
g51
NtRp3190
(dp3191
g54
(dp3192
sg63
g2787
sg56
(lp3193
g49
(g70
g51
NtRp3194
(dp3195
g54
(dp3196
g74
g75
ssg63
g3190
sg56
(lp3197
S'SERVER_SOFTWARE'
p3198
asbag49
(g70
g51
NtRp3199
(dp3200
g54
(dp3201
g81
g82
ssg63
g3190
sg56
(lp3202
S':'
asbag49
(g70
g51
NtRp3203
(dp3204
g54
(dp3205
sg63
g3190
sg56
(lp3206
g49
(g50
g51
NtRp3207
(dp3208
g54
(dp3209
g62
I3
ssg63
g3203
sg56
(lp3210
g1508
asbasbasbag49
(g65
g51
NtRp3211
(dp3212
g54
(dp3213
sg63
g2787
sg56
(lp3214
g49
(g70
g51
NtRp3215
(dp3216
g54
(dp3217
g74
g75
ssg63
g3211
sg56
(lp3218
S'wsgi.errors'
p3219
asbag49
(g70
g51
NtRp3220
(dp3221
g54
(dp3222
g81
g82
ssg63
g3211
sg56
(lp3223
S':'
asbag49
(g70
g51
NtRp3224
(dp3225
g54
(dp3226
sg63
g3211
sg56
(lp3227
g49
(g50
g51
NtRp3228
(dp3229
g54
(dp3230
g62
I3
ssg63
g3224
sg56
(lp3231
S"<open file '<stderr>', mode 'w' at 0x660b0>"
p3232
asbasbasbag49
(g65
g51
NtRp3233
(dp3234
g54
(dp3235
sg63
g2787
sg56
(lp3236
g49
(g70
g51
NtRp3237
(dp3238
g54
(dp3239
g74
g75
ssg63
g3233
sg56
(lp3240
S'wsgi.file_wrapper'
p3241
asbag49
(g70
g51
NtRp3242
(dp3243
g54
(dp3244
g81
g82
ssg63
g3233
sg56
(lp3245
S':'
asbag49
(g70
g51
NtRp3246
(dp3247
g54
(dp3248
sg63
g3233
sg56
(lp3249
g49
(g50
g51
NtRp3250
(dp3251
g54
(dp3252
g62
I3
ssg63
g3246
sg56
(lp3253
S'<class wsgiref.util.FileWrapper at 0x456f060>'
p3254
asbasbasbag49
(g65
g51
NtRp3255
(dp3256
g54
(dp3257
sg63
g2787
sg56
(lp3258
g49
(g70
g51
NtRp3259
(dp3260
g54
(dp3261
g74
g75
ssg63
g3255
sg56
(lp3262
S'wsgi.input'
p3263
asbag49
(g70
g51
NtRp3264
(dp3265
g54
(dp3266
g81
g82
ssg63
g3255
sg56
(lp3267
S':'
asbag49
(g70
g51
NtRp3268
(dp3269
g54
(dp3270
sg63
g3255
sg56
(lp3271
g49
(g50
g51
NtRp3272
(dp3273
g54
(dp3274
g62
I3
ssg63
g3268
sg56
(lp3275
S'<cStringIO.StringO object at 0x90bd2a0>'
p3276
asbasbasbag49
(g65
g51
NtRp3277
(dp3278
g54
(dp3279
sg63
g2787
sg56
(lp3280
g49
(g70
g51
NtRp3281
(dp3282
g54
(dp3283
g74
g75
ssg63
g3277
sg56
(lp3284
S'wsgi.multiprocess'
p3285
asbag49
(g70
g51
NtRp3286
(dp3287
g54
(dp3288
g81
g82
ssg63
g3277
sg56
(lp3289
S':'
asbag49
(g70
g51
NtRp3290
(dp3291
g54
(dp3292
sg63
g3277
sg56
(lp3293
g49
(g50
g51
NtRp3294
(dp3295
g54
(dp3296
g62
I3
ssg63
g3290
sg56
(lp3297
g92
asbasbasbag49
(g65
g51
NtRp3298
(dp3299
g54
(dp3300
sg63
g2787
sg56
(lp3301
g49
(g70
g51
NtRp3302
(dp3303
g54
(dp3304
g74
g75
ssg63
g3298
sg56
(lp3305
S'wsgi.multithread'
p3306
asbag49
(g70
g51
NtRp3307
(dp3308
g54
(dp3309
g81
g82
ssg63
g3298
sg56
(lp3310
S':'
asbag49
(g70
g51
NtRp3311
(dp3312
g54
(dp3313
sg63
g3298
sg56
(lp3314
g49
(g50
g51
NtRp3315
(dp3316
g54
(dp3317
g62
I3
ssg63
g3311
sg56
(lp3318
g916
asbasbasbag49
(g65
g51
NtRp3319
(dp3320
g54
(dp3321
sg63
g2787
sg56
(lp3322
g49
(g70
g51
NtRp3323
(dp3324
g54
(dp3325
g74
g75
ssg63
g3319
sg56
(lp3326
S'wsgi.run_once'
p3327
asbag49
(g70
g51
NtRp3328
(dp3329
g54
(dp3330
g81
g82
ssg63
g3319
sg56
(lp3331
S':'
asbag49
(g70
g51
NtRp3332
(dp3333
g54
(dp3334
sg63
g3319
sg56
(lp3335
g49
(g50
g51
NtRp3336
(dp3337
g54
(dp3338
g62
I3
ssg63
g3332
sg56
(lp3339
g92
asbasbasbag49
(g65
g51
NtRp3340
(dp3341
g54
(dp3342
sg63
g2787
sg56
(lp3343
g49
(g70
g51
NtRp3344
(dp3345
g54
(dp3346
g74
g75
ssg63
g3340
sg56
(lp3347
S'wsgi.url_scheme'
p3348
asbag49
(g70
g51
NtRp3349
(dp3350
g54
(dp3351
g81
g82
ssg63
g3340
sg56
(lp3352
S':'
asbag49
(g70
g51
NtRp3353
(dp3354
g54
(dp3355
sg63
g3340
sg56
(lp3356
g49
(g50
g51
NtRp3357
(dp3358
g54
(dp3359
g62
I3
ssg63
g3353
sg56
(lp3360
g1767
asbasbasbag49
(g65
g51
NtRp3361
(dp3362
g54
(dp3363
sg63
g2787
sg56
(lp3364
g49
(g70
g51
NtRp3365
(dp3366
g54
(dp3367
g74
g75
ssg63
g3361
sg56
(lp3368
S'wsgi.version'
p3369
asbag49
(g70
g51
NtRp3370
(dp3371
g54
(dp3372
g81
g82
ssg63
g3361
sg56
(lp3373
S':'
asbag49
(g70
g51
NtRp3374
(dp3375
g54
(dp3376
sg63
g3361
sg56
(lp3377
g49
(g50
g51
NtRp3378
(dp3379
g54
(dp3380
g62
I3
ssg63
g3374
sg56
(lp3381
S'1'
asbasbasbasbasbasbasbasbasbasbasbasbasbsS'frames'
p3382
(lp3383
(dp3384
S'file'
p3385
S'/home/mdipierro/web2py/gluon/restricted.py'
p3386
sS'dump'
p3387
(dp3388
sS'lnum'
p3389
I212
sS'lines'
p3390
(dp3391
sS'call'
p3392
S"(code='# -*- coding: utf-8 -*-\\n# this file is released ...nse._vars=response._caller(mobile_user_register)\\n', environment={'A': <class 'gluon.html.A'>, 'Auth': <class 'gluon.tools.Auth'>, 'B': <class 'gluon.html.B'>, 'BEAUTIFY': <class 'gluon.html.BEAUTIFY'>, 'BODY': <class 'gluon.html.BODY'>, 'BR': <class 'gluon.html.BR'>, 'BUTTON': <class 'gluon.html.BUTTON'>, 'CAT': <class 'gluon.html.CAT'>, 'CENTER': <class 'gluon.html.CENTER'>, 'CLEANUP': <class 'gluon.validators.CLEANUP'>, ...}, layer='/Applications/web2py.app/Contents/Resources/applications/MR/controllers/default.py')"
p3393
sS'func'
p3394
S'restricted'
p3395
sa(dp3396
g3385
S'/Applications/web2py.app/Contents/Resources/applications/MR/controllers/default.py'
p3397
sg3387
(dp3398
sg3389
I98
sg3390
(dp3399
I96
S'    return dict(form=crud())'
p3400
sI87
S'    http://..../[app]/default/data/update/[table]/[id]'
p3401
sI88
S'    http://..../[app]/default/data/delete/[table]/[id]'
p3402
sI89
S'    http://..../[app]/default/data/select/[table]'
p3403
sI90
S'    http://..../[app]/default/data/search/[table]'
p3404
sI91
S'    but URLs must be signed, i.e. linked with'
p3405
sI92
S"      A('table',_href=URL('data/tables',user_signature=True))"
p3406
sI93
S'    or with the signed load operator'
p3407
sI94
S"      LOAD('default','data.load',args='tables',ajax=True,user_signature=True)"
p3408
sI95
S'    """'
p3409
ssg3392
S'()'
p3410
sg3394
S'<module>'
p3411
sa(dp3412
g3385
S'/home/mdipierro/web2py/gluon/globals.py'
p3413
sg3387
(dp3414
sg3389
I193
sg3390
(dp3415
sg3392
S'(f=<function mobile_user_register at 0x8e4ec30>)'
p3416
sg3394
S'<lambda>'
p3417
sa(dp3418
g3385
S'/Applications/web2py.app/Contents/Resources/applications/MR/controllers/default.py'
p3419
sg3387
(dp3420
sg3389
I60
sg3390
(dp3421
I64
S'    ret = db.mobile_user.validate_and_insert(email=email, password=password, first_name=firstname, last_name=lastname, md5=result, country=country)'
p3422
sI55
S'    country = request.vars.country'
p3423
sI56
S'    rows = db(db.mobile_user.email==email).select()'
p3424
sI57
S'    result = []'
p3425
sI58
S''
sI59
S'    if len(rows) != 0:'
p3426
sI60
S'        result[\'status\'] = "exist"'
p3427
sI61
S'        return response.json(result)'
p3428
sI62
S''
sI63
S'    result = TT.md5_hash(password)'
p3429
ssg3392
S'()'
p3430
sg3394
S'mobile_user_register'
p3431
sasS'pyver'
p3432
S'Python 2.5.1: /Applications/web2py.app/Contents/MacOS/python'
p3433
sS'session'
p3434
g49
(g50
g51
NtRp3435
(dp3436
g54
(dp3437
sg56
(lp3438
g49
(g58
g51
NtRp3439
(dp3440
g54
(dp3441
g62
I5
ssg63
Nsg56
(lp3442
g49
(g65
g51
NtRp3443
(dp3444
g54
(dp3445
sg63
g3439
sg56
(lp3446
g49
(g70
g51
NtRp3447
(dp3448
g54
(dp3449
g74
g75
ssg63
g3443
sg56
(lp3450
S'last_orderby'
p3451
asbag49
(g70
g51
NtRp3452
(dp3453
g54
(dp3454
g81
g82
ssg63
g3443
sg56
(lp3455
S':'
asbag49
(g70
g51
NtRp3456
(dp3457
g54
(dp3458
sg63
g3443
sg56
(lp3459
g49
(g50
g51
NtRp3460
(dp3461
g54
(dp3462
g62
I5
ssg63
g3456
sg56
(lp3463
S'None'
p3464
asbasbasbag49
(g65
g51
NtRp3465
(dp3466
g54
(dp3467
sg63
g3439
sg56
(lp3468
g49
(g70
g51
NtRp3469
(dp3470
g54
(dp3471
g74
g75
ssg63
g3465
sg56
(lp3472
S'last_query'
p3473
asbag49
(g70
g51
NtRp3474
(dp3475
g54
(dp3476
g81
g82
ssg63
g3465
sg56
(lp3477
S':'
asbag49
(g70
g51
NtRp3478
(dp3479
g54
(dp3480
sg63
g3465
sg56
(lp3481
g49
(g50
g51
NtRp3482
(dp3483
g54
(dp3484
g62
I5
ssg63
g3478
sg56
(lp3485
S'db.mobile_user.id>0'
p3486
asbasbasbasbasbsS'etype'
p3487
S"<type 'exceptions.TypeError'>"
p3488
sS'date'
p3489
S'Mon Apr 29 17:02:14 2013'
p3490
sS'response'
p3491
g49
(g50
g51
NtRp3492
(dp3493
g54
(dp3494
sg56
(lp3495
g49
(g58
g51
NtRp3496
(dp3497
g54
(dp3498
g62
I5
ssg63
Nsg56
(lp3499
g49
(g65
g51
NtRp3500
(dp3501
g54
(dp3502
sg63
g3496
sg56
(lp3503
g49
(g70
g51
NtRp3504
(dp3505
g54
(dp3506
g74
g75
ssg63
g3500
sg56
(lp3507
g147
asbag49
(g70
g51
NtRp3508
(dp3509
g54
(dp3510
g81
g82
ssg63
g3500
sg56
(lp3511
S':'
asbag49
(g70
g51
NtRp3512
(dp3513
g54
(dp3514
sg63
g3500
sg56
(lp3515
g49
(g50
g51
NtRp3516
(dp3517
g54
(dp3518
g62
I5
ssg63
g3512
sg56
(lp3519
S'<cStringIO.StringO object at 0x8ded5e0>'
p3520
asbasbasbag49
(g65
g51
NtRp3521
(dp3522
g54
(dp3523
sg63
g3496
sg56
(lp3524
g49
(g70
g51
NtRp3525
(dp3526
g54
(dp3527
g74
g75
ssg63
g3521
sg56
(lp3528
g235
asbag49
(g70
g51
NtRp3529
(dp3530
g54
(dp3531
g81
g82
ssg63
g3521
sg56
(lp3532
S':'
asbag49
(g70
g51
NtRp3533
(dp3534
g54
(dp3535
sg63
g3521
sg56
(lp3536
g49
(g50
g51
NtRp3537
(dp3538
g54
(dp3539
g62
I5
ssg63
g3533
sg56
(lp3540
g49
(g58
g51
NtRp3541
(dp3542
g54
(dp3543
g62
I4
ssg63
Nsg56
(lp3544
g49
(g65
g51
NtRp3545
(dp3546
g54
(dp3547
sg63
g3541
sg56
(lp3548
g49
(g70
g51
NtRp3549
(dp3550
g54
(dp3551
g74
g75
ssg63
g3545
sg56
(lp3552
S'session_id_mr'
p3553
asbag49
(g70
g51
NtRp3554
(dp3555
g54
(dp3556
g81
g82
ssg63
g3545
sg56
(lp3557
S':'
asbag49
(g70
g51
NtRp3558
(dp3559
g54
(dp3560
sg63
g3545
sg56
(lp3561
g49
(g50
g51
NtRp3562
(dp3563
g54
(dp3564
g62
I4
ssg63
g3558
sg56
(lp3565
g446
ag49
(g58
g51
NtRp3566
(dp3567
g54
(dp3568
g62
I3
ssg63
Nsg56
(lp3569
g49
(g65
g51
NtRp3570
(dp3571
g54
(dp3572
sg63
g3566
sg56
(lp3573
g49
(g70
g51
NtRp3574
(dp3575
g54
(dp3576
g74
g75
ssg63
g3570
sg56
(lp3577
g286
asbag49
(g70
g51
NtRp3578
(dp3579
g54
(dp3580
g81
g82
ssg63
g3570
sg56
(lp3581
S':'
asbag49
(g70
g51
NtRp3582
(dp3583
g54
(dp3584
sg63
g3570
sg56
(lp3585
g49
(g50
g51
NtRp3586
(dp3587
g54
(dp3588
g62
I3
ssg63
g3582
sg56
(lp3589
S''
asbasbasbag49
(g65
g51
NtRp3590
(dp3591
g54
(dp3592
sg63
g3566
sg56
(lp3593
g49
(g70
g51
NtRp3594
(dp3595
g54
(dp3596
g74
g75
ssg63
g3590
sg56
(lp3597
g307
asbag49
(g70
g51
NtRp3598
(dp3599
g54
(dp3600
g81
g82
ssg63
g3590
sg56
(lp3601
S':'
asbag49
(g70
g51
NtRp3602
(dp3603
g54
(dp3604
sg63
g3590
sg56
(lp3605
g49
(g50
g51
NtRp3606
(dp3607
g54
(dp3608
g62
I3
ssg63
g3602
sg56
(lp3609
S''
asbasbasbag49
(g65
g51
NtRp3610
(dp3611
g54
(dp3612
sg63
g3566
sg56
(lp3613
g49
(g70
g51
NtRp3614
(dp3615
g54
(dp3616
g74
g75
ssg63
g3610
sg56
(lp3617
g328
asbag49
(g70
g51
NtRp3618
(dp3619
g54
(dp3620
g81
g82
ssg63
g3610
sg56
(lp3621
S':'
asbag49
(g70
g51
NtRp3622
(dp3623
g54
(dp3624
sg63
g3610
sg56
(lp3625
g49
(g50
g51
NtRp3626
(dp3627
g54
(dp3628
g62
I3
ssg63
g3622
sg56
(lp3629
S''
asbasbasbag49
(g65
g51
NtRp3630
(dp3631
g54
(dp3632
sg63
g3566
sg56
(lp3633
g49
(g70
g51
NtRp3634
(dp3635
g54
(dp3636
g74
g75
ssg63
g3630
sg56
(lp3637
g349
asbag49
(g70
g51
NtRp3638
(dp3639
g54
(dp3640
g81
g82
ssg63
g3630
sg56
(lp3641
S':'
asbag49
(g70
g51
NtRp3642
(dp3643
g54
(dp3644
sg63
g3630
sg56
(lp3645
g49
(g50
g51
NtRp3646
(dp3647
g54
(dp3648
g62
I3
ssg63
g3642
sg56
(lp3649
S''
asbasbasbag49
(g65
g51
NtRp3650
(dp3651
g54
(dp3652
sg63
g3566
sg56
(lp3653
g49
(g70
g51
NtRp3654
(dp3655
g54
(dp3656
g74
g75
ssg63
g3650
sg56
(lp3657
g370
asbag49
(g70
g51
NtRp3658
(dp3659
g54
(dp3660
g81
g82
ssg63
g3650
sg56
(lp3661
S':'
asbag49
(g70
g51
NtRp3662
(dp3663
g54
(dp3664
sg63
g3650
sg56
(lp3665
g49
(g50
g51
NtRp3666
(dp3667
g54
(dp3668
g62
I3
ssg63
g3662
sg56
(lp3669
S'/'
asbasbasbag49
(g65
g51
NtRp3670
(dp3671
g54
(dp3672
sg63
g3566
sg56
(lp3673
g49
(g70
g51
NtRp3674
(dp3675
g54
(dp3676
g74
g75
ssg63
g3670
sg56
(lp3677
g391
asbag49
(g70
g51
NtRp3678
(dp3679
g54
(dp3680
g81
g82
ssg63
g3670
sg56
(lp3681
S':'
asbag49
(g70
g51
NtRp3682
(dp3683
g54
(dp3684
sg63
g3670
sg56
(lp3685
g49
(g50
g51
NtRp3686
(dp3687
g54
(dp3688
g62
I3
ssg63
g3682
sg56
(lp3689
S''
asbasbasbag49
(g65
g51
NtRp3690
(dp3691
g54
(dp3692
sg63
g3566
sg56
(lp3693
g49
(g70
g51
NtRp3694
(dp3695
g54
(dp3696
g74
g75
ssg63
g3690
sg56
(lp3697
g412
asbag49
(g70
g51
NtRp3698
(dp3699
g54
(dp3700
g81
g82
ssg63
g3690
sg56
(lp3701
S':'
asbag49
(g70
g51
NtRp3702
(dp3703
g54
(dp3704
sg63
g3690
sg56
(lp3705
g49
(g50
g51
NtRp3706
(dp3707
g54
(dp3708
g62
I3
ssg63
g3702
sg56
(lp3709
S''
asbasbasbasbasbasbasbasbasbasbasbag49
(g65
g51
NtRp3710
(dp3711
g54
(dp3712
sg63
g3496
sg56
(lp3713
g49
(g70
g51
NtRp3714
(dp3715
g54
(dp3716
g74
g75
ssg63
g3710
sg56
(lp3717
S'delimiters'
p3718
asbag49
(g70
g51
NtRp3719
(dp3720
g54
(dp3721
g81
g82
ssg63
g3710
sg56
(lp3722
S':'
asbag49
(g70
g51
NtRp3723
(dp3724
g54
(dp3725
sg63
g3710
sg56
(lp3726
g49
(g50
g51
NtRp3727
(dp3728
g54
(dp3729
g62
I5
ssg63
g3723
sg56
(lp3730
g49
(g58
g51
NtRp3731
(dp3732
g54
(dp3733
g62
I4
ssg63
Nsg56
(lp3734
g49
(g65
g51
NtRp3735
(dp3736
g54
(dp3737
sg63
g3731
sg56
(lp3738
g49
(g70
g51
NtRp3739
(dp3740
g54
(dp3741
sg63
g3735
sg56
(lp3742
g49
(g50
g51
NtRp3743
(dp3744
g54
(dp3745
g62
I4
ssg63
g3739
sg56
(lp3746
S'{{'
p3747
asbasbasbag49
(g65
g51
NtRp3748
(dp3749
g54
(dp3750
sg63
g3731
sg56
(lp3751
g49
(g70
g51
NtRp3752
(dp3753
g54
(dp3754
sg63
g3748
sg56
(lp3755
g49
(g50
g51
NtRp3756
(dp3757
g54
(dp3758
g62
I4
ssg63
g3752
sg56
(lp3759
S'}}'
p3760
asbasbasbasbasbasbasbag49
(g65
g51
NtRp3761
(dp3762
g54
(dp3763
sg63
g3496
sg56
(lp3764
g49
(g70
g51
NtRp3765
(dp3766
g54
(dp3767
g74
g75
ssg63
g3761
sg56
(lp3768
S'files'
p3769
asbag49
(g70
g51
NtRp3770
(dp3771
g54
(dp3772
g81
g82
ssg63
g3761
sg56
(lp3773
S':'
asbag49
(g70
g51
NtRp3774
(dp3775
g54
(dp3776
sg63
g3761
sg56
(lp3777
g49
(g50
g51
NtRp3778
(dp3779
g54
(dp3780
g62
I5
ssg63
g3774
sg56
(lp3781
g49
(g58
g51
NtRp3782
(dp3783
g54
(dp3784
g62
I4
ssg63
Nsg56
(lp3785
sbasbasbasbag49
(g65
g51
NtRp3786
(dp3787
g54
(dp3788
sg63
g3496
sg56
(lp3789
g49
(g70
g51
NtRp3790
(dp3791
g54
(dp3792
g74
g75
ssg63
g3786
sg56
(lp3793
S'flash'
p3794
asbag49
(g70
g51
NtRp3795
(dp3796
g54
(dp3797
g81
g82
ssg63
g3786
sg56
(lp3798
S':'
asbag49
(g70
g51
NtRp3799
(dp3800
g54
(dp3801
sg63
g3786
sg56
(lp3802
g49
(g50
g51
NtRp3803
(dp3804
g54
(dp3805
g62
I5
ssg63
g3799
sg56
(lp3806
S''
asbasbasbag49
(g65
g51
NtRp3807
(dp3808
g54
(dp3809
sg63
g3496
sg56
(lp3810
g49
(g70
g51
NtRp3811
(dp3812
g54
(dp3813
g74
g75
ssg63
g3807
sg56
(lp3814
S'generic_patterns'
p3815
asbag49
(g70
g51
NtRp3816
(dp3817
g54
(dp3818
g81
g82
ssg63
g3807
sg56
(lp3819
S':'
asbag49
(g70
g51
NtRp3820
(dp3821
g54
(dp3822
sg63
g3807
sg56
(lp3823
g49
(g50
g51
NtRp3824
(dp3825
g54
(dp3826
g62
I5
ssg63
g3820
sg56
(lp3827
g49
(g58
g51
NtRp3828
(dp3829
g54
(dp3830
g62
I4
ssg63
Nsg56
(lp3831
g49
(g65
g51
NtRp3832
(dp3833
g54
(dp3834
sg63
g3828
sg56
(lp3835
g49
(g70
g51
NtRp3836
(dp3837
g54
(dp3838
sg63
g3832
sg56
(lp3839
g49
(g50
g51
NtRp3840
(dp3841
g54
(dp3842
g62
I4
ssg63
g3836
sg56
(lp3843
S'*'
asbasbasbasbasbasbasbag49
(g65
g51
NtRp3844
(dp3845
g54
(dp3846
sg63
g3496
sg56
(lp3847
g49
(g70
g51
NtRp3848
(dp3849
g54
(dp3850
g74
g75
ssg63
g3844
sg56
(lp3851
S'google_analytics_id'
p3852
asbag49
(g70
g51
NtRp3853
(dp3854
g54
(dp3855
g81
g82
ssg63
g3844
sg56
(lp3856
S':'
asbag49
(g70
g51
NtRp3857
(dp3858
g54
(dp3859
sg63
g3844
sg56
(lp3860
g49
(g50
g51
NtRp3861
(dp3862
g54
(dp3863
g62
I5
ssg63
g3857
sg56
(lp3864
S'None'
p3865
asbasbasbag49
(g65
g51
NtRp3866
(dp3867
g54
(dp3868
sg63
g3496
sg56
(lp3869
g49
(g70
g51
NtRp3870
(dp3871
g54
(dp3872
g74
g75
ssg63
g3866
sg56
(lp3873
S'headers'
p3874
asbag49
(g70
g51
NtRp3875
(dp3876
g54
(dp3877
g81
g82
ssg63
g3866
sg56
(lp3878
S':'
asbag49
(g70
g51
NtRp3879
(dp3880
g54
(dp3881
sg63
g3866
sg56
(lp3882
g49
(g50
g51
NtRp3883
(dp3884
g54
(dp3885
g62
I5
ssg63
g3879
sg56
(lp3886
g49
(g58
g51
NtRp3887
(dp3888
g54
(dp3889
g62
I4
ssg63
Nsg56
(lp3890
g49
(g65
g51
NtRp3891
(dp3892
g54
(dp3893
sg63
g3887
sg56
(lp3894
g49
(g70
g51
NtRp3895
(dp3896
g54
(dp3897
g74
g75
ssg63
g3891
sg56
(lp3898
S'X-Powered-By'
p3899
asbag49
(g70
g51
NtRp3900
(dp3901
g54
(dp3902
g81
g82
ssg63
g3891
sg56
(lp3903
S':'
asbag49
(g70
g51
NtRp3904
(dp3905
g54
(dp3906
sg63
g3891
sg56
(lp3907
g49
(g50
g51
NtRp3908
(dp3909
g54
(dp3910
g62
I4
ssg63
g3904
sg56
(lp3911
S'web2py'
p3912
asbasbasbasbasbasbasbag49
(g65
g51
NtRp3913
(dp3914
g54
(dp3915
sg63
g3496
sg56
(lp3916
g49
(g70
g51
NtRp3917
(dp3918
g54
(dp3919
g74
g75
ssg63
g3913
sg56
(lp3920
S'logo'
p3921
asbag49
(g70
g51
NtRp3922
(dp3923
g54
(dp3924
g81
g82
ssg63
g3913
sg56
(lp3925
S':'
asbag49
(g70
g51
NtRp3926
(dp3927
g54
(dp3928
sg63
g3913
sg56
(lp3929
g49
(g50
g51
NtRp3930
(dp3931
g54
(dp3932
g62
I5
ssg63
g3926
sg56
(lp3933
g49
(cgluon.html
A
p3934
g51
NtRp3935
(dp3936
g54
(dp3937
S'_class'
p3938
S'brand'
p3939
sS'_href'
p3940
S'http://www.web2py.com/'
p3941
ssg63
Nsg56
(lp3942
g49
(cgluon.html
B
p3943
g51
NtRp3944
(dp3945
g54
(dp3946
sg63
g3935
sg56
(lp3947
S'web'
p3948
ag49
(cgluon.html
SPAN
p3949
g51
NtRp3950
(dp3951
g54
(dp3952
sg63
g3944
sg56
(lp3953
I2
asbaS'py'
p3954
asbacgluon.html
XML_unpickle
p3955
(S's\r\x00\x00\x00&trade;&nbsp;'
tRp3956
asbasbasbasbag49
(g65
g51
NtRp3957
(dp3958
g54
(dp3959
sg63
g3496
sg56
(lp3960
g49
(g70
g51
NtRp3961
(dp3962
g54
(dp3963
g74
g75
ssg63
g3957
sg56
(lp3964
S'menu'
p3965
asbag49
(g70
g51
NtRp3966
(dp3967
g54
(dp3968
g81
g82
ssg63
g3957
sg56
(lp3969
S':'
asbag49
(g70
g51
NtRp3970
(dp3971
g54
(dp3972
sg63
g3957
sg56
(lp3973
g49
(g50
g51
NtRp3974
(dp3975
g54
(dp3976
g62
I5
ssg63
g3970
sg56
(lp3977
g49
(g58
g51
NtRp3978
(dp3979
g54
(dp3980
g62
I4
ssg63
Nsg56
(lp3981
g49
(g65
g51
NtRp3982
(dp3983
g54
(dp3984
sg63
g3978
sg56
(lp3985
g49
(g70
g51
NtRp3986
(dp3987
g54
(dp3988
sg63
g3982
sg56
(lp3989
g49
(g50
g51
NtRp3990
(dp3991
g54
(dp3992
g62
I4
ssg63
g3986
sg56
(lp3993
g49
(g58
g51
NtRp3994
(dp3995
g54
(dp3996
g62
I3
ssg63
Nsg56
(lp3997
g49
(g65
g51
NtRp3998
(dp3999
g54
(dp4000
sg63
g3994
sg56
(lp4001
g49
(g70
g51
NtRp4002
(dp4003
g54
(dp4004
sg63
g3998
sg56
(lp4005
g49
(g50
g51
NtRp4006
(dp4007
g54
(dp4008
g62
I3
ssg63
g4002
sg56
(lp4009
cgluon.languages
lazyT_unpickle
p4010
(S't\x04\x00\x00\x00Home'
tRp4011
asbasbasbag49
(g65
g51
NtRp4012
(dp4013
g54
(dp4014
sg63
g3994
sg56
(lp4015
g49
(g70
g51
NtRp4016
(dp4017
g54
(dp4018
sg63
g4012
sg56
(lp4019
g49
(g50
g51
NtRp4020
(dp4021
g54
(dp4022
g62
I3
ssg63
g4016
sg56
(lp4023
g92
asbasbasbag49
(g65
g51
NtRp4024
(dp4025
g54
(dp4026
sg63
g3994
sg56
(lp4027
g49
(g70
g51
NtRp4028
(dp4029
g54
(dp4030
sg63
g4024
sg56
(lp4031
g49
(g50
g51
NtRp4032
(dp4033
g54
(dp4034
g62
I3
ssg63
g4028
sg56
(lp4035
S'/MR/default/index'
p4036
asbasbasbag49
(g65
g51
NtRp4037
(dp4038
g54
(dp4039
sg63
g3994
sg56
(lp4040
g49
(g70
g51
NtRp4041
(dp4042
g54
(dp4043
sg63
g4037
sg56
(lp4044
g49
(g50
g51
NtRp4045
(dp4046
g54
(dp4047
g62
I3
ssg63
g4041
sg56
(lp4048
g49
(g58
g51
NtRp4049
(dp4050
g54
(dp4051
g62
I2
ssg63
Nsg56
(lp4052
sbasbasbasbasbasbasbasbag49
(g65
g51
NtRp4053
(dp4054
g54
(dp4055
sg63
g3978
sg56
(lp4056
g49
(g70
g51
NtRp4057
(dp4058
g54
(dp4059
sg63
g4053
sg56
(lp4060
g49
(g50
g51
NtRp4061
(dp4062
g54
(dp4063
g62
I4
ssg63
g4057
sg56
(lp4064
g49
(g58
g51
NtRp4065
(dp4066
g54
(dp4067
g62
I3
ssg63
Nsg56
(lp4068
g49
(g65
g51
NtRp4069
(dp4070
g54
(dp4071
sg63
g4065
sg56
(lp4072
g49
(g70
g51
NtRp4073
(dp4074
g54
(dp4075
sg63
g4069
sg56
(lp4076
g49
(g50
g51
NtRp4077
(dp4078
g54
(dp4079
g62
I3
ssg63
g4073
sg56
(lp4080
g49
(g3949
g51
NtRp4081
(dp4082
g54
(dp4083
g3938
S'highlighted'
p4084
ssg63
Nsg56
(lp4085
g3912
asbasbasbasbag49
(g65
g51
NtRp4086
(dp4087
g54
(dp4088
sg63
g4065
sg56
(lp4089
g49
(g70
g51
NtRp4090
(dp4091
g54
(dp4092
sg63
g4086
sg56
(lp4093
g49
(g50
g51
NtRp4094
(dp4095
g54
(dp4096
g62
I3
ssg63
g4090
sg56
(lp4097
g92
asbasbasbag49
(g65
g51
NtRp4098
(dp4099
g54
(dp4100
sg63
g4065
sg56
(lp4101
g49
(g70
g51
NtRp4102
(dp4103
g54
(dp4104
sg63
g4098
sg56
(lp4105
g49
(g50
g51
NtRp4106
(dp4107
g54
(dp4108
g62
I3
ssg63
g4102
sg56
(lp4109
S'http://web2py.com'
p4110
asbasbasbag49
(g65
g51
NtRp4111
(dp4112
g54
(dp4113
sg63
g4065
sg56
(lp4114
g49
(g70
g51
NtRp4115
(dp4116
g54
(dp4117
sg63
g4111
sg56
(lp4118
g49
(g50
g51
NtRp4119
(dp4120
g54
(dp4121
g62
I3
ssg63
g4115
sg56
(lp4122
g49
(g58
g51
NtRp4123
(dp4124
g54
(dp4125
g62
I2
ssg63
Nsg56
(lp4126
g49
(g65
g51
NtRp4127
(dp4128
g54
(dp4129
sg63
g4123
sg56
(lp4130
g49
(g70
g51
NtRp4131
(dp4132
g54
(dp4133
sg63
g4127
sg56
(lp4134
g49
(g50
g51
NtRp4135
(dp4136
g54
(dp4137
g62
I2
ssg63
g4131
sg56
(lp4138
g49
(g58
g51
NtRp4139
(dp4140
g54
(dp4141
g62
I1
ssg63
Nsg56
(lp4142
g49
(g65
g51
NtRp4143
(dp4144
g54
(dp4145
sg63
g4139
sg56
(lp4146
g49
(g70
g51
NtRp4147
(dp4148
g54
(dp4149
sg63
g4143
sg56
(lp4150
g49
(g50
g51
NtRp4151
(dp4152
g54
(dp4153
g62
I1
ssg63
g4147
sg56
(lp4154
g4010
(S's\x08\x00\x00\x00My Sites'
tRp4155
asbasbasbag49
(g65
g51
NtRp4156
(dp4157
g54
(dp4158
sg63
g4139
sg56
(lp4159
g49
(g70
g51
NtRp4160
(dp4161
g54
(dp4162
sg63
g4156
sg56
(lp4163
g49
(g50
g51
NtRp4164
(dp4165
g54
(dp4166
g62
I1
ssg63
g4160
sg56
(lp4167
I00
asbasbasbag49
(g65
g51
NtRp4168
(dp4169
g54
(dp4170
sg63
g4139
sg56
(lp4171
g49
(g70
g51
NtRp4172
(dp4173
g54
(dp4174
sg63
g4168
sg56
(lp4175
g49
(g50
g51
NtRp4176
(dp4177
g54
(dp4178
g62
I1
ssg63
g4172
sg56
(lp4179
S'/admin/default/site'
p4180
asbasbasbasbasbasbasbag49
(g65
g51
NtRp4181
(dp4182
g54
(dp4183
sg63
g4123
sg56
(lp4184
g49
(g70
g51
NtRp4185
(dp4186
g54
(dp4187
sg63
g4181
sg56
(lp4188
g49
(g50
g51
NtRp4189
(dp4190
g54
(dp4191
g62
I2
ssg63
g4185
sg56
(lp4192
g49
(g58
g51
NtRp4193
(dp4194
g54
(dp4195
g62
I1
ssg63
Nsg56
(lp4196
g49
(g65
g51
NtRp4197
(dp4198
g54
(dp4199
sg63
g4193
sg56
(lp4200
g49
(g70
g51
NtRp4201
(dp4202
g54
(dp4203
sg63
g4197
sg56
(lp4204
g49
(g50
g51
NtRp4205
(dp4206
g54
(dp4207
g62
I1
ssg63
g4201
sg56
(lp4208
g4010
(S's\x08\x00\x00\x00This App'
tRp4209
asbasbasbag49
(g65
g51
NtRp4210
(dp4211
g54
(dp4212
sg63
g4193
sg56
(lp4213
g49
(g70
g51
NtRp4214
(dp4215
g54
(dp4216
sg63
g4210
sg56
(lp4217
g49
(g50
g51
NtRp4218
(dp4219
g54
(dp4220
g62
I1
ssg63
g4214
sg56
(lp4221
I00
asbasbasbag49
(g65
g51
NtRp4222
(dp4223
g54
(dp4224
sg63
g4193
sg56
(lp4225
g49
(g70
g51
NtRp4226
(dp4227
g54
(dp4228
sg63
g4222
sg56
(lp4229
g49
(g50
g51
NtRp4230
(dp4231
g54
(dp4232
g62
I1
ssg63
g4226
sg56
(lp4233
S'/admin/default/design/MR'
p4234
asbasbasbag49
(g65
g51
NtRp4235
(dp4236
g54
(dp4237
sg63
g4193
sg56
(lp4238
g49
(g70
g51
NtRp4239
(dp4240
g54
(dp4241
sg63
g4235
sg56
(lp4242
g49
(g50
g51
NtRp4243
(dp4244
g54
(dp4245
g62
I1
ssg63
g4239
sg56
(lp4246
(lp4247
(g4010
(S's\x06\x00\x00\x00\xe6\x8e\xa7\xe4\xbb\xb6'
tRp4248
I00
S'/admin/default/edit/MR/controllers/default.py'
tp4249
a(g4010
(S's\x06\x00\x00\x00\xe8\xa6\x96\xe5\x9c\x96'
tRp4250
I00
S'/admin/default/edit/MR/views/default/mobile_user_register.html'
tp4251
a(g4010
(S's\x0c\x00\x00\x00\xe7\xb6\xb2\xe9\xa0\x81\xe9\x85\x8d\xe7\xbd\xae'
tRp4252
I00
S'/admin/default/edit/MR/views/layout.html'
tp4253
a(g4010
(S's\x0f\x00\x00\x00\xe7\xb6\xb2\xe9\xa0\x81\xe9\xa2\xa8\xe6\xa0\xbc\xe6\xaa\x94'
tRp4254
I00
S'/admin/default/edit/MR/static/css/web2py.css'
tp4255
a(g4010
(S's\x0f\x00\x00\x00\xe8\xb3\x87\xe6\x96\x99\xe5\xba\xab\xe6\xa8\xa1\xe7\xb5\x84'
tRp4256
I00
S'/admin/default/edit/MR/models/db.py'
tp4257
a(g4010
(S's\x12\x00\x00\x00\xe9\x81\xb8\xe5\x96\xae\xe6\xa8\xa1\xe7\xb5\x84(menu)'
tRp4258
I00
S'/admin/default/edit/MR/models/menu.py'
tp4259
a(g4010
(S's\t\x00\x00\x00\xe8\xb3\x87\xe6\x96\x99\xe5\xba\xab'
tRp4260
I00
S'/MR/appadmin/index'
tp4261
a(g4010
(S't\x06\x00\x00\x00Errors'
tRp4262
I00
S'/admin/default/errors/MR'
tp4263
a(g4010
(S's\x06\x00\x00\x00\xe9\x97\x9c\xe6\x96\xbc'
tRp4264
I00
S'/admin/default/about/MR'
tp4265
aasbasbasbasbasbasbasbag49
(g65
g51
NtRp4266
(dp4267
g54
(dp4268
sg63
g4123
sg56
(lp4269
g49
(g70
g51
NtRp4270
(dp4271
g54
(dp4272
sg63
g4266
sg56
(lp4273
g49
(g50
g51
NtRp4274
(dp4275
g54
(dp4276
g62
I2
ssg63
g4270
sg56
(lp4277
g49
(g58
g51
NtRp4278
(dp4279
g54
(dp4280
g62
I1
ssg63
Nsg56
(lp4281
g49
(g65
g51
NtRp4282
(dp4283
g54
(dp4284
sg63
g4278
sg56
(lp4285
g49
(g70
g51
NtRp4286
(dp4287
g54
(dp4288
sg63
g4282
sg56
(lp4289
g49
(g50
g51
NtRp4290
(dp4291
g54
(dp4292
g62
I1
ssg63
g4286
sg56
(lp4293
S'web2py.com'
p4294
asbasbasbag49
(g65
g51
NtRp4295
(dp4296
g54
(dp4297
sg63
g4278
sg56
(lp4298
g49
(g70
g51
NtRp4299
(dp4300
g54
(dp4301
sg63
g4295
sg56
(lp4302
g49
(g50
g51
NtRp4303
(dp4304
g54
(dp4305
g62
I1
ssg63
g4299
sg56
(lp4306
I00
asbasbasbag49
(g65
g51
NtRp4307
(dp4308
g54
(dp4309
sg63
g4278
sg56
(lp4310
g49
(g70
g51
NtRp4311
(dp4312
g54
(dp4313
sg63
g4307
sg56
(lp4314
g49
(g50
g51
NtRp4315
(dp4316
g54
(dp4317
g62
I1
ssg63
g4311
sg56
(lp4318
S'http://www.web2py.com'
p4319
asbasbasbag49
(g65
g51
NtRp4320
(dp4321
g54
(dp4322
sg63
g4278
sg56
(lp4323
g49
(g70
g51
NtRp4324
(dp4325
g54
(dp4326
sg63
g4320
sg56
(lp4327
g49
(g50
g51
NtRp4328
(dp4329
g54
(dp4330
g62
I1
ssg63
g4324
sg56
(lp4331
(lp4332
(g4010
(S't\x08\x00\x00\x00Download'
tRp4333
I00
S'http://www.web2py.com/examples/default/download'
p4334
tp4335
a(g4010
(S't\x07\x00\x00\x00Support'
tRp4336
I00
S'http://www.web2py.com/examples/default/support'
p4337
tp4338
a(g4010
(S't\x04\x00\x00\x00Demo'
tRp4339
I00
S'http://web2py.com/demo_admin'
p4340
tp4341
a(g4010
(S's\x0e\x00\x00\x00Quick Examples'
tRp4342
I00
S'http://web2py.com/examples/default/examples'
p4343
tp4344
a(g4010
(S't\x03\x00\x00\x00FAQ'
tRp4345
I00
S'http://web2py.com/AlterEgo'
p4346
tp4347
a(g4010
(S't\x06\x00\x00\x00Videos'
tRp4348
I00
S'http://www.web2py.com/examples/default/videos/'
p4349
tp4350
a(g4010
(S's\x11\x00\x00\x00Free Applications'
tRp4351
I00
S'http://web2py.com/appliances'
p4352
tp4353
a(g4010
(S't\x07\x00\x00\x00Plugins'
tRp4354
I00
S'http://web2py.com/plugins'
p4355
tp4356
a(g4010
(S't\x07\x00\x00\x00Layouts'
tRp4357
I00
S'http://web2py.com/layouts'
p4358
tp4359
a(g4010
(S't\x07\x00\x00\x00Recipes'
tRp4360
I00
S'http://web2pyslices.com/'
p4361
tp4362
a(g4010
(S't\x08\x00\x00\x00Semantic'
tRp4363
I00
S'http://web2py.com/semantic'
p4364
tp4365
aasbasbasbasbasbasbasbag49
(g65
g51
NtRp4366
(dp4367
g54
(dp4368
sg63
g4123
sg56
(lp4369
g49
(g70
g51
NtRp4370
(dp4371
g54
(dp4372
sg63
g4366
sg56
(lp4373
g49
(g50
g51
NtRp4374
(dp4375
g54
(dp4376
g62
I2
ssg63
g4370
sg56
(lp4377
g49
(g58
g51
NtRp4378
(dp4379
g54
(dp4380
g62
I1
ssg63
Nsg56
(lp4381
g49
(g65
g51
NtRp4382
(dp4383
g54
(dp4384
sg63
g4378
sg56
(lp4385
g49
(g70
g51
NtRp4386
(dp4387
g54
(dp4388
sg63
g4382
sg56
(lp4389
g49
(g50
g51
NtRp4390
(dp4391
g54
(dp4392
g62
I1
ssg63
g4386
sg56
(lp4393
g4010
(S't\r\x00\x00\x00Documentation'
tRp4394
asbasbasbag49
(g65
g51
NtRp4395
(dp4396
g54
(dp4397
sg63
g4378
sg56
(lp4398
g49
(g70
g51
NtRp4399
(dp4400
g54
(dp4401
sg63
g4395
sg56
(lp4402
g49
(g50
g51
NtRp4403
(dp4404
g54
(dp4405
g62
I1
ssg63
g4399
sg56
(lp4406
I00
asbasbasbag49
(g65
g51
NtRp4407
(dp4408
g54
(dp4409
sg63
g4378
sg56
(lp4410
g49
(g70
g51
NtRp4411
(dp4412
g54
(dp4413
sg63
g4407
sg56
(lp4414
g49
(g50
g51
NtRp4415
(dp4416
g54
(dp4417
g62
I1
ssg63
g4411
sg56
(lp4418
S'http://www.web2py.com/book'
p4419
asbasbasbag49
(g65
g51
NtRp4420
(dp4421
g54
(dp4422
sg63
g4378
sg56
(lp4423
g49
(g70
g51
NtRp4424
(dp4425
g54
(dp4426
sg63
g4420
sg56
(lp4427
g49
(g50
g51
NtRp4428
(dp4429
g54
(dp4430
g62
I1
ssg63
g4424
sg56
(lp4431
(lp4432
(g4010
(S't\x07\x00\x00\x00Preface'
tRp4433
I00
S'http://www.web2py.com/book/default/chapter/00'
p4434
tp4435
a(g4010
(S't\x0c\x00\x00\x00Introduction'
tRp4436
I00
S'http://www.web2py.com/book/default/chapter/01'
p4437
tp4438
a(g4010
(S't\x06\x00\x00\x00Python'
tRp4439
I00
S'http://www.web2py.com/book/default/chapter/02'
p4440
tp4441
a(g4010
(S't\x08\x00\x00\x00Overview'
tRp4442
I00
S'http://www.web2py.com/book/default/chapter/03'
p4443
tp4444
a(g4010
(S's\x08\x00\x00\x00The Core'
tRp4445
I00
S'http://www.web2py.com/book/default/chapter/04'
p4446
tp4447
a(g4010
(S's\t\x00\x00\x00The Views'
tRp4448
I00
S'http://www.web2py.com/book/default/chapter/05'
p4449
tp4450
a(g4010
(S's\t\x00\x00\x00\xe8\xb3\x87\xe6\x96\x99\xe5\xba\xab'
tRp4451
I00
S'http://www.web2py.com/book/default/chapter/06'
p4452
tp4453
a(g4010
(S's\x14\x00\x00\x00Forms and Validators'
tRp4454
I00
S'http://www.web2py.com/book/default/chapter/07'
p4455
tp4456
a(g4010
(S's\r\x00\x00\x00Email and SMS'
tRp4457
I00
S'http://www.web2py.com/book/default/chapter/08'
p4458
tp4459
a(g4010
(S's\x0e\x00\x00\x00Access Control'
tRp4460
I00
S'http://www.web2py.com/book/default/chapter/09'
p4461
tp4462
a(g4010
(S't\x08\x00\x00\x00Services'
tRp4463
I00
S'http://www.web2py.com/book/default/chapter/10'
p4464
tp4465
a(g4010
(S's\x0c\x00\x00\x00Ajax Recipes'
tRp4466
I00
S'http://www.web2py.com/book/default/chapter/11'
p4467
tp4468
a(g4010
(S's\x16\x00\x00\x00Components and Plugins'
tRp4469
I00
S'http://www.web2py.com/book/default/chapter/12'
p4470
tp4471
a(g4010
(S's\x12\x00\x00\x00Deployment Recipes'
tRp4472
I00
S'http://www.web2py.com/book/default/chapter/13'
p4473
tp4474
a(g4010
(S's\r\x00\x00\x00Other Recipes'
tRp4475
I00
S'http://www.web2py.com/book/default/chapter/14'
p4476
tp4477
a(g4010
(S's\r\x00\x00\x00Buy this book'
tRp4478
I00
S'http://stores.lulu.com/web2py'
p4479
tp4480
aasbasbasbasbasbasbasbag49
(g65
g51
NtRp4481
(dp4482
g54
(dp4483
sg63
g4123
sg56
(lp4484
g49
(g70
g51
NtRp4485
(dp4486
g54
(dp4487
sg63
g4481
sg56
(lp4488
g49
(g50
g51
NtRp4489
(dp4490
g54
(dp4491
g62
I2
ssg63
g4485
sg56
(lp4492
g49
(g58
g51
NtRp4493
(dp4494
g54
(dp4495
g62
I1
ssg63
Nsg56
(lp4496
g49
(g65
g51
NtRp4497
(dp4498
g54
(dp4499
sg63
g4493
sg56
(lp4500
g49
(g70
g51
NtRp4501
(dp4502
g54
(dp4503
sg63
g4497
sg56
(lp4504
g49
(g50
g51
NtRp4505
(dp4506
g54
(dp4507
g62
I1
ssg63
g4501
sg56
(lp4508
g4010
(S't\t\x00\x00\x00Community'
tRp4509
asbasbasbag49
(g65
g51
NtRp4510
(dp4511
g54
(dp4512
sg63
g4493
sg56
(lp4513
g49
(g70
g51
NtRp4514
(dp4515
g54
(dp4516
sg63
g4510
sg56
(lp4517
g49
(g50
g51
NtRp4518
(dp4519
g54
(dp4520
g62
I1
ssg63
g4514
sg56
(lp4521
I00
asbasbasbag49
(g65
g51
NtRp4522
(dp4523
g54
(dp4524
sg63
g4493
sg56
(lp4525
g49
(g70
g51
NtRp4526
(dp4527
g54
(dp4528
sg63
g4522
sg56
(lp4529
g49
(g50
g51
NtRp4530
(dp4531
g54
(dp4532
g62
I1
ssg63
g4526
sg56
(lp4533
Nasbasbasbag49
(g65
g51
NtRp4534
(dp4535
g54
(dp4536
sg63
g4493
sg56
(lp4537
g49
(g70
g51
NtRp4538
(dp4539
g54
(dp4540
sg63
g4534
sg56
(lp4541
g49
(g50
g51
NtRp4542
(dp4543
g54
(dp4544
g62
I1
ssg63
g4538
sg56
(lp4545
(lp4546
(g4010
(S't\x06\x00\x00\x00Groups'
tRp4547
I00
S'http://www.web2py.com/examples/default/usergroups'
p4548
tp4549
a(g4010
(S't\x07\x00\x00\x00Twitter'
tRp4550
I00
S'http://twitter.com/web2py'
p4551
tp4552
a(g4010
(S's\t\x00\x00\x00Live Chat'
tRp4553
I00
S'http://webchat.freenode.net/?channels=web2py'
p4554
tp4555
aasbasbasbasbasbasbasbag49
(g65
g51
NtRp4556
(dp4557
g54
(dp4558
sg63
g4123
sg56
(lp4559
g49
(g70
g51
NtRp4560
(dp4561
g54
(dp4562
sg63
g4556
sg56
(lp4563
g49
(g50
g51
NtRp4564
(dp4565
g54
(dp4566
g62
I2
ssg63
g4560
sg56
(lp4567
g49
(g58
g51
NtRp4568
(dp4569
g54
(dp4570
g62
I1
ssg63
Nsg56
(lp4571
g49
(g65
g51
NtRp4572
(dp4573
g54
(dp4574
sg63
g4568
sg56
(lp4575
g49
(g70
g51
NtRp4576
(dp4577
g54
(dp4578
sg63
g4572
sg56
(lp4579
g49
(g50
g51
NtRp4580
(dp4581
g54
(dp4582
g62
I1
ssg63
g4576
sg56
(lp4583
g4010
(S't\x07\x00\x00\x00Plugins'
tRp4584
asbasbasbag49
(g65
g51
NtRp4585
(dp4586
g54
(dp4587
sg63
g4568
sg56
(lp4588
g49
(g70
g51
NtRp4589
(dp4590
g54
(dp4591
sg63
g4585
sg56
(lp4592
g49
(g50
g51
NtRp4593
(dp4594
g54
(dp4595
g62
I1
ssg63
g4589
sg56
(lp4596
I00
asbasbasbag49
(g65
g51
NtRp4597
(dp4598
g54
(dp4599
sg63
g4568
sg56
(lp4600
g49
(g70
g51
NtRp4601
(dp4602
g54
(dp4603
sg63
g4597
sg56
(lp4604
g49
(g50
g51
NtRp4605
(dp4606
g54
(dp4607
g62
I1
ssg63
g4601
sg56
(lp4608
Nasbasbasbag49
(g65
g51
NtRp4609
(dp4610
g54
(dp4611
sg63
g4568
sg56
(lp4612
g49
(g70
g51
NtRp4613
(dp4614
g54
(dp4615
sg63
g4609
sg56
(lp4616
g49
(g50
g51
NtRp4617
(dp4618
g54
(dp4619
g62
I1
ssg63
g4613
sg56
(lp4620
(lp4621
(S'plugin_wiki'
p4622
I00
S'http://web2py.com/examples/default/download'
p4623
tp4624
a(g4010
(S's\r\x00\x00\x00Other Plugins'
tRp4625
I00
g4355
tp4626
a(g4010
(S's\x0e\x00\x00\x00Layout Plugins'
tRp4627
I00
g4358
tp4628
aasbasbasbasbasbasbasbasbasbasbasbasbasbasbasbasbasbasbasbag49
(g65
g51
NtRp4629
(dp4630
g54
(dp4631
sg63
g3496
sg56
(lp4632
g49
(g70
g51
NtRp4633
(dp4634
g54
(dp4635
g74
g75
ssg63
g4629
sg56
(lp4636
S'meta'
p4637
asbag49
(g70
g51
NtRp4638
(dp4639
g54
(dp4640
g81
g82
ssg63
g4629
sg56
(lp4641
S':'
asbag49
(g70
g51
NtRp4642
(dp4643
g54
(dp4644
sg63
g4629
sg56
(lp4645
g49
(g50
g51
NtRp4646
(dp4647
g54
(dp4648
g62
I5
ssg63
g4642
sg56
(lp4649
g49
(g58
g51
NtRp4650
(dp4651
g54
(dp4652
g62
I4
ssg63
Nsg56
(lp4653
g49
(g65
g51
NtRp4654
(dp4655
g54
(dp4656
sg63
g4650
sg56
(lp4657
g49
(g70
g51
NtRp4658
(dp4659
g54
(dp4660
g74
g75
ssg63
g4654
sg56
(lp4661
S'author'
p4662
asbag49
(g70
g51
NtRp4663
(dp4664
g54
(dp4665
g81
g82
ssg63
g4654
sg56
(lp4666
S':'
asbag49
(g70
g51
NtRp4667
(dp4668
g54
(dp4669
sg63
g4654
sg56
(lp4670
g49
(g50
g51
NtRp4671
(dp4672
g54
(dp4673
g62
I4
ssg63
g4667
sg56
(lp4674
S'Your Name <you@example.com>'
p4675
asbasbasbag49
(g65
g51
NtRp4676
(dp4677
g54
(dp4678
sg63
g4650
sg56
(lp4679
g49
(g70
g51
NtRp4680
(dp4681
g54
(dp4682
g74
g75
ssg63
g4676
sg56
(lp4683
S'description'
p4684
asbag49
(g70
g51
NtRp4685
(dp4686
g54
(dp4687
g81
g82
ssg63
g4676
sg56
(lp4688
S':'
asbag49
(g70
g51
NtRp4689
(dp4690
g54
(dp4691
sg63
g4676
sg56
(lp4692
g49
(g50
g51
NtRp4693
(dp4694
g54
(dp4695
g62
I4
ssg63
g4689
sg56
(lp4696
S'a cool new app'
p4697
asbasbasbag49
(g65
g51
NtRp4698
(dp4699
g54
(dp4700
sg63
g4650
sg56
(lp4701
g49
(g70
g51
NtRp4702
(dp4703
g54
(dp4704
g74
g75
ssg63
g4698
sg56
(lp4705
S'generator'
p4706
asbag49
(g70
g51
NtRp4707
(dp4708
g54
(dp4709
g81
g82
ssg63
g4698
sg56
(lp4710
S':'
asbag49
(g70
g51
NtRp4711
(dp4712
g54
(dp4713
sg63
g4698
sg56
(lp4714
g49
(g50
g51
NtRp4715
(dp4716
g54
(dp4717
g62
I4
ssg63
g4711
sg56
(lp4718
S'Web2py Web Framework'
p4719
asbasbasbag49
(g65
g51
NtRp4720
(dp4721
g54
(dp4722
sg63
g4650
sg56
(lp4723
g49
(g70
g51
NtRp4724
(dp4725
g54
(dp4726
g74
g75
ssg63
g4720
sg56
(lp4727
S'keywords'
p4728
asbag49
(g70
g51
NtRp4729
(dp4730
g54
(dp4731
g81
g82
ssg63
g4720
sg56
(lp4732
S':'
asbag49
(g70
g51
NtRp4733
(dp4734
g54
(dp4735
sg63
g4720
sg56
(lp4736
g49
(g50
g51
NtRp4737
(dp4738
g54
(dp4739
g62
I4
ssg63
g4733
sg56
(lp4740
S'web2py, python, framework'
p4741
asbasbasbasbasbasbasbag49
(g65
g51
NtRp4742
(dp4743
g54
(dp4744
sg63
g3496
sg56
(lp4745
g49
(g70
g51
NtRp4746
(dp4747
g54
(dp4748
g74
g75
ssg63
g4742
sg56
(lp4749
S'models_to_run'
p4750
asbag49
(g70
g51
NtRp4751
(dp4752
g54
(dp4753
g81
g82
ssg63
g4742
sg56
(lp4754
S':'
asbag49
(g70
g51
NtRp4755
(dp4756
g54
(dp4757
sg63
g4742
sg56
(lp4758
g49
(g50
g51
NtRp4759
(dp4760
g54
(dp4761
g62
I5
ssg63
g4755
sg56
(lp4762
g49
(g58
g51
NtRp4763
(dp4764
g54
(dp4765
g62
I4
ssg63
Nsg56
(lp4766
g49
(g65
g51
NtRp4767
(dp4768
g54
(dp4769
sg63
g4763
sg56
(lp4770
g49
(g70
g51
NtRp4771
(dp4772
g54
(dp4773
sg63
g4767
sg56
(lp4774
g49
(g50
g51
NtRp4775
(dp4776
g54
(dp4777
g62
I4
ssg63
g4771
sg56
(lp4778
S'^\\w+\\.py$'
p4779
asbasbasbag49
(g65
g51
NtRp4780
(dp4781
g54
(dp4782
sg63
g4763
sg56
(lp4783
g49
(g70
g51
NtRp4784
(dp4785
g54
(dp4786
sg63
g4780
sg56
(lp4787
g49
(g50
g51
NtRp4788
(dp4789
g54
(dp4790
g62
I4
ssg63
g4784
sg56
(lp4791
S'^default/\\w+\\.py$'
p4792
asbasbasbag49
(g65
g51
NtRp4793
(dp4794
g54
(dp4795
sg63
g4763
sg56
(lp4796
g49
(g70
g51
NtRp4797
(dp4798
g54
(dp4799
sg63
g4793
sg56
(lp4800
g49
(g50
g51
NtRp4801
(dp4802
g54
(dp4803
g62
I4
ssg63
g4797
sg56
(lp4804
S'^default/mobile_user_register/\\w+\\.py$'
p4805
asbasbasbasbasbasbasbag49
(g65
g51
NtRp4806
(dp4807
g54
(dp4808
sg63
g3496
sg56
(lp4809
g49
(g70
g51
NtRp4810
(dp4811
g54
(dp4812
g74
g75
ssg63
g4806
sg56
(lp4813
S'postprocessing'
p4814
asbag49
(g70
g51
NtRp4815
(dp4816
g54
(dp4817
g81
g82
ssg63
g4806
sg56
(lp4818
S':'
asbag49
(g70
g51
NtRp4819
(dp4820
g54
(dp4821
sg63
g4806
sg56
(lp4822
g49
(g50
g51
NtRp4823
(dp4824
g54
(dp4825
g62
I5
ssg63
g4819
sg56
(lp4826
g49
(g58
g51
NtRp4827
(dp4828
g54
(dp4829
g62
I4
ssg63
Nsg56
(lp4830
sbasbasbasbag49
(g65
g51
NtRp4831
(dp4832
g54
(dp4833
sg63
g3496
sg56
(lp4834
g49
(g70
g51
NtRp4835
(dp4836
g54
(dp4837
g74
g75
ssg63
g4831
sg56
(lp4838
S'session_cookie_expires'
p4839
asbag49
(g70
g51
NtRp4840
(dp4841
g54
(dp4842
g81
g82
ssg63
g4831
sg56
(lp4843
S':'
asbag49
(g70
g51
NtRp4844
(dp4845
g54
(dp4846
sg63
g4831
sg56
(lp4847
g49
(g50
g51
NtRp4848
(dp4849
g54
(dp4850
g62
I5
ssg63
g4844
sg56
(lp4851
S'None'
p4852
asbasbasbag49
(g65
g51
NtRp4853
(dp4854
g54
(dp4855
sg63
g3496
sg56
(lp4856
g49
(g70
g51
NtRp4857
(dp4858
g54
(dp4859
g74
g75
ssg63
g4853
sg56
(lp4860
S'session_data_name'
p4861
asbag49
(g70
g51
NtRp4862
(dp4863
g54
(dp4864
g81
g82
ssg63
g4853
sg56
(lp4865
S':'
asbag49
(g70
g51
NtRp4866
(dp4867
g54
(dp4868
sg63
g4853
sg56
(lp4869
g49
(g50
g51
NtRp4870
(dp4871
g54
(dp4872
g62
I5
ssg63
g4866
sg56
(lp4873
S'session_data_mr'
p4874
asbasbasbag49
(g65
g51
NtRp4875
(dp4876
g54
(dp4877
sg63
g3496
sg56
(lp4878
g49
(g70
g51
NtRp4879
(dp4880
g54
(dp4881
g74
g75
ssg63
g4875
sg56
(lp4882
S'session_file'
p4883
asbag49
(g70
g51
NtRp4884
(dp4885
g54
(dp4886
g81
g82
ssg63
g4875
sg56
(lp4887
S':'
asbag49
(g70
g51
NtRp4888
(dp4889
g54
(dp4890
sg63
g4875
sg56
(lp4891
g49
(g50
g51
NtRp4892
(dp4893
g54
(dp4894
g62
I5
ssg63
g4888
sg56
(lp4895
S"<open file '/Applications/web2py.app/Contents/Resources/applications/MR/sessions/127.0.0.1-01c54a64-3e63-47a8-a67b-a7e1fee963a1', mode 'rb+' at 0x8d43020>"
p4896
asbasbasbag49
(g65
g51
NtRp4897
(dp4898
g54
(dp4899
sg63
g3496
sg56
(lp4900
g49
(g70
g51
NtRp4901
(dp4902
g54
(dp4903
g74
g75
ssg63
g4897
sg56
(lp4904
S'session_filename'
p4905
asbag49
(g70
g51
NtRp4906
(dp4907
g54
(dp4908
g81
g82
ssg63
g4897
sg56
(lp4909
S':'
asbag49
(g70
g51
NtRp4910
(dp4911
g54
(dp4912
sg63
g4897
sg56
(lp4913
g49
(g50
g51
NtRp4914
(dp4915
g54
(dp4916
g62
I5
ssg63
g4910
sg56
(lp4917
S'/Applications/web2py.app/Contents/Resources/applications/MR/sessions/127.0.0.1-01c54a64-3e63-47a8-a67b-a7e1fee963a1'
p4918
asbasbasbag49
(g65
g51
NtRp4919
(dp4920
g54
(dp4921
sg63
g3496
sg56
(lp4922
g49
(g70
g51
NtRp4923
(dp4924
g54
(dp4925
g74
g75
ssg63
g4919
sg56
(lp4926
S'session_id'
p4927
asbag49
(g70
g51
NtRp4928
(dp4929
g54
(dp4930
g81
g82
ssg63
g4919
sg56
(lp4931
S':'
asbag49
(g70
g51
NtRp4932
(dp4933
g54
(dp4934
sg63
g4919
sg56
(lp4935
g49
(g50
g51
NtRp4936
(dp4937
g54
(dp4938
g62
I5
ssg63
g4932
sg56
(lp4939
g446
asbasbasbag49
(g65
g51
NtRp4940
(dp4941
g54
(dp4942
sg63
g3496
sg56
(lp4943
g49
(g70
g51
NtRp4944
(dp4945
g54
(dp4946
g74
g75
ssg63
g4940
sg56
(lp4947
S'session_id_name'
p4948
asbag49
(g70
g51
NtRp4949
(dp4950
g54
(dp4951
g81
g82
ssg63
g4940
sg56
(lp4952
S':'
asbag49
(g70
g51
NtRp4953
(dp4954
g54
(dp4955
sg63
g4940
sg56
(lp4956
g49
(g50
g51
NtRp4957
(dp4958
g54
(dp4959
g62
I5
ssg63
g4953
sg56
(lp4960
g3553
asbasbasbag49
(g65
g51
NtRp4961
(dp4962
g54
(dp4963
sg63
g3496
sg56
(lp4964
g49
(g70
g51
NtRp4965
(dp4966
g54
(dp4967
g74
g75
ssg63
g4961
sg56
(lp4968
S'session_locked'
p4969
asbag49
(g70
g51
NtRp4970
(dp4971
g54
(dp4972
g81
g82
ssg63
g4961
sg56
(lp4973
S':'
asbag49
(g70
g51
NtRp4974
(dp4975
g54
(dp4976
sg63
g4961
sg56
(lp4977
g49
(g50
g51
NtRp4978
(dp4979
g54
(dp4980
g62
I5
ssg63
g4974
sg56
(lp4981
g916
asbasbasbag49
(g65
g51
NtRp4982
(dp4983
g54
(dp4984
sg63
g3496
sg56
(lp4985
g49
(g70
g51
NtRp4986
(dp4987
g54
(dp4988
g74
g75
ssg63
g4982
sg56
(lp4989
S'session_new'
p4990
asbag49
(g70
g51
NtRp4991
(dp4992
g54
(dp4993
g81
g82
ssg63
g4982
sg56
(lp4994
S':'
asbag49
(g70
g51
NtRp4995
(dp4996
g54
(dp4997
sg63
g4982
sg56
(lp4998
g49
(g50
g51
NtRp4999
(dp5000
g54
(dp5001
g62
I5
ssg63
g4995
sg56
(lp5002
g92
asbasbasbag49
(g65
g51
NtRp5003
(dp5004
g54
(dp5005
sg63
g3496
sg56
(lp5006
g49
(g70
g51
NtRp5007
(dp5008
g54
(dp5009
g74
g75
ssg63
g5003
sg56
(lp5010
S'session_storage_type'
p5011
asbag49
(g70
g51
NtRp5012
(dp5013
g54
(dp5014
g81
g82
ssg63
g5003
sg56
(lp5015
S':'
asbag49
(g70
g51
NtRp5016
(dp5017
g54
(dp5018
sg63
g5003
sg56
(lp5019
g49
(g50
g51
NtRp5020
(dp5021
g54
(dp5022
g62
I5
ssg63
g5016
sg56
(lp5023
g3385
asbasbasbag49
(g65
g51
NtRp5024
(dp5025
g54
(dp5026
sg63
g3496
sg56
(lp5027
g49
(g70
g51
NtRp5028
(dp5029
g54
(dp5030
g74
g75
ssg63
g5024
sg56
(lp5031
S'status'
p5032
asbag49
(g70
g51
NtRp5033
(dp5034
g54
(dp5035
g81
g82
ssg63
g5024
sg56
(lp5036
S':'
asbag49
(g70
g51
NtRp5037
(dp5038
g54
(dp5039
sg63
g5024
sg56
(lp5040
g49
(g50
g51
NtRp5041
(dp5042
g54
(dp5043
g62
I5
ssg63
g5037
sg56
(lp5044
S'200'
p5045
asbasbasbag49
(g65
g51
NtRp5046
(dp5047
g54
(dp5048
sg63
g3496
sg56
(lp5049
g49
(g70
g51
NtRp5050
(dp5051
g54
(dp5052
g74
g75
ssg63
g5046
sg56
(lp5053
S'subtitle'
p5054
asbag49
(g70
g51
NtRp5055
(dp5056
g54
(dp5057
g81
g82
ssg63
g5046
sg56
(lp5058
S':'
asbag49
(g70
g51
NtRp5059
(dp5060
g54
(dp5061
sg63
g5046
sg56
(lp5062
g49
(g50
g51
NtRp5063
(dp5064
g54
(dp5065
g62
I5
ssg63
g5059
sg56
(lp5066
g4010
(S's\r\x00\x00\x00\xe8\xab\x8b\xe8\xaa\xbf\xe6\x95\xb4\xe6\x88\x91!'
tRp5067
asbasbasbag49
(g65
g51
NtRp5068
(dp5069
g54
(dp5070
sg63
g3496
sg56
(lp5071
g49
(g70
g51
NtRp5072
(dp5073
g54
(dp5074
g74
g75
ssg63
g5068
sg56
(lp5075
S'title'
p5076
asbag49
(g70
g51
NtRp5077
(dp5078
g54
(dp5079
g81
g82
ssg63
g5068
sg56
(lp5080
S':'
asbag49
(g70
g51
NtRp5081
(dp5082
g54
(dp5083
sg63
g5068
sg56
(lp5084
g49
(g50
g51
NtRp5085
(dp5086
g54
(dp5087
g62
I5
ssg63
g5081
sg56
(lp5088
S'Mr'
p5089
asbasbasbag49
(g65
g51
NtRp5090
(dp5091
g54
(dp5092
sg63
g3496
sg56
(lp5093
g49
(g70
g51
NtRp5094
(dp5095
g54
(dp5096
g74
g75
ssg63
g5090
sg56
(lp5097
S'view'
p5098
asbag49
(g70
g51
NtRp5099
(dp5100
g54
(dp5101
g81
g82
ssg63
g5090
sg56
(lp5102
S':'
asbag49
(g70
g51
NtRp5103
(dp5104
g54
(dp5105
sg63
g5090
sg56
(lp5106
g49
(g50
g51
NtRp5107
(dp5108
g54
(dp5109
g62
I5
ssg63
g5103
sg56
(lp5110
S'default/mobile_user_register.html'
p5111
asbasbasbasbasbsS'locals'
p5112
(dp5113
S'rows'
p5114
S'<Rows (1)>'
p5115
sS'firstname'
p5116
S"'asdf'"
p5117
sS'lastname'
p5118
S"'asdf'"
p5119
sS'result'
p5120
S'[]'
p5121
sS'country'
p5122
S"''"
p5123
sS'password'
p5124
S"'adsf'"
p5125
sS'email'
p5126
S"'adsf'"
p5127
sssS'traceback'
p5128
S'Traceback (most recent call last):\n  File "/home/mdipierro/web2py/gluon/restricted.py", line 212, in restricted\n  File "/Applications/web2py.app/Contents/Resources/applications/MR/controllers/default.py", line 98, in <module>\n  File "/home/mdipierro/web2py/gluon/globals.py", line 193, in <lambda>\n  File "/Applications/web2py.app/Contents/Resources/applications/MR/controllers/default.py", line 60, in mobile_user_register\nTypeError: list indices must be integers\n'
p5129
s.