(dp1
S'output'
p2
S"<type 'exceptions.AttributeError'> 'module' object has no attribute 'd5_hash'"
p3
sS'layer'
p4
S'/Applications/web2py.app/Contents/Resources/applications/MR/controllers/default.py'
p5
sS'code'
p6
S'# -*- coding: utf-8 -*-\n# this file is released under public domain and you can use without limitations\n\n#########################################################################\n## This is a samples controller\n## - index is the default action of any application\n## - user is required for authentication and authorization\n## - download is for downloading files uploaded in the db (does streaming)\n## - call exposes all registered services (none by default)\n#########################################################################\nimport gluon.utils as TT\n\ndef index():\n    return dict(message=T(\'Hello World\'))\n\n\ndef user():\n    """\n    exposes:\n    http://..../[app]/default/user/login\n    http://..../[app]/default/user/logout\n    http://..../[app]/default/user/register\n    http://..../[app]/default/user/profile\n    http://..../[app]/default/user/retrieve_password\n    http://..../[app]/default/user/change_password\n    use @auth.requires_login()\n        @auth.requires_membership(\'group name\')\n        @auth.requires_permission(\'read\',\'table name\',record_id)\n    to decorate functions that need access control\n    """\n    return dict(form=auth())\n\ndef download():\n    """\n    allows downloading of uploaded files\n    http://..../[app]/default/download/[filename]\n    """\n    return response.download(request, db)\n\n\ndef call():\n    """\n    exposes services. for example:\n    http://..../[app]/default/call/jsonrpc\n    decorate with @services.jsonrpc the functions to expose\n    supports xml, json, xmlrpc, jsonrpc, amfrpc, rss, csv\n    """\n    return service()\n\n#@service.jsonrpc\ndef mobile_user_register():\n    email = request.vars.email\n    password = request.vars.password\n    firstname = request.vars.firstname\n    lastname = request.vars.lastname\n    country = request.vars.country\n    rows = db(db.mobile_user.email==email).select()\n    if len(rows) != 0:\n        return {\'status\': \'exist\'}\n    \n    result = TT.d5_hash(password)\n    ret = db.mobile_user.validate_and_insert(email=email, password=password, first_name=firstname, last_name=lastname, md5=result, country=country)\n    if ret.errors:\n        return {\'status\':\'ERROR\'}        \n        \n    return {\'status\': \'success\', \'result\': result}\n    \n#@service.jsonrpc\ndef mobile_user_login(email, password):\n    rows = db(db.mobile_user.email==email).select()\n    if len(rows) != 1:\n        return {\'status\': \'ERROR\'}\n    user = rows[0]\n    return {\'status\':\'success\', \'result\': user.md5}\n\n@auth.requires_signature()\ndef data():\n    """\n    http://..../[app]/default/data/tables\n    http://..../[app]/default/data/create/[table]\n    http://..../[app]/default/data/read/[table]/[id]\n    http://..../[app]/default/data/update/[table]/[id]\n    http://..../[app]/default/data/delete/[table]/[id]\n    http://..../[app]/default/data/select/[table]\n    http://..../[app]/default/data/search/[table]\n    but URLs must be signed, i.e. linked with\n      A(\'table\',_href=URL(\'data/tables\',user_signature=True))\n    or with the signed load operator\n      LOAD(\'default\',\'data.load\',args=\'tables\',ajax=True,user_signature=True)\n    """\n    return dict(form=crud())\n\nresponse._vars=response._caller(mobile_user_register)\n'
p7
sS'snapshot'
p8
(dp9
S'exception'
p10
(dp11
S'__hash__'
p12
S"<method-wrapper '__hash__' of exceptions.AttributeError object at 0x8be6eb8>"
p13
sS'__setattr__'
p14
S"<method-wrapper '__setattr__' of exceptions.AttributeError object at 0x8be6eb8>"
p15
sS'__reduce_ex__'
p16
S'<built-in method __reduce_ex__ of exceptions.AttributeError object at 0x8be6eb8>'
p17
sS'__getslice__'
p18
S"<method-wrapper '__getslice__' of exceptions.AttributeError object at 0x8be6eb8>"
p19
sS'__getitem__'
p20
S"<method-wrapper '__getitem__' of exceptions.AttributeError object at 0x8be6eb8>"
p21
sS'__setstate__'
p22
S'<built-in method __setstate__ of exceptions.AttributeError object at 0x8be6eb8>'
p23
sS'__reduce__'
p24
S'<built-in method __reduce__ of exceptions.AttributeError object at 0x8be6eb8>'
p25
sS'__str__'
p26
S"<method-wrapper '__str__' of exceptions.AttributeError object at 0x8be6eb8>"
p27
sS'args'
p28
S'("\'module\' object has no attribute \'d5_hash\'",)'
p29
sS'__getattribute__'
p30
S"<method-wrapper '__getattribute__' of exceptions.AttributeError object at 0x8be6eb8>"
p31
sS'__class__'
p32
S"<type 'exceptions.AttributeError'>"
p33
sS'__delattr__'
p34
S"<method-wrapper '__delattr__' of exceptions.AttributeError object at 0x8be6eb8>"
p35
sS'__repr__'
p36
S"<method-wrapper '__repr__' of exceptions.AttributeError object at 0x8be6eb8>"
p37
sS'__dict__'
p38
S'{}'
p39
sS'__doc__'
p40
S"'Attribute not found.'"
p41
sS'__init__'
p42
S"<method-wrapper '__init__' of exceptions.AttributeError object at 0x8be6eb8>"
p43
sS'__new__'
p44
S'<built-in method __new__ of type object at 0x5f94a0>'
p45
ssS'evalue'
p46
S"'module' object has no attribute 'd5_hash'"
p47
sS'request'
p48
ccopy_reg
_reconstructor
p49
(cgluon.html
BEAUTIFY
p50
c__builtin__
object
p51
NtRp52
(dp53
S'attributes'
p54
(dp55
sS'components'
p56
(lp57
g49
(cgluon.html
TABLE
p58
g51
NtRp59
(dp60
g54
(dp61
S'level'
p62
I5
ssS'parent'
p63
Nsg56
(lp64
g49
(cgluon.html
TR
p65
g51
NtRp66
(dp67
g54
(dp68
sg63
g59
sg56
(lp69
g49
(cgluon.html
TD
p70
g51
NtRp71
(dp72
g54
(dp73
S'_style'
p74
S'font-weight:bold;vertical-align:top'
p75
ssg63
g66
sg56
(lp76
S'ajax'
p77
asbag49
(g70
g51
NtRp78
(dp79
g54
(dp80
S'_valign'
p81
S'top'
p82
ssg63
g66
sg56
(lp83
S':'
asbag49
(g70
g51
NtRp84
(dp85
g54
(dp86
sg63
g66
sg56
(lp87
g49
(g50
g51
NtRp88
(dp89
g54
(dp90
g62
I5
ssg63
g84
sg56
(lp91
S'False'
p92
asbasbasbag49
(g65
g51
NtRp93
(dp94
g54
(dp95
sg63
g59
sg56
(lp96
g49
(g70
g51
NtRp97
(dp98
g54
(dp99
g74
g75
ssg63
g93
sg56
(lp100
S'application'
p101
asbag49
(g70
g51
NtRp102
(dp103
g54
(dp104
g81
g82
ssg63
g93
sg56
(lp105
S':'
asbag49
(g70
g51
NtRp106
(dp107
g54
(dp108
sg63
g93
sg56
(lp109
g49
(g50
g51
NtRp110
(dp111
g54
(dp112
g62
I5
ssg63
g106
sg56
(lp113
S'MR'
p114
asbasbasbag49
(g65
g51
NtRp115
(dp116
g54
(dp117
sg63
g59
sg56
(lp118
g49
(g70
g51
NtRp119
(dp120
g54
(dp121
g74
g75
ssg63
g115
sg56
(lp122
g28
asbag49
(g70
g51
NtRp123
(dp124
g54
(dp125
g81
g82
ssg63
g115
sg56
(lp126
S':'
asbag49
(g70
g51
NtRp127
(dp128
g54
(dp129
sg63
g115
sg56
(lp130
g49
(g50
g51
NtRp131
(dp132
g54
(dp133
g62
I5
ssg63
g127
sg56
(lp134
g49
(g58
g51
NtRp135
(dp136
g54
(dp137
g62
I4
ssg63
Nsg56
(lp138
sbasbasbasbag49
(g65
g51
NtRp139
(dp140
g54
(dp141
sg63
g59
sg56
(lp142
g49
(g70
g51
NtRp143
(dp144
g54
(dp145
g74
g75
ssg63
g139
sg56
(lp146
S'body'
p147
asbag49
(g70
g51
NtRp148
(dp149
g54
(dp150
g81
g82
ssg63
g139
sg56
(lp151
S':'
asbag49
(g70
g51
NtRp152
(dp153
g54
(dp154
sg63
g139
sg56
(lp155
g49
(g50
g51
NtRp156
(dp157
g54
(dp158
g62
I5
ssg63
g152
sg56
(lp159
S'<cStringIO.StringO object at 0x8eac5c0>'
p160
asbasbasbag49
(g65
g51
NtRp161
(dp162
g54
(dp163
sg63
g59
sg56
(lp164
g49
(g70
g51
NtRp165
(dp166
g54
(dp167
g74
g75
ssg63
g161
sg56
(lp168
S'cid'
p169
asbag49
(g70
g51
NtRp170
(dp171
g54
(dp172
g81
g82
ssg63
g161
sg56
(lp173
S':'
asbag49
(g70
g51
NtRp174
(dp175
g54
(dp176
sg63
g161
sg56
(lp177
g49
(g50
g51
NtRp178
(dp179
g54
(dp180
g62
I5
ssg63
g174
sg56
(lp181
S'None'
p182
asbasbasbag49
(g65
g51
NtRp183
(dp184
g54
(dp185
sg63
g59
sg56
(lp186
g49
(g70
g51
NtRp187
(dp188
g54
(dp189
g74
g75
ssg63
g183
sg56
(lp190
S'client'
p191
asbag49
(g70
g51
NtRp192
(dp193
g54
(dp194
g81
g82
ssg63
g183
sg56
(lp195
S':'
asbag49
(g70
g51
NtRp196
(dp197
g54
(dp198
sg63
g183
sg56
(lp199
g49
(g50
g51
NtRp200
(dp201
g54
(dp202
g62
I5
ssg63
g196
sg56
(lp203
S'127.0.0.1'
p204
asbasbasbag49
(g65
g51
NtRp205
(dp206
g54
(dp207
sg63
g59
sg56
(lp208
g49
(g70
g51
NtRp209
(dp210
g54
(dp211
g74
g75
ssg63
g205
sg56
(lp212
S'controller'
p213
asbag49
(g70
g51
NtRp214
(dp215
g54
(dp216
g81
g82
ssg63
g205
sg56
(lp217
S':'
asbag49
(g70
g51
NtRp218
(dp219
g54
(dp220
sg63
g205
sg56
(lp221
g49
(g50
g51
NtRp222
(dp223
g54
(dp224
g62
I5
ssg63
g218
sg56
(lp225
S'default'
p226
asbasbasbag49
(g65
g51
NtRp227
(dp228
g54
(dp229
sg63
g59
sg56
(lp230
g49
(g70
g51
NtRp231
(dp232
g54
(dp233
g74
g75
ssg63
g227
sg56
(lp234
S'cookies'
p235
asbag49
(g70
g51
NtRp236
(dp237
g54
(dp238
g81
g82
ssg63
g227
sg56
(lp239
S':'
asbag49
(g70
g51
NtRp240
(dp241
g54
(dp242
sg63
g227
sg56
(lp243
g49
(g50
g51
NtRp244
(dp245
g54
(dp246
g62
I5
ssg63
g240
sg56
(lp247
g49
(g58
g51
NtRp248
(dp249
g54
(dp250
g62
I4
ssg63
Nsg56
(lp251
g49
(g65
g51
NtRp252
(dp253
g54
(dp254
sg63
g248
sg56
(lp255
g49
(g70
g51
NtRp256
(dp257
g54
(dp258
g74
g75
ssg63
g252
sg56
(lp259
S'session_id_admin'
p260
asbag49
(g70
g51
NtRp261
(dp262
g54
(dp263
g81
g82
ssg63
g252
sg56
(lp264
S':'
asbag49
(g70
g51
NtRp265
(dp266
g54
(dp267
sg63
g252
sg56
(lp268
g49
(g50
g51
NtRp269
(dp270
g54
(dp271
g62
I4
ssg63
g265
sg56
(lp272
S'127.0.0.1-6d643e70-8d6c-4e92-8c7e-38ba6849a536'
p273
ag49
(g58
g51
NtRp274
(dp275
g54
(dp276
g62
I3
ssg63
Nsg56
(lp277
g49
(g65
g51
NtRp278
(dp279
g54
(dp280
sg63
g274
sg56
(lp281
g49
(g70
g51
NtRp282
(dp283
g54
(dp284
g74
g75
ssg63
g278
sg56
(lp285
S'comment'
p286
asbag49
(g70
g51
NtRp287
(dp288
g54
(dp289
g81
g82
ssg63
g278
sg56
(lp290
S':'
asbag49
(g70
g51
NtRp291
(dp292
g54
(dp293
sg63
g278
sg56
(lp294
g49
(g50
g51
NtRp295
(dp296
g54
(dp297
g62
I3
ssg63
g291
sg56
(lp298
S''
asbasbasbag49
(g65
g51
NtRp299
(dp300
g54
(dp301
sg63
g274
sg56
(lp302
g49
(g70
g51
NtRp303
(dp304
g54
(dp305
g74
g75
ssg63
g299
sg56
(lp306
S'domain'
p307
asbag49
(g70
g51
NtRp308
(dp309
g54
(dp310
g81
g82
ssg63
g299
sg56
(lp311
S':'
asbag49
(g70
g51
NtRp312
(dp313
g54
(dp314
sg63
g299
sg56
(lp315
g49
(g50
g51
NtRp316
(dp317
g54
(dp318
g62
I3
ssg63
g312
sg56
(lp319
S''
asbasbasbag49
(g65
g51
NtRp320
(dp321
g54
(dp322
sg63
g274
sg56
(lp323
g49
(g70
g51
NtRp324
(dp325
g54
(dp326
g74
g75
ssg63
g320
sg56
(lp327
S'expires'
p328
asbag49
(g70
g51
NtRp329
(dp330
g54
(dp331
g81
g82
ssg63
g320
sg56
(lp332
S':'
asbag49
(g70
g51
NtRp333
(dp334
g54
(dp335
sg63
g320
sg56
(lp336
g49
(g50
g51
NtRp337
(dp338
g54
(dp339
g62
I3
ssg63
g333
sg56
(lp340
S''
asbasbasbag49
(g65
g51
NtRp341
(dp342
g54
(dp343
sg63
g274
sg56
(lp344
g49
(g70
g51
NtRp345
(dp346
g54
(dp347
g74
g75
ssg63
g341
sg56
(lp348
S'max-age'
p349
asbag49
(g70
g51
NtRp350
(dp351
g54
(dp352
g81
g82
ssg63
g341
sg56
(lp353
S':'
asbag49
(g70
g51
NtRp354
(dp355
g54
(dp356
sg63
g341
sg56
(lp357
g49
(g50
g51
NtRp358
(dp359
g54
(dp360
g62
I3
ssg63
g354
sg56
(lp361
S''
asbasbasbag49
(g65
g51
NtRp362
(dp363
g54
(dp364
sg63
g274
sg56
(lp365
g49
(g70
g51
NtRp366
(dp367
g54
(dp368
g74
g75
ssg63
g362
sg56
(lp369
S'path'
p370
asbag49
(g70
g51
NtRp371
(dp372
g54
(dp373
g81
g82
ssg63
g362
sg56
(lp374
S':'
asbag49
(g70
g51
NtRp375
(dp376
g54
(dp377
sg63
g362
sg56
(lp378
g49
(g50
g51
NtRp379
(dp380
g54
(dp381
g62
I3
ssg63
g375
sg56
(lp382
S''
asbasbasbag49
(g65
g51
NtRp383
(dp384
g54
(dp385
sg63
g274
sg56
(lp386
g49
(g70
g51
NtRp387
(dp388
g54
(dp389
g74
g75
ssg63
g383
sg56
(lp390
S'secure'
p391
asbag49
(g70
g51
NtRp392
(dp393
g54
(dp394
g81
g82
ssg63
g383
sg56
(lp395
S':'
asbag49
(g70
g51
NtRp396
(dp397
g54
(dp398
sg63
g383
sg56
(lp399
g49
(g50
g51
NtRp400
(dp401
g54
(dp402
g62
I3
ssg63
g396
sg56
(lp403
S''
asbasbasbag49
(g65
g51
NtRp404
(dp405
g54
(dp406
sg63
g274
sg56
(lp407
g49
(g70
g51
NtRp408
(dp409
g54
(dp410
g74
g75
ssg63
g404
sg56
(lp411
S'version'
p412
asbag49
(g70
g51
NtRp413
(dp414
g54
(dp415
g81
g82
ssg63
g404
sg56
(lp416
S':'
asbag49
(g70
g51
NtRp417
(dp418
g54
(dp419
sg63
g404
sg56
(lp420
g49
(g50
g51
NtRp421
(dp422
g54
(dp423
g62
I3
ssg63
g417
sg56
(lp424
S''
asbasbasbasbasbasbasbag49
(g65
g51
NtRp425
(dp426
g54
(dp427
sg63
g248
sg56
(lp428
g49
(g70
g51
NtRp429
(dp430
g54
(dp431
g74
g75
ssg63
g425
sg56
(lp432
S'session_id_mr'
p433
asbag49
(g70
g51
NtRp434
(dp435
g54
(dp436
g81
g82
ssg63
g425
sg56
(lp437
S':'
asbag49
(g70
g51
NtRp438
(dp439
g54
(dp440
sg63
g425
sg56
(lp441
g49
(g50
g51
NtRp442
(dp443
g54
(dp444
g62
I4
ssg63
g438
sg56
(lp445
S'127.0.0.1-56f6c833-4495-4158-afa1-0ddb41c94ce0'
p446
ag49
(g58
g51
NtRp447
(dp448
g54
(dp449
g62
I3
ssg63
Nsg56
(lp450
g49
(g65
g51
NtRp451
(dp452
g54
(dp453
sg63
g447
sg56
(lp454
g49
(g70
g51
NtRp455
(dp456
g54
(dp457
g74
g75
ssg63
g451
sg56
(lp458
g286
asbag49
(g70
g51
NtRp459
(dp460
g54
(dp461
g81
g82
ssg63
g451
sg56
(lp462
S':'
asbag49
(g70
g51
NtRp463
(dp464
g54
(dp465
sg63
g451
sg56
(lp466
g49
(g50
g51
NtRp467
(dp468
g54
(dp469
g62
I3
ssg63
g463
sg56
(lp470
S''
asbasbasbag49
(g65
g51
NtRp471
(dp472
g54
(dp473
sg63
g447
sg56
(lp474
g49
(g70
g51
NtRp475
(dp476
g54
(dp477
g74
g75
ssg63
g471
sg56
(lp478
g307
asbag49
(g70
g51
NtRp479
(dp480
g54
(dp481
g81
g82
ssg63
g471
sg56
(lp482
S':'
asbag49
(g70
g51
NtRp483
(dp484
g54
(dp485
sg63
g471
sg56
(lp486
g49
(g50
g51
NtRp487
(dp488
g54
(dp489
g62
I3
ssg63
g483
sg56
(lp490
S''
asbasbasbag49
(g65
g51
NtRp491
(dp492
g54
(dp493
sg63
g447
sg56
(lp494
g49
(g70
g51
NtRp495
(dp496
g54
(dp497
g74
g75
ssg63
g491
sg56
(lp498
g328
asbag49
(g70
g51
NtRp499
(dp500
g54
(dp501
g81
g82
ssg63
g491
sg56
(lp502
S':'
asbag49
(g70
g51
NtRp503
(dp504
g54
(dp505
sg63
g491
sg56
(lp506
g49
(g50
g51
NtRp507
(dp508
g54
(dp509
g62
I3
ssg63
g503
sg56
(lp510
S''
asbasbasbag49
(g65
g51
NtRp511
(dp512
g54
(dp513
sg63
g447
sg56
(lp514
g49
(g70
g51
NtRp515
(dp516
g54
(dp517
g74
g75
ssg63
g511
sg56
(lp518
g349
asbag49
(g70
g51
NtRp519
(dp520
g54
(dp521
g81
g82
ssg63
g511
sg56
(lp522
S':'
asbag49
(g70
g51
NtRp523
(dp524
g54
(dp525
sg63
g511
sg56
(lp526
g49
(g50
g51
NtRp527
(dp528
g54
(dp529
g62
I3
ssg63
g523
sg56
(lp530
S''
asbasbasbag49
(g65
g51
NtRp531
(dp532
g54
(dp533
sg63
g447
sg56
(lp534
g49
(g70
g51
NtRp535
(dp536
g54
(dp537
g74
g75
ssg63
g531
sg56
(lp538
g370
asbag49
(g70
g51
NtRp539
(dp540
g54
(dp541
g81
g82
ssg63
g531
sg56
(lp542
S':'
asbag49
(g70
g51
NtRp543
(dp544
g54
(dp545
sg63
g531
sg56
(lp546
g49
(g50
g51
NtRp547
(dp548
g54
(dp549
g62
I3
ssg63
g543
sg56
(lp550
S''
asbasbasbag49
(g65
g51
NtRp551
(dp552
g54
(dp553
sg63
g447
sg56
(lp554
g49
(g70
g51
NtRp555
(dp556
g54
(dp557
g74
g75
ssg63
g551
sg56
(lp558
g391
asbag49
(g70
g51
NtRp559
(dp560
g54
(dp561
g81
g82
ssg63
g551
sg56
(lp562
S':'
asbag49
(g70
g51
NtRp563
(dp564
g54
(dp565
sg63
g551
sg56
(lp566
g49
(g50
g51
NtRp567
(dp568
g54
(dp569
g62
I3
ssg63
g563
sg56
(lp570
S''
asbasbasbag49
(g65
g51
NtRp571
(dp572
g54
(dp573
sg63
g447
sg56
(lp574
g49
(g70
g51
NtRp575
(dp576
g54
(dp577
g74
g75
ssg63
g571
sg56
(lp578
g412
asbag49
(g70
g51
NtRp579
(dp580
g54
(dp581
g81
g82
ssg63
g571
sg56
(lp582
S':'
asbag49
(g70
g51
NtRp583
(dp584
g54
(dp585
sg63
g571
sg56
(lp586
g49
(g50
g51
NtRp587
(dp588
g54
(dp589
g62
I3
ssg63
g583
sg56
(lp590
S''
asbasbasbasbasbasbasbag49
(g65
g51
NtRp591
(dp592
g54
(dp593
sg63
g248
sg56
(lp594
g49
(g70
g51
NtRp595
(dp596
g54
(dp597
g74
g75
ssg63
g591
sg56
(lp598
S'session_id_welcome'
p599
asbag49
(g70
g51
NtRp600
(dp601
g54
(dp602
g81
g82
ssg63
g591
sg56
(lp603
S':'
asbag49
(g70
g51
NtRp604
(dp605
g54
(dp606
sg63
g591
sg56
(lp607
g49
(g50
g51
NtRp608
(dp609
g54
(dp610
g62
I4
ssg63
g604
sg56
(lp611
S'127.0.0.1-2ac9e4fa-5c51-4c7c-9d24-af98e051a735'
p612
ag49
(g58
g51
NtRp613
(dp614
g54
(dp615
g62
I3
ssg63
Nsg56
(lp616
g49
(g65
g51
NtRp617
(dp618
g54
(dp619
sg63
g613
sg56
(lp620
g49
(g70
g51
NtRp621
(dp622
g54
(dp623
g74
g75
ssg63
g617
sg56
(lp624
g286
asbag49
(g70
g51
NtRp625
(dp626
g54
(dp627
g81
g82
ssg63
g617
sg56
(lp628
S':'
asbag49
(g70
g51
NtRp629
(dp630
g54
(dp631
sg63
g617
sg56
(lp632
g49
(g50
g51
NtRp633
(dp634
g54
(dp635
g62
I3
ssg63
g629
sg56
(lp636
S''
asbasbasbag49
(g65
g51
NtRp637
(dp638
g54
(dp639
sg63
g613
sg56
(lp640
g49
(g70
g51
NtRp641
(dp642
g54
(dp643
g74
g75
ssg63
g637
sg56
(lp644
g307
asbag49
(g70
g51
NtRp645
(dp646
g54
(dp647
g81
g82
ssg63
g637
sg56
(lp648
S':'
asbag49
(g70
g51
NtRp649
(dp650
g54
(dp651
sg63
g637
sg56
(lp652
g49
(g50
g51
NtRp653
(dp654
g54
(dp655
g62
I3
ssg63
g649
sg56
(lp656
S''
asbasbasbag49
(g65
g51
NtRp657
(dp658
g54
(dp659
sg63
g613
sg56
(lp660
g49
(g70
g51
NtRp661
(dp662
g54
(dp663
g74
g75
ssg63
g657
sg56
(lp664
g328
asbag49
(g70
g51
NtRp665
(dp666
g54
(dp667
g81
g82
ssg63
g657
sg56
(lp668
S':'
asbag49
(g70
g51
NtRp669
(dp670
g54
(dp671
sg63
g657
sg56
(lp672
g49
(g50
g51
NtRp673
(dp674
g54
(dp675
g62
I3
ssg63
g669
sg56
(lp676
S''
asbasbasbag49
(g65
g51
NtRp677
(dp678
g54
(dp679
sg63
g613
sg56
(lp680
g49
(g70
g51
NtRp681
(dp682
g54
(dp683
g74
g75
ssg63
g677
sg56
(lp684
g349
asbag49
(g70
g51
NtRp685
(dp686
g54
(dp687
g81
g82
ssg63
g677
sg56
(lp688
S':'
asbag49
(g70
g51
NtRp689
(dp690
g54
(dp691
sg63
g677
sg56
(lp692
g49
(g50
g51
NtRp693
(dp694
g54
(dp695
g62
I3
ssg63
g689
sg56
(lp696
S''
asbasbasbag49
(g65
g51
NtRp697
(dp698
g54
(dp699
sg63
g613
sg56
(lp700
g49
(g70
g51
NtRp701
(dp702
g54
(dp703
g74
g75
ssg63
g697
sg56
(lp704
g370
asbag49
(g70
g51
NtRp705
(dp706
g54
(dp707
g81
g82
ssg63
g697
sg56
(lp708
S':'
asbag49
(g70
g51
NtRp709
(dp710
g54
(dp711
sg63
g697
sg56
(lp712
g49
(g50
g51
NtRp713
(dp714
g54
(dp715
g62
I3
ssg63
g709
sg56
(lp716
S''
asbasbasbag49
(g65
g51
NtRp717
(dp718
g54
(dp719
sg63
g613
sg56
(lp720
g49
(g70
g51
NtRp721
(dp722
g54
(dp723
g74
g75
ssg63
g717
sg56
(lp724
g391
asbag49
(g70
g51
NtRp725
(dp726
g54
(dp727
g81
g82
ssg63
g717
sg56
(lp728
S':'
asbag49
(g70
g51
NtRp729
(dp730
g54
(dp731
sg63
g717
sg56
(lp732
g49
(g50
g51
NtRp733
(dp734
g54
(dp735
g62
I3
ssg63
g729
sg56
(lp736
S''
asbasbasbag49
(g65
g51
NtRp737
(dp738
g54
(dp739
sg63
g613
sg56
(lp740
g49
(g70
g51
NtRp741
(dp742
g54
(dp743
g74
g75
ssg63
g737
sg56
(lp744
g412
asbag49
(g70
g51
NtRp745
(dp746
g54
(dp747
g81
g82
ssg63
g737
sg56
(lp748
S':'
asbag49
(g70
g51
NtRp749
(dp750
g54
(dp751
sg63
g737
sg56
(lp752
g49
(g50
g51
NtRp753
(dp754
g54
(dp755
g62
I3
ssg63
g749
sg56
(lp756
S''
asbasbasbasbasbasbasbasbasbasbasbag49
(g65
g51
NtRp757
(dp758
g54
(dp759
sg63
g59
sg56
(lp760
g49
(g70
g51
NtRp761
(dp762
g54
(dp763
g74
g75
ssg63
g757
sg56
(lp764
S'env'
p765
asbag49
(g70
g51
NtRp766
(dp767
g54
(dp768
g81
g82
ssg63
g757
sg56
(lp769
S':'
asbag49
(g70
g51
NtRp770
(dp771
g54
(dp772
sg63
g757
sg56
(lp773
g49
(g50
g51
NtRp774
(dp775
g54
(dp776
g62
I5
ssg63
g770
sg56
(lp777
g49
(g58
g51
NtRp778
(dp779
g54
(dp780
g62
I4
ssg63
Nsg56
(lp781
g49
(g65
g51
NtRp782
(dp783
g54
(dp784
sg63
g778
sg56
(lp785
g49
(g70
g51
NtRp786
(dp787
g54
(dp788
g74
g75
ssg63
g782
sg56
(lp789
S'app_folders'
p790
asbag49
(g70
g51
NtRp791
(dp792
g54
(dp793
g81
g82
ssg63
g782
sg56
(lp794
S':'
asbag49
(g70
g51
NtRp795
(dp796
g54
(dp797
sg63
g782
sg56
(lp798
g49
(g50
g51
NtRp799
(dp800
g54
(dp801
g62
I4
ssg63
g795
sg56
(lp802
S"set(['/Applications/web2py.app/Contents/Resources/applications/admin/', '/Applications/web2py.app/Contents/Resources/applications/welcome/', '/Applications/web2py.app/Contents/Resources/applications/MR/'])"
p803
asbasbasbag49
(g65
g51
NtRp804
(dp805
g54
(dp806
sg63
g778
sg56
(lp807
g49
(g70
g51
NtRp808
(dp809
g54
(dp810
g74
g75
ssg63
g804
sg56
(lp811
S'applications_parent'
p812
asbag49
(g70
g51
NtRp813
(dp814
g54
(dp815
g81
g82
ssg63
g804
sg56
(lp816
S':'
asbag49
(g70
g51
NtRp817
(dp818
g54
(dp819
sg63
g804
sg56
(lp820
g49
(g50
g51
NtRp821
(dp822
g54
(dp823
g62
I4
ssg63
g817
sg56
(lp824
S'/Applications/web2py.app/Contents/Resources'
p825
asbasbasbag49
(g65
g51
NtRp826
(dp827
g54
(dp828
sg63
g778
sg56
(lp829
g49
(g70
g51
NtRp830
(dp831
g54
(dp832
g74
g75
ssg63
g826
sg56
(lp833
S'cmd_args'
p834
asbag49
(g70
g51
NtRp835
(dp836
g54
(dp837
g81
g82
ssg63
g826
sg56
(lp838
S':'
asbag49
(g70
g51
NtRp839
(dp840
g54
(dp841
sg63
g826
sg56
(lp842
g49
(g50
g51
NtRp843
(dp844
g54
(dp845
g62
I4
ssg63
g839
sg56
(lp846
g49
(g58
g51
NtRp847
(dp848
g54
(dp849
g62
I3
ssg63
Nsg56
(lp850
sbasbasbasbag49
(g65
g51
NtRp851
(dp852
g54
(dp853
sg63
g778
sg56
(lp854
g49
(g70
g51
NtRp855
(dp856
g54
(dp857
g74
g75
ssg63
g851
sg56
(lp858
S'cmd_options'
p859
asbag49
(g70
g51
NtRp860
(dp861
g54
(dp862
g81
g82
ssg63
g851
sg56
(lp863
S':'
asbag49
(g70
g51
NtRp864
(dp865
g54
(dp866
sg63
g851
sg56
(lp867
g49
(g50
g51
NtRp868
(dp869
g54
(dp870
g62
I4
ssg63
g864
sg56
(lp871
S"<Values at 0x4554f58: {'verbose': False, 'ip': '127.0.0.1', 'with_scheduler': False, 'ips': ['173.250.203.67'], 'shutdown_timeout': 5, 'taskbar': False, 'port': 8000, 'maxthreads': None, 'softcron': False, 'server_name': 'd-173-250-203-67.dhcp4.washington.edu', 'bpython': False, 'nogui': False, 'pid_filename': 'httpserver.pid', 'extcron': False, 'runcron': False, 'run_system_tests': False, 'test': None, 'folder': '/Applications/web2py.app/Contents/Resources', 'config': '', 'import_models': False, 'winservice': '', 'shell': None, 'run': '', 'log_filename': 'httpserver.log', 'debuglevel': 30, 'args': [''], 'socket_timeout': 5, 'ssl_ca_certificate': None, 'scheduler': None, 'profiler_filename': None, 'ssl_private_key': '', 'scheduler_groups': None, 'password': '<ask>', 'request_queue_size': 5, 'ssl_certificate': '', 'cronjob': False, 'numthreads': None, 'quiet': False, 'interfaces': None, 'minthreads': None, 'timeout': 10, 'plain': False, 'nobanner': False}>"
p872
asbasbasbag49
(g65
g51
NtRp873
(dp874
g54
(dp875
sg63
g778
sg56
(lp876
g49
(g70
g51
NtRp877
(dp878
g54
(dp879
g74
g75
ssg63
g873
sg56
(lp880
S'db_sessions'
p881
asbag49
(g70
g51
NtRp882
(dp883
g54
(dp884
g81
g82
ssg63
g873
sg56
(lp885
S':'
asbag49
(g70
g51
NtRp886
(dp887
g54
(dp888
sg63
g873
sg56
(lp889
g49
(g50
g51
NtRp890
(dp891
g54
(dp892
g62
I4
ssg63
g886
sg56
(lp893
S'set([])'
p894
asbasbasbag49
(g65
g51
NtRp895
(dp896
g54
(dp897
sg63
g778
sg56
(lp898
g49
(g70
g51
NtRp899
(dp900
g54
(dp901
g74
g75
ssg63
g895
sg56
(lp902
S'debugging'
p903
asbag49
(g70
g51
NtRp904
(dp905
g54
(dp906
g81
g82
ssg63
g895
sg56
(lp907
S':'
asbag49
(g70
g51
NtRp908
(dp909
g54
(dp910
sg63
g895
sg56
(lp911
g49
(g50
g51
NtRp912
(dp913
g54
(dp914
g62
I4
ssg63
g908
sg56
(lp915
S'True'
p916
asbasbasbag49
(g65
g51
NtRp917
(dp918
g54
(dp919
sg63
g778
sg56
(lp920
g49
(g70
g51
NtRp921
(dp922
g54
(dp923
g74
g75
ssg63
g917
sg56
(lp924
S'gluon_parent'
p925
asbag49
(g70
g51
NtRp926
(dp927
g54
(dp928
g81
g82
ssg63
g917
sg56
(lp929
S':'
asbag49
(g70
g51
NtRp930
(dp931
g54
(dp932
sg63
g917
sg56
(lp933
g49
(g50
g51
NtRp934
(dp935
g54
(dp936
g62
I4
ssg63
g930
sg56
(lp937
S'/Applications/web2py.app/Contents/Resources'
p938
asbasbasbag49
(g65
g51
NtRp939
(dp940
g54
(dp941
sg63
g778
sg56
(lp942
g49
(g70
g51
NtRp943
(dp944
g54
(dp945
g74
g75
ssg63
g939
sg56
(lp946
S'http_accept'
p947
asbag49
(g70
g51
NtRp948
(dp949
g54
(dp950
g81
g82
ssg63
g939
sg56
(lp951
S':'
asbag49
(g70
g51
NtRp952
(dp953
g54
(dp954
sg63
g939
sg56
(lp955
g49
(g50
g51
NtRp956
(dp957
g54
(dp958
g62
I4
ssg63
g952
sg56
(lp959
S'text/html,application/xhtml+xml,application/xml;q=0.9,*/*;q=0.8'
p960
asbasbasbag49
(g65
g51
NtRp961
(dp962
g54
(dp963
sg63
g778
sg56
(lp964
g49
(g70
g51
NtRp965
(dp966
g54
(dp967
g74
g75
ssg63
g961
sg56
(lp968
S'http_accept_charset'
p969
asbag49
(g70
g51
NtRp970
(dp971
g54
(dp972
g81
g82
ssg63
g961
sg56
(lp973
S':'
asbag49
(g70
g51
NtRp974
(dp975
g54
(dp976
sg63
g961
sg56
(lp977
g49
(g50
g51
NtRp978
(dp979
g54
(dp980
g62
I4
ssg63
g974
sg56
(lp981
S'GBK,utf-8;q=0.7,*;q=0.3'
p982
asbasbasbag49
(g65
g51
NtRp983
(dp984
g54
(dp985
sg63
g778
sg56
(lp986
g49
(g70
g51
NtRp987
(dp988
g54
(dp989
g74
g75
ssg63
g983
sg56
(lp990
S'http_accept_encoding'
p991
asbag49
(g70
g51
NtRp992
(dp993
g54
(dp994
g81
g82
ssg63
g983
sg56
(lp995
S':'
asbag49
(g70
g51
NtRp996
(dp997
g54
(dp998
sg63
g983
sg56
(lp999
g49
(g50
g51
NtRp1000
(dp1001
g54
(dp1002
g62
I4
ssg63
g996
sg56
(lp1003
S'gzip,deflate,sdch'
p1004
asbasbasbag49
(g65
g51
NtRp1005
(dp1006
g54
(dp1007
sg63
g778
sg56
(lp1008
g49
(g70
g51
NtRp1009
(dp1010
g54
(dp1011
g74
g75
ssg63
g1005
sg56
(lp1012
S'http_accept_language'
p1013
asbag49
(g70
g51
NtRp1014
(dp1015
g54
(dp1016
g81
g82
ssg63
g1005
sg56
(lp1017
S':'
asbag49
(g70
g51
NtRp1018
(dp1019
g54
(dp1020
sg63
g1005
sg56
(lp1021
g49
(g50
g51
NtRp1022
(dp1023
g54
(dp1024
g62
I4
ssg63
g1018
sg56
(lp1025
S'zh-CN,zh;q=0.8'
p1026
asbasbasbag49
(g65
g51
NtRp1027
(dp1028
g54
(dp1029
sg63
g778
sg56
(lp1030
g49
(g70
g51
NtRp1031
(dp1032
g54
(dp1033
g74
g75
ssg63
g1027
sg56
(lp1034
S'http_cache_control'
p1035
asbag49
(g70
g51
NtRp1036
(dp1037
g54
(dp1038
g81
g82
ssg63
g1027
sg56
(lp1039
S':'
asbag49
(g70
g51
NtRp1040
(dp1041
g54
(dp1042
sg63
g1027
sg56
(lp1043
g49
(g50
g51
NtRp1044
(dp1045
g54
(dp1046
g62
I4
ssg63
g1040
sg56
(lp1047
S'max-age=0'
p1048
asbasbasbag49
(g65
g51
NtRp1049
(dp1050
g54
(dp1051
sg63
g778
sg56
(lp1052
g49
(g70
g51
NtRp1053
(dp1054
g54
(dp1055
g74
g75
ssg63
g1049
sg56
(lp1056
S'http_connection'
p1057
asbag49
(g70
g51
NtRp1058
(dp1059
g54
(dp1060
g81
g82
ssg63
g1049
sg56
(lp1061
S':'
asbag49
(g70
g51
NtRp1062
(dp1063
g54
(dp1064
sg63
g1049
sg56
(lp1065
g49
(g50
g51
NtRp1066
(dp1067
g54
(dp1068
g62
I4
ssg63
g1062
sg56
(lp1069
S'keep-alive'
p1070
asbasbasbag49
(g65
g51
NtRp1071
(dp1072
g54
(dp1073
sg63
g778
sg56
(lp1074
g49
(g70
g51
NtRp1075
(dp1076
g54
(dp1077
g74
g75
ssg63
g1071
sg56
(lp1078
S'http_cookie'
p1079
asbag49
(g70
g51
NtRp1080
(dp1081
g54
(dp1082
g81
g82
ssg63
g1071
sg56
(lp1083
S':'
asbag49
(g70
g51
NtRp1084
(dp1085
g54
(dp1086
sg63
g1071
sg56
(lp1087
g49
(g50
g51
NtRp1088
(dp1089
g54
(dp1090
g62
I4
ssg63
g1084
sg56
(lp1091
S'session_id_welcome=127.0.0.1-2ac9e4fa-5c51-4c7c-9d24-af98e051a735; session_id_mr=127.0.0.1-56f6c833-4495-4158-afa1-0ddb41c94ce0; session_id_admin=127.0.0.1-6d643e70-8d6c-4e92-8c7e-38ba6849a536'
p1092
asbasbasbag49
(g65
g51
NtRp1093
(dp1094
g54
(dp1095
sg63
g778
sg56
(lp1096
g49
(g70
g51
NtRp1097
(dp1098
g54
(dp1099
g74
g75
ssg63
g1093
sg56
(lp1100
S'http_host'
p1101
asbag49
(g70
g51
NtRp1102
(dp1103
g54
(dp1104
g81
g82
ssg63
g1093
sg56
(lp1105
S':'
asbag49
(g70
g51
NtRp1106
(dp1107
g54
(dp1108
sg63
g1093
sg56
(lp1109
g49
(g50
g51
NtRp1110
(dp1111
g54
(dp1112
g62
I4
ssg63
g1106
sg56
(lp1113
S'127.0.0.1:8000'
p1114
asbasbasbag49
(g65
g51
NtRp1115
(dp1116
g54
(dp1117
sg63
g778
sg56
(lp1118
g49
(g70
g51
NtRp1119
(dp1120
g54
(dp1121
g74
g75
ssg63
g1115
sg56
(lp1122
S'http_user_agent'
p1123
asbag49
(g70
g51
NtRp1124
(dp1125
g54
(dp1126
g81
g82
ssg63
g1115
sg56
(lp1127
S':'
asbag49
(g70
g51
NtRp1128
(dp1129
g54
(dp1130
sg63
g1115
sg56
(lp1131
g49
(g50
g51
NtRp1132
(dp1133
g54
(dp1134
g62
I4
ssg63
g1128
sg56
(lp1135
S'Mozilla/5.0 (Macintosh; Intel Mac OS X 10_8_3) AppleWebKit/537.31 (KHTML, like Gecko) Chrome/26.0.1410.65 Safari/537.31'
p1136
asbasbasbag49
(g65
g51
NtRp1137
(dp1138
g54
(dp1139
sg63
g778
sg56
(lp1140
g49
(g70
g51
NtRp1141
(dp1142
g54
(dp1143
g74
g75
ssg63
g1137
sg56
(lp1144
S'is_jython'
p1145
asbag49
(g70
g51
NtRp1146
(dp1147
g54
(dp1148
g81
g82
ssg63
g1137
sg56
(lp1149
S':'
asbag49
(g70
g51
NtRp1150
(dp1151
g54
(dp1152
sg63
g1137
sg56
(lp1153
g49
(g50
g51
NtRp1154
(dp1155
g54
(dp1156
g62
I4
ssg63
g1150
sg56
(lp1157
g92
asbasbasbag49
(g65
g51
NtRp1158
(dp1159
g54
(dp1160
sg63
g778
sg56
(lp1161
g49
(g70
g51
NtRp1162
(dp1163
g54
(dp1164
g74
g75
ssg63
g1158
sg56
(lp1165
S'is_pypy'
p1166
asbag49
(g70
g51
NtRp1167
(dp1168
g54
(dp1169
g81
g82
ssg63
g1158
sg56
(lp1170
S':'
asbag49
(g70
g51
NtRp1171
(dp1172
g54
(dp1173
sg63
g1158
sg56
(lp1174
g49
(g50
g51
NtRp1175
(dp1176
g54
(dp1177
g62
I4
ssg63
g1171
sg56
(lp1178
g92
asbasbasbag49
(g65
g51
NtRp1179
(dp1180
g54
(dp1181
sg63
g778
sg56
(lp1182
g49
(g70
g51
NtRp1183
(dp1184
g54
(dp1185
g74
g75
ssg63
g1179
sg56
(lp1186
S'local_hosts'
p1187
asbag49
(g70
g51
NtRp1188
(dp1189
g54
(dp1190
g81
g82
ssg63
g1179
sg56
(lp1191
S':'
asbag49
(g70
g51
NtRp1192
(dp1193
g54
(dp1194
sg63
g1179
sg56
(lp1195
g49
(g50
g51
NtRp1196
(dp1197
g54
(dp1198
g62
I4
ssg63
g1192
sg56
(lp1199
g49
(g58
g51
NtRp1200
(dp1201
g54
(dp1202
g62
I3
ssg63
Nsg56
(lp1203
g49
(g65
g51
NtRp1204
(dp1205
g54
(dp1206
sg63
g1200
sg56
(lp1207
g49
(g70
g51
NtRp1208
(dp1209
g54
(dp1210
sg63
g1204
sg56
(lp1211
g49
(g50
g51
NtRp1212
(dp1213
g54
(dp1214
g62
I3
ssg63
g1208
sg56
(lp1215
S'd-173-250-203-67.dhcp4.washington.edu'
p1216
asbasbasbag49
(g65
g51
NtRp1217
(dp1218
g54
(dp1219
sg63
g1200
sg56
(lp1220
g49
(g70
g51
NtRp1221
(dp1222
g54
(dp1223
sg63
g1217
sg56
(lp1224
g49
(g50
g51
NtRp1225
(dp1226
g54
(dp1227
g62
I3
ssg63
g1221
sg56
(lp1228
S'::1'
p1229
asbasbasbag49
(g65
g51
NtRp1230
(dp1231
g54
(dp1232
sg63
g1200
sg56
(lp1233
g49
(g70
g51
NtRp1234
(dp1235
g54
(dp1236
sg63
g1230
sg56
(lp1237
g49
(g50
g51
NtRp1238
(dp1239
g54
(dp1240
g62
I3
ssg63
g1234
sg56
(lp1241
S'173.250.203.67'
p1242
asbasbasbag49
(g65
g51
NtRp1243
(dp1244
g54
(dp1245
sg63
g1200
sg56
(lp1246
g49
(g70
g51
NtRp1247
(dp1248
g54
(dp1249
sg63
g1243
sg56
(lp1250
g49
(g50
g51
NtRp1251
(dp1252
g54
(dp1253
g62
I3
ssg63
g1247
sg56
(lp1254
S'::ffff:127.0.0.1'
p1255
asbasbasbag49
(g65
g51
NtRp1256
(dp1257
g54
(dp1258
sg63
g1200
sg56
(lp1259
g49
(g70
g51
NtRp1260
(dp1261
g54
(dp1262
sg63
g1256
sg56
(lp1263
g49
(g50
g51
NtRp1264
(dp1265
g54
(dp1266
g62
I3
ssg63
g1260
sg56
(lp1267
S'127.0.0.1'
p1268
asbasbasbasbasbasbasbag49
(g65
g51
NtRp1269
(dp1270
g54
(dp1271
sg63
g778
sg56
(lp1272
g49
(g70
g51
NtRp1273
(dp1274
g54
(dp1275
g74
g75
ssg63
g1269
sg56
(lp1276
S'path_info'
p1277
asbag49
(g70
g51
NtRp1278
(dp1279
g54
(dp1280
g81
g82
ssg63
g1269
sg56
(lp1281
S':'
asbag49
(g70
g51
NtRp1282
(dp1283
g54
(dp1284
sg63
g1269
sg56
(lp1285
g49
(g50
g51
NtRp1286
(dp1287
g54
(dp1288
g62
I4
ssg63
g1282
sg56
(lp1289
S'/MR/default/mobile_user_register'
p1290
asbasbasbag49
(g65
g51
NtRp1291
(dp1292
g54
(dp1293
sg63
g778
sg56
(lp1294
g49
(g70
g51
NtRp1295
(dp1296
g54
(dp1297
g74
g75
ssg63
g1291
sg56
(lp1298
S'query_string'
p1299
asbag49
(g70
g51
NtRp1300
(dp1301
g54
(dp1302
g81
g82
ssg63
g1291
sg56
(lp1303
S':'
asbag49
(g70
g51
NtRp1304
(dp1305
g54
(dp1306
sg63
g1291
sg56
(lp1307
g49
(g50
g51
NtRp1308
(dp1309
g54
(dp1310
g62
I4
ssg63
g1304
sg56
(lp1311
S'email=adsf&password=adsf&firstname=asdf&lastname=asdf&country=asdf'
p1312
asbasbasbag49
(g65
g51
NtRp1313
(dp1314
g54
(dp1315
sg63
g778
sg56
(lp1316
g49
(g70
g51
NtRp1317
(dp1318
g54
(dp1319
g74
g75
ssg63
g1313
sg56
(lp1320
S'remote_addr'
p1321
asbag49
(g70
g51
NtRp1322
(dp1323
g54
(dp1324
g81
g82
ssg63
g1313
sg56
(lp1325
S':'
asbag49
(g70
g51
NtRp1326
(dp1327
g54
(dp1328
sg63
g1313
sg56
(lp1329
g49
(g50
g51
NtRp1330
(dp1331
g54
(dp1332
g62
I4
ssg63
g1326
sg56
(lp1333
g204
asbasbasbag49
(g65
g51
NtRp1334
(dp1335
g54
(dp1336
sg63
g778
sg56
(lp1337
g49
(g70
g51
NtRp1338
(dp1339
g54
(dp1340
g74
g75
ssg63
g1334
sg56
(lp1341
S'remote_port'
p1342
asbag49
(g70
g51
NtRp1343
(dp1344
g54
(dp1345
g81
g82
ssg63
g1334
sg56
(lp1346
S':'
asbag49
(g70
g51
NtRp1347
(dp1348
g54
(dp1349
sg63
g1334
sg56
(lp1350
g49
(g50
g51
NtRp1351
(dp1352
g54
(dp1353
g62
I4
ssg63
g1347
sg56
(lp1354
S'56945'
p1355
asbasbasbag49
(g65
g51
NtRp1356
(dp1357
g54
(dp1358
sg63
g778
sg56
(lp1359
g49
(g70
g51
NtRp1360
(dp1361
g54
(dp1362
g74
g75
ssg63
g1356
sg56
(lp1363
S'request_method'
p1364
asbag49
(g70
g51
NtRp1365
(dp1366
g54
(dp1367
g81
g82
ssg63
g1356
sg56
(lp1368
S':'
asbag49
(g70
g51
NtRp1369
(dp1370
g54
(dp1371
sg63
g1356
sg56
(lp1372
g49
(g50
g51
NtRp1373
(dp1374
g54
(dp1375
g62
I4
ssg63
g1369
sg56
(lp1376
S'GET'
p1377
asbasbasbag49
(g65
g51
NtRp1378
(dp1379
g54
(dp1380
sg63
g778
sg56
(lp1381
g49
(g70
g51
NtRp1382
(dp1383
g54
(dp1384
g74
g75
ssg63
g1378
sg56
(lp1385
S'request_uri'
p1386
asbag49
(g70
g51
NtRp1387
(dp1388
g54
(dp1389
g81
g82
ssg63
g1378
sg56
(lp1390
S':'
asbag49
(g70
g51
NtRp1391
(dp1392
g54
(dp1393
sg63
g1378
sg56
(lp1394
g49
(g50
g51
NtRp1395
(dp1396
g54
(dp1397
g62
I4
ssg63
g1391
sg56
(lp1398
S'/MR/default/mobile_user_register?email=adsf&password=adsf&firstname=asdf&lastname=asdf&country=asdf'
p1399
asbasbasbag49
(g65
g51
NtRp1400
(dp1401
g54
(dp1402
sg63
g778
sg56
(lp1403
g49
(g70
g51
NtRp1404
(dp1405
g54
(dp1406
g74
g75
ssg63
g1400
sg56
(lp1407
S'script_name'
p1408
asbag49
(g70
g51
NtRp1409
(dp1410
g54
(dp1411
g81
g82
ssg63
g1400
sg56
(lp1412
S':'
asbag49
(g70
g51
NtRp1413
(dp1414
g54
(dp1415
sg63
g1400
sg56
(lp1416
g49
(g50
g51
NtRp1417
(dp1418
g54
(dp1419
g62
I4
ssg63
g1413
sg56
(lp1420
S''
asbasbasbag49
(g65
g51
NtRp1421
(dp1422
g54
(dp1423
sg63
g778
sg56
(lp1424
g49
(g70
g51
NtRp1425
(dp1426
g54
(dp1427
g74
g75
ssg63
g1421
sg56
(lp1428
S'server_name'
p1429
asbag49
(g70
g51
NtRp1430
(dp1431
g54
(dp1432
g81
g82
ssg63
g1421
sg56
(lp1433
S':'
asbag49
(g70
g51
NtRp1434
(dp1435
g54
(dp1436
sg63
g1421
sg56
(lp1437
g49
(g50
g51
NtRp1438
(dp1439
g54
(dp1440
g62
I4
ssg63
g1434
sg56
(lp1441
S'd-173-250-203-67.dhcp4.washington.edu'
p1442
asbasbasbag49
(g65
g51
NtRp1443
(dp1444
g54
(dp1445
sg63
g778
sg56
(lp1446
g49
(g70
g51
NtRp1447
(dp1448
g54
(dp1449
g74
g75
ssg63
g1443
sg56
(lp1450
S'server_port'
p1451
asbag49
(g70
g51
NtRp1452
(dp1453
g54
(dp1454
g81
g82
ssg63
g1443
sg56
(lp1455
S':'
asbag49
(g70
g51
NtRp1456
(dp1457
g54
(dp1458
sg63
g1443
sg56
(lp1459
g49
(g50
g51
NtRp1460
(dp1461
g54
(dp1462
g62
I4
ssg63
g1456
sg56
(lp1463
S'8000'
p1464
asbasbasbag49
(g65
g51
NtRp1465
(dp1466
g54
(dp1467
sg63
g778
sg56
(lp1468
g49
(g70
g51
NtRp1469
(dp1470
g54
(dp1471
g74
g75
ssg63
g1465
sg56
(lp1472
S'server_protocol'
p1473
asbag49
(g70
g51
NtRp1474
(dp1475
g54
(dp1476
g81
g82
ssg63
g1465
sg56
(lp1477
S':'
asbag49
(g70
g51
NtRp1478
(dp1479
g54
(dp1480
sg63
g1465
sg56
(lp1481
g49
(g50
g51
NtRp1482
(dp1483
g54
(dp1484
g62
I4
ssg63
g1478
sg56
(lp1485
S'HTTP/1.1'
p1486
asbasbasbag49
(g65
g51
NtRp1487
(dp1488
g54
(dp1489
sg63
g778
sg56
(lp1490
g49
(g70
g51
NtRp1491
(dp1492
g54
(dp1493
g74
g75
ssg63
g1487
sg56
(lp1494
S'server_software'
p1495
asbag49
(g70
g51
NtRp1496
(dp1497
g54
(dp1498
g81
g82
ssg63
g1487
sg56
(lp1499
S':'
asbag49
(g70
g51
NtRp1500
(dp1501
g54
(dp1502
sg63
g1487
sg56
(lp1503
g49
(g50
g51
NtRp1504
(dp1505
g54
(dp1506
g62
I4
ssg63
g1500
sg56
(lp1507
S'Rocket 1.2.6'
p1508
asbasbasbag49
(g65
g51
NtRp1509
(dp1510
g54
(dp1511
sg63
g778
sg56
(lp1512
g49
(g70
g51
NtRp1513
(dp1514
g54
(dp1515
g74
g75
ssg63
g1509
sg56
(lp1516
S'web2py_path'
p1517
asbag49
(g70
g51
NtRp1518
(dp1519
g54
(dp1520
g81
g82
ssg63
g1509
sg56
(lp1521
S':'
asbag49
(g70
g51
NtRp1522
(dp1523
g54
(dp1524
sg63
g1509
sg56
(lp1525
g49
(g50
g51
NtRp1526
(dp1527
g54
(dp1528
g62
I4
ssg63
g1522
sg56
(lp1529
g825
asbasbasbag49
(g65
g51
NtRp1530
(dp1531
g54
(dp1532
sg63
g778
sg56
(lp1533
g49
(g70
g51
NtRp1534
(dp1535
g54
(dp1536
g74
g75
ssg63
g1530
sg56
(lp1537
S'web2py_version'
p1538
asbag49
(g70
g51
NtRp1539
(dp1540
g54
(dp1541
g81
g82
ssg63
g1530
sg56
(lp1542
S':'
asbag49
(g70
g51
NtRp1543
(dp1544
g54
(dp1545
sg63
g1530
sg56
(lp1546
g49
(g50
g51
NtRp1547
(dp1548
g54
(dp1549
g62
I4
ssg63
g1543
sg56
(lp1550
g49
(g58
g51
NtRp1551
(dp1552
g54
(dp1553
g62
I3
ssg63
Nsg56
(lp1554
g49
(g65
g51
NtRp1555
(dp1556
g54
(dp1557
sg63
g1551
sg56
(lp1558
g49
(g70
g51
NtRp1559
(dp1560
g54
(dp1561
sg63
g1555
sg56
(lp1562
g49
(g50
g51
NtRp1563
(dp1564
g54
(dp1565
g62
I3
ssg63
g1559
sg56
(lp1566
S'2'
asbasbasbag49
(g65
g51
NtRp1567
(dp1568
g54
(dp1569
sg63
g1551
sg56
(lp1570
g49
(g70
g51
NtRp1571
(dp1572
g54
(dp1573
sg63
g1567
sg56
(lp1574
g49
(g50
g51
NtRp1575
(dp1576
g54
(dp1577
g62
I3
ssg63
g1571
sg56
(lp1578
S'4'
asbasbasbag49
(g65
g51
NtRp1579
(dp1580
g54
(dp1581
sg63
g1551
sg56
(lp1582
g49
(g70
g51
NtRp1583
(dp1584
g54
(dp1585
sg63
g1579
sg56
(lp1586
g49
(g50
g51
NtRp1587
(dp1588
g54
(dp1589
g62
I3
ssg63
g1583
sg56
(lp1590
S'5'
asbasbasbag49
(g65
g51
NtRp1591
(dp1592
g54
(dp1593
sg63
g1551
sg56
(lp1594
g49
(g70
g51
NtRp1595
(dp1596
g54
(dp1597
sg63
g1591
sg56
(lp1598
g49
(g50
g51
NtRp1599
(dp1600
g54
(dp1601
g62
I3
ssg63
g1595
sg56
(lp1602
S'stable'
p1603
asbasbasbag49
(g65
g51
NtRp1604
(dp1605
g54
(dp1606
sg63
g1551
sg56
(lp1607
g49
(g70
g51
NtRp1608
(dp1609
g54
(dp1610
sg63
g1604
sg56
(lp1611
g49
(g50
g51
NtRp1612
(dp1613
g54
(dp1614
g62
I3
ssg63
g1608
sg56
(lp1615
S'datetime.datetime(2013, 3, 18, 22, 46, 22)'
p1616
asbasbasbasbasbasbasbag49
(g65
g51
NtRp1617
(dp1618
g54
(dp1619
sg63
g778
sg56
(lp1620
g49
(g70
g51
NtRp1621
(dp1622
g54
(dp1623
g74
g75
ssg63
g1617
sg56
(lp1624
S'wsgi_errors'
p1625
asbag49
(g70
g51
NtRp1626
(dp1627
g54
(dp1628
g81
g82
ssg63
g1617
sg56
(lp1629
S':'
asbag49
(g70
g51
NtRp1630
(dp1631
g54
(dp1632
sg63
g1617
sg56
(lp1633
g49
(g50
g51
NtRp1634
(dp1635
g54
(dp1636
g62
I4
ssg63
g1630
sg56
(lp1637
S"<open file '<stderr>', mode 'w' at 0x660b0>"
p1638
asbasbasbag49
(g65
g51
NtRp1639
(dp1640
g54
(dp1641
sg63
g778
sg56
(lp1642
g49
(g70
g51
NtRp1643
(dp1644
g54
(dp1645
g74
g75
ssg63
g1639
sg56
(lp1646
S'wsgi_file_wrapper'
p1647
asbag49
(g70
g51
NtRp1648
(dp1649
g54
(dp1650
g81
g82
ssg63
g1639
sg56
(lp1651
S':'
asbag49
(g70
g51
NtRp1652
(dp1653
g54
(dp1654
sg63
g1639
sg56
(lp1655
g49
(g50
g51
NtRp1656
(dp1657
g54
(dp1658
g62
I4
ssg63
g1652
sg56
(lp1659
S'<class wsgiref.util.FileWrapper at 0x452d060>'
p1660
asbasbasbag49
(g65
g51
NtRp1661
(dp1662
g54
(dp1663
sg63
g778
sg56
(lp1664
g49
(g70
g51
NtRp1665
(dp1666
g54
(dp1667
g74
g75
ssg63
g1661
sg56
(lp1668
S'wsgi_input'
p1669
asbag49
(g70
g51
NtRp1670
(dp1671
g54
(dp1672
g81
g82
ssg63
g1661
sg56
(lp1673
S':'
asbag49
(g70
g51
NtRp1674
(dp1675
g54
(dp1676
sg63
g1661
sg56
(lp1677
g49
(g50
g51
NtRp1678
(dp1679
g54
(dp1680
g62
I4
ssg63
g1674
sg56
(lp1681
S'<socket._fileobject object at 0x7e054f0>'
p1682
asbasbasbag49
(g65
g51
NtRp1683
(dp1684
g54
(dp1685
sg63
g778
sg56
(lp1686
g49
(g70
g51
NtRp1687
(dp1688
g54
(dp1689
g74
g75
ssg63
g1683
sg56
(lp1690
S'wsgi_multiprocess'
p1691
asbag49
(g70
g51
NtRp1692
(dp1693
g54
(dp1694
g81
g82
ssg63
g1683
sg56
(lp1695
S':'
asbag49
(g70
g51
NtRp1696
(dp1697
g54
(dp1698
sg63
g1683
sg56
(lp1699
g49
(g50
g51
NtRp1700
(dp1701
g54
(dp1702
g62
I4
ssg63
g1696
sg56
(lp1703
g92
asbasbasbag49
(g65
g51
NtRp1704
(dp1705
g54
(dp1706
sg63
g778
sg56
(lp1707
g49
(g70
g51
NtRp1708
(dp1709
g54
(dp1710
g74
g75
ssg63
g1704
sg56
(lp1711
S'wsgi_multithread'
p1712
asbag49
(g70
g51
NtRp1713
(dp1714
g54
(dp1715
g81
g82
ssg63
g1704
sg56
(lp1716
S':'
asbag49
(g70
g51
NtRp1717
(dp1718
g54
(dp1719
sg63
g1704
sg56
(lp1720
g49
(g50
g51
NtRp1721
(dp1722
g54
(dp1723
g62
I4
ssg63
g1717
sg56
(lp1724
g916
asbasbasbag49
(g65
g51
NtRp1725
(dp1726
g54
(dp1727
sg63
g778
sg56
(lp1728
g49
(g70
g51
NtRp1729
(dp1730
g54
(dp1731
g74
g75
ssg63
g1725
sg56
(lp1732
S'wsgi_run_once'
p1733
asbag49
(g70
g51
NtRp1734
(dp1735
g54
(dp1736
g81
g82
ssg63
g1725
sg56
(lp1737
S':'
asbag49
(g70
g51
NtRp1738
(dp1739
g54
(dp1740
sg63
g1725
sg56
(lp1741
g49
(g50
g51
NtRp1742
(dp1743
g54
(dp1744
g62
I4
ssg63
g1738
sg56
(lp1745
g92
asbasbasbag49
(g65
g51
NtRp1746
(dp1747
g54
(dp1748
sg63
g778
sg56
(lp1749
g49
(g70
g51
NtRp1750
(dp1751
g54
(dp1752
g74
g75
ssg63
g1746
sg56
(lp1753
S'wsgi_url_scheme'
p1754
asbag49
(g70
g51
NtRp1755
(dp1756
g54
(dp1757
g81
g82
ssg63
g1746
sg56
(lp1758
S':'
asbag49
(g70
g51
NtRp1759
(dp1760
g54
(dp1761
sg63
g1746
sg56
(lp1762
g49
(g50
g51
NtRp1763
(dp1764
g54
(dp1765
g62
I4
ssg63
g1759
sg56
(lp1766
S'http'
p1767
asbasbasbag49
(g65
g51
NtRp1768
(dp1769
g54
(dp1770
sg63
g778
sg56
(lp1771
g49
(g70
g51
NtRp1772
(dp1773
g54
(dp1774
g74
g75
ssg63
g1768
sg56
(lp1775
S'wsgi_version'
p1776
asbag49
(g70
g51
NtRp1777
(dp1778
g54
(dp1779
g81
g82
ssg63
g1768
sg56
(lp1780
S':'
asbag49
(g70
g51
NtRp1781
(dp1782
g54
(dp1783
sg63
g1768
sg56
(lp1784
g49
(g50
g51
NtRp1785
(dp1786
g54
(dp1787
g62
I4
ssg63
g1781
sg56
(lp1788
g49
(g58
g51
NtRp1789
(dp1790
g54
(dp1791
g62
I3
ssg63
Nsg56
(lp1792
g49
(g65
g51
NtRp1793
(dp1794
g54
(dp1795
sg63
g1789
sg56
(lp1796
g49
(g70
g51
NtRp1797
(dp1798
g54
(dp1799
sg63
g1793
sg56
(lp1800
g49
(g50
g51
NtRp1801
(dp1802
g54
(dp1803
g62
I3
ssg63
g1797
sg56
(lp1804
S'1'
asbasbasbag49
(g65
g51
NtRp1805
(dp1806
g54
(dp1807
sg63
g1789
sg56
(lp1808
g49
(g70
g51
NtRp1809
(dp1810
g54
(dp1811
sg63
g1805
sg56
(lp1812
g49
(g50
g51
NtRp1813
(dp1814
g54
(dp1815
g62
I3
ssg63
g1809
sg56
(lp1816
S'0'
asbasbasbasbasbasbasbasbasbasbasbag49
(g65
g51
NtRp1817
(dp1818
g54
(dp1819
sg63
g59
sg56
(lp1820
g49
(g70
g51
NtRp1821
(dp1822
g54
(dp1823
g74
g75
ssg63
g1817
sg56
(lp1824
S'extension'
p1825
asbag49
(g70
g51
NtRp1826
(dp1827
g54
(dp1828
g81
g82
ssg63
g1817
sg56
(lp1829
S':'
asbag49
(g70
g51
NtRp1830
(dp1831
g54
(dp1832
sg63
g1817
sg56
(lp1833
g49
(g50
g51
NtRp1834
(dp1835
g54
(dp1836
g62
I5
ssg63
g1830
sg56
(lp1837
S'html'
p1838
asbasbasbag49
(g65
g51
NtRp1839
(dp1840
g54
(dp1841
sg63
g59
sg56
(lp1842
g49
(g70
g51
NtRp1843
(dp1844
g54
(dp1845
g74
g75
ssg63
g1839
sg56
(lp1846
S'folder'
p1847
asbag49
(g70
g51
NtRp1848
(dp1849
g54
(dp1850
g81
g82
ssg63
g1839
sg56
(lp1851
S':'
asbag49
(g70
g51
NtRp1852
(dp1853
g54
(dp1854
sg63
g1839
sg56
(lp1855
g49
(g50
g51
NtRp1856
(dp1857
g54
(dp1858
g62
I5
ssg63
g1852
sg56
(lp1859
S'/Applications/web2py.app/Contents/Resources/applications/MR/'
p1860
asbasbasbag49
(g65
g51
NtRp1861
(dp1862
g54
(dp1863
sg63
g59
sg56
(lp1864
g49
(g70
g51
NtRp1865
(dp1866
g54
(dp1867
g74
g75
ssg63
g1861
sg56
(lp1868
S'function'
p1869
asbag49
(g70
g51
NtRp1870
(dp1871
g54
(dp1872
g81
g82
ssg63
g1861
sg56
(lp1873
S':'
asbag49
(g70
g51
NtRp1874
(dp1875
g54
(dp1876
sg63
g1861
sg56
(lp1877
g49
(g50
g51
NtRp1878
(dp1879
g54
(dp1880
g62
I5
ssg63
g1874
sg56
(lp1881
S'mobile_user_register'
p1882
asbasbasbag49
(g65
g51
NtRp1883
(dp1884
g54
(dp1885
sg63
g59
sg56
(lp1886
g49
(g70
g51
NtRp1887
(dp1888
g54
(dp1889
g74
g75
ssg63
g1883
sg56
(lp1890
S'get_vars'
p1891
asbag49
(g70
g51
NtRp1892
(dp1893
g54
(dp1894
g81
g82
ssg63
g1883
sg56
(lp1895
S':'
asbag49
(g70
g51
NtRp1896
(dp1897
g54
(dp1898
sg63
g1883
sg56
(lp1899
g49
(g50
g51
NtRp1900
(dp1901
g54
(dp1902
g62
I5
ssg63
g1896
sg56
(lp1903
g49
(g58
g51
NtRp1904
(dp1905
g54
(dp1906
g62
I4
ssg63
Nsg56
(lp1907
g49
(g65
g51
NtRp1908
(dp1909
g54
(dp1910
sg63
g1904
sg56
(lp1911
g49
(g70
g51
NtRp1912
(dp1913
g54
(dp1914
g74
g75
ssg63
g1908
sg56
(lp1915
S'country'
p1916
asbag49
(g70
g51
NtRp1917
(dp1918
g54
(dp1919
g81
g82
ssg63
g1908
sg56
(lp1920
S':'
asbag49
(g70
g51
NtRp1921
(dp1922
g54
(dp1923
sg63
g1908
sg56
(lp1924
g49
(g50
g51
NtRp1925
(dp1926
g54
(dp1927
g62
I4
ssg63
g1921
sg56
(lp1928
S'asdf'
p1929
asbasbasbag49
(g65
g51
NtRp1930
(dp1931
g54
(dp1932
sg63
g1904
sg56
(lp1933
g49
(g70
g51
NtRp1934
(dp1935
g54
(dp1936
g74
g75
ssg63
g1930
sg56
(lp1937
S'email'
p1938
asbag49
(g70
g51
NtRp1939
(dp1940
g54
(dp1941
g81
g82
ssg63
g1930
sg56
(lp1942
S':'
asbag49
(g70
g51
NtRp1943
(dp1944
g54
(dp1945
sg63
g1930
sg56
(lp1946
g49
(g50
g51
NtRp1947
(dp1948
g54
(dp1949
g62
I4
ssg63
g1943
sg56
(lp1950
S'adsf'
p1951
asbasbasbag49
(g65
g51
NtRp1952
(dp1953
g54
(dp1954
sg63
g1904
sg56
(lp1955
g49
(g70
g51
NtRp1956
(dp1957
g54
(dp1958
g74
g75
ssg63
g1952
sg56
(lp1959
S'firstname'
p1960
asbag49
(g70
g51
NtRp1961
(dp1962
g54
(dp1963
g81
g82
ssg63
g1952
sg56
(lp1964
S':'
asbag49
(g70
g51
NtRp1965
(dp1966
g54
(dp1967
sg63
g1952
sg56
(lp1968
g49
(g50
g51
NtRp1969
(dp1970
g54
(dp1971
g62
I4
ssg63
g1965
sg56
(lp1972
S'asdf'
p1973
asbasbasbag49
(g65
g51
NtRp1974
(dp1975
g54
(dp1976
sg63
g1904
sg56
(lp1977
g49
(g70
g51
NtRp1978
(dp1979
g54
(dp1980
g74
g75
ssg63
g1974
sg56
(lp1981
S'lastname'
p1982
asbag49
(g70
g51
NtRp1983
(dp1984
g54
(dp1985
g81
g82
ssg63
g1974
sg56
(lp1986
S':'
asbag49
(g70
g51
NtRp1987
(dp1988
g54
(dp1989
sg63
g1974
sg56
(lp1990
g49
(g50
g51
NtRp1991
(dp1992
g54
(dp1993
g62
I4
ssg63
g1987
sg56
(lp1994
S'asdf'
p1995
asbasbasbag49
(g65
g51
NtRp1996
(dp1997
g54
(dp1998
sg63
g1904
sg56
(lp1999
g49
(g70
g51
NtRp2000
(dp2001
g54
(dp2002
g74
g75
ssg63
g1996
sg56
(lp2003
S'password'
p2004
asbag49
(g70
g51
NtRp2005
(dp2006
g54
(dp2007
g81
g82
ssg63
g1996
sg56
(lp2008
S':'
asbag49
(g70
g51
NtRp2009
(dp2010
g54
(dp2011
sg63
g1996
sg56
(lp2012
g49
(g50
g51
NtRp2013
(dp2014
g54
(dp2015
g62
I4
ssg63
g2009
sg56
(lp2016
S'adsf'
p2017
asbasbasbasbasbasbasbag49
(g65
g51
NtRp2018
(dp2019
g54
(dp2020
sg63
g59
sg56
(lp2021
g49
(g70
g51
NtRp2022
(dp2023
g54
(dp2024
g74
g75
ssg63
g2018
sg56
(lp2025
S'global_settings'
p2026
asbag49
(g70
g51
NtRp2027
(dp2028
g54
(dp2029
g81
g82
ssg63
g2018
sg56
(lp2030
S':'
asbag49
(g70
g51
NtRp2031
(dp2032
g54
(dp2033
sg63
g2018
sg56
(lp2034
g49
(g50
g51
NtRp2035
(dp2036
g54
(dp2037
g62
I5
ssg63
g2031
sg56
(lp2038
g49
(g58
g51
NtRp2039
(dp2040
g54
(dp2041
g62
I4
ssg63
Nsg56
(lp2042
g49
(g65
g51
NtRp2043
(dp2044
g54
(dp2045
sg63
g2039
sg56
(lp2046
g49
(g70
g51
NtRp2047
(dp2048
g54
(dp2049
g74
g75
ssg63
g2043
sg56
(lp2050
g790
asbag49
(g70
g51
NtRp2051
(dp2052
g54
(dp2053
g81
g82
ssg63
g2043
sg56
(lp2054
S':'
asbag49
(g70
g51
NtRp2055
(dp2056
g54
(dp2057
sg63
g2043
sg56
(lp2058
g49
(g50
g51
NtRp2059
(dp2060
g54
(dp2061
g62
I4
ssg63
g2055
sg56
(lp2062
S"set(['/Applications/web2py.app/Contents/Resources/applications/admin/', '/Applications/web2py.app/Contents/Resources/applications/welcome/', '/Applications/web2py.app/Contents/Resources/applications/MR/'])"
p2063
asbasbasbag49
(g65
g51
NtRp2064
(dp2065
g54
(dp2066
sg63
g2039
sg56
(lp2067
g49
(g70
g51
NtRp2068
(dp2069
g54
(dp2070
g74
g75
ssg63
g2064
sg56
(lp2071
g812
asbag49
(g70
g51
NtRp2072
(dp2073
g54
(dp2074
g81
g82
ssg63
g2064
sg56
(lp2075
S':'
asbag49
(g70
g51
NtRp2076
(dp2077
g54
(dp2078
sg63
g2064
sg56
(lp2079
g49
(g50
g51
NtRp2080
(dp2081
g54
(dp2082
g62
I4
ssg63
g2076
sg56
(lp2083
g825
asbasbasbag49
(g65
g51
NtRp2084
(dp2085
g54
(dp2086
sg63
g2039
sg56
(lp2087
g49
(g70
g51
NtRp2088
(dp2089
g54
(dp2090
g74
g75
ssg63
g2084
sg56
(lp2091
g834
asbag49
(g70
g51
NtRp2092
(dp2093
g54
(dp2094
g81
g82
ssg63
g2084
sg56
(lp2095
S':'
asbag49
(g70
g51
NtRp2096
(dp2097
g54
(dp2098
sg63
g2084
sg56
(lp2099
g49
(g50
g51
NtRp2100
(dp2101
g54
(dp2102
g62
I4
ssg63
g2096
sg56
(lp2103
g49
(g58
g51
NtRp2104
(dp2105
g54
(dp2106
g62
I3
ssg63
Nsg56
(lp2107
sbasbasbasbag49
(g65
g51
NtRp2108
(dp2109
g54
(dp2110
sg63
g2039
sg56
(lp2111
g49
(g70
g51
NtRp2112
(dp2113
g54
(dp2114
g74
g75
ssg63
g2108
sg56
(lp2115
g859
asbag49
(g70
g51
NtRp2116
(dp2117
g54
(dp2118
g81
g82
ssg63
g2108
sg56
(lp2119
S':'
asbag49
(g70
g51
NtRp2120
(dp2121
g54
(dp2122
sg63
g2108
sg56
(lp2123
g49
(g50
g51
NtRp2124
(dp2125
g54
(dp2126
g62
I4
ssg63
g2120
sg56
(lp2127
S"<Values at 0x4554f58: {'verbose': False, 'ip': '127.0.0.1', 'with_scheduler': False, 'ips': ['173.250.203.67'], 'shutdown_timeout': 5, 'taskbar': False, 'port': 8000, 'maxthreads': None, 'softcron': False, 'server_name': 'd-173-250-203-67.dhcp4.washington.edu', 'bpython': False, 'nogui': False, 'pid_filename': 'httpserver.pid', 'extcron': False, 'runcron': False, 'run_system_tests': False, 'test': None, 'folder': '/Applications/web2py.app/Contents/Resources', 'config': '', 'import_models': False, 'winservice': '', 'shell': None, 'run': '', 'log_filename': 'httpserver.log', 'debuglevel': 30, 'args': [''], 'socket_timeout': 5, 'ssl_ca_certificate': None, 'scheduler': None, 'profiler_filename': None, 'ssl_private_key': '', 'scheduler_groups': None, 'password': '<ask>', 'request_queue_size': 5, 'ssl_certificate': '', 'cronjob': False, 'numthreads': None, 'quiet': False, 'interfaces': None, 'minthreads': None, 'timeout': 10, 'plain': False, 'nobanner': False}>"
p2128
asbasbasbag49
(g65
g51
NtRp2129
(dp2130
g54
(dp2131
sg63
g2039
sg56
(lp2132
g49
(g70
g51
NtRp2133
(dp2134
g54
(dp2135
g74
g75
ssg63
g2129
sg56
(lp2136
g881
asbag49
(g70
g51
NtRp2137
(dp2138
g54
(dp2139
g81
g82
ssg63
g2129
sg56
(lp2140
S':'
asbag49
(g70
g51
NtRp2141
(dp2142
g54
(dp2143
sg63
g2129
sg56
(lp2144
g49
(g50
g51
NtRp2145
(dp2146
g54
(dp2147
g62
I4
ssg63
g2141
sg56
(lp2148
S'set([])'
p2149
asbasbasbag49
(g65
g51
NtRp2150
(dp2151
g54
(dp2152
sg63
g2039
sg56
(lp2153
g49
(g70
g51
NtRp2154
(dp2155
g54
(dp2156
g74
g75
ssg63
g2150
sg56
(lp2157
g903
asbag49
(g70
g51
NtRp2158
(dp2159
g54
(dp2160
g81
g82
ssg63
g2150
sg56
(lp2161
S':'
asbag49
(g70
g51
NtRp2162
(dp2163
g54
(dp2164
sg63
g2150
sg56
(lp2165
g49
(g50
g51
NtRp2166
(dp2167
g54
(dp2168
g62
I4
ssg63
g2162
sg56
(lp2169
g916
asbasbasbag49
(g65
g51
NtRp2170
(dp2171
g54
(dp2172
sg63
g2039
sg56
(lp2173
g49
(g70
g51
NtRp2174
(dp2175
g54
(dp2176
g74
g75
ssg63
g2170
sg56
(lp2177
g925
asbag49
(g70
g51
NtRp2178
(dp2179
g54
(dp2180
g81
g82
ssg63
g2170
sg56
(lp2181
S':'
asbag49
(g70
g51
NtRp2182
(dp2183
g54
(dp2184
sg63
g2170
sg56
(lp2185
g49
(g50
g51
NtRp2186
(dp2187
g54
(dp2188
g62
I4
ssg63
g2182
sg56
(lp2189
g938
asbasbasbag49
(g65
g51
NtRp2190
(dp2191
g54
(dp2192
sg63
g2039
sg56
(lp2193
g49
(g70
g51
NtRp2194
(dp2195
g54
(dp2196
g74
g75
ssg63
g2190
sg56
(lp2197
g1145
asbag49
(g70
g51
NtRp2198
(dp2199
g54
(dp2200
g81
g82
ssg63
g2190
sg56
(lp2201
S':'
asbag49
(g70
g51
NtRp2202
(dp2203
g54
(dp2204
sg63
g2190
sg56
(lp2205
g49
(g50
g51
NtRp2206
(dp2207
g54
(dp2208
g62
I4
ssg63
g2202
sg56
(lp2209
g92
asbasbasbag49
(g65
g51
NtRp2210
(dp2211
g54
(dp2212
sg63
g2039
sg56
(lp2213
g49
(g70
g51
NtRp2214
(dp2215
g54
(dp2216
g74
g75
ssg63
g2210
sg56
(lp2217
g1166
asbag49
(g70
g51
NtRp2218
(dp2219
g54
(dp2220
g81
g82
ssg63
g2210
sg56
(lp2221
S':'
asbag49
(g70
g51
NtRp2222
(dp2223
g54
(dp2224
sg63
g2210
sg56
(lp2225
g49
(g50
g51
NtRp2226
(dp2227
g54
(dp2228
g62
I4
ssg63
g2222
sg56
(lp2229
g92
asbasbasbag49
(g65
g51
NtRp2230
(dp2231
g54
(dp2232
sg63
g2039
sg56
(lp2233
g49
(g70
g51
NtRp2234
(dp2235
g54
(dp2236
g74
g75
ssg63
g2230
sg56
(lp2237
g1187
asbag49
(g70
g51
NtRp2238
(dp2239
g54
(dp2240
g81
g82
ssg63
g2230
sg56
(lp2241
S':'
asbag49
(g70
g51
NtRp2242
(dp2243
g54
(dp2244
sg63
g2230
sg56
(lp2245
g49
(g50
g51
NtRp2246
(dp2247
g54
(dp2248
g62
I4
ssg63
g2242
sg56
(lp2249
g49
(g58
g51
NtRp2250
(dp2251
g54
(dp2252
g62
I3
ssg63
Nsg56
(lp2253
g49
(g65
g51
NtRp2254
(dp2255
g54
(dp2256
sg63
g2250
sg56
(lp2257
g49
(g70
g51
NtRp2258
(dp2259
g54
(dp2260
sg63
g2254
sg56
(lp2261
g49
(g50
g51
NtRp2262
(dp2263
g54
(dp2264
g62
I3
ssg63
g2258
sg56
(lp2265
g1216
asbasbasbag49
(g65
g51
NtRp2266
(dp2267
g54
(dp2268
sg63
g2250
sg56
(lp2269
g49
(g70
g51
NtRp2270
(dp2271
g54
(dp2272
sg63
g2266
sg56
(lp2273
g49
(g50
g51
NtRp2274
(dp2275
g54
(dp2276
g62
I3
ssg63
g2270
sg56
(lp2277
g1229
asbasbasbag49
(g65
g51
NtRp2278
(dp2279
g54
(dp2280
sg63
g2250
sg56
(lp2281
g49
(g70
g51
NtRp2282
(dp2283
g54
(dp2284
sg63
g2278
sg56
(lp2285
g49
(g50
g51
NtRp2286
(dp2287
g54
(dp2288
g62
I3
ssg63
g2282
sg56
(lp2289
g1242
asbasbasbag49
(g65
g51
NtRp2290
(dp2291
g54
(dp2292
sg63
g2250
sg56
(lp2293
g49
(g70
g51
NtRp2294
(dp2295
g54
(dp2296
sg63
g2290
sg56
(lp2297
g49
(g50
g51
NtRp2298
(dp2299
g54
(dp2300
g62
I3
ssg63
g2294
sg56
(lp2301
g1255
asbasbasbag49
(g65
g51
NtRp2302
(dp2303
g54
(dp2304
sg63
g2250
sg56
(lp2305
g49
(g70
g51
NtRp2306
(dp2307
g54
(dp2308
sg63
g2302
sg56
(lp2309
g49
(g50
g51
NtRp2310
(dp2311
g54
(dp2312
g62
I3
ssg63
g2306
sg56
(lp2313
g1268
asbasbasbasbasbasbasbag49
(g65
g51
NtRp2314
(dp2315
g54
(dp2316
sg63
g2039
sg56
(lp2317
g49
(g70
g51
NtRp2318
(dp2319
g54
(dp2320
g74
g75
ssg63
g2314
sg56
(lp2321
g1538
asbag49
(g70
g51
NtRp2322
(dp2323
g54
(dp2324
g81
g82
ssg63
g2314
sg56
(lp2325
S':'
asbag49
(g70
g51
NtRp2326
(dp2327
g54
(dp2328
sg63
g2314
sg56
(lp2329
g49
(g50
g51
NtRp2330
(dp2331
g54
(dp2332
g62
I4
ssg63
g2326
sg56
(lp2333
g49
(g58
g51
NtRp2334
(dp2335
g54
(dp2336
g62
I3
ssg63
Nsg56
(lp2337
g49
(g65
g51
NtRp2338
(dp2339
g54
(dp2340
sg63
g2334
sg56
(lp2341
g49
(g70
g51
NtRp2342
(dp2343
g54
(dp2344
sg63
g2338
sg56
(lp2345
g49
(g50
g51
NtRp2346
(dp2347
g54
(dp2348
g62
I3
ssg63
g2342
sg56
(lp2349
S'2'
asbasbasbag49
(g65
g51
NtRp2350
(dp2351
g54
(dp2352
sg63
g2334
sg56
(lp2353
g49
(g70
g51
NtRp2354
(dp2355
g54
(dp2356
sg63
g2350
sg56
(lp2357
g49
(g50
g51
NtRp2358
(dp2359
g54
(dp2360
g62
I3
ssg63
g2354
sg56
(lp2361
S'4'
asbasbasbag49
(g65
g51
NtRp2362
(dp2363
g54
(dp2364
sg63
g2334
sg56
(lp2365
g49
(g70
g51
NtRp2366
(dp2367
g54
(dp2368
sg63
g2362
sg56
(lp2369
g49
(g50
g51
NtRp2370
(dp2371
g54
(dp2372
g62
I3
ssg63
g2366
sg56
(lp2373
S'5'
asbasbasbag49
(g65
g51
NtRp2374
(dp2375
g54
(dp2376
sg63
g2334
sg56
(lp2377
g49
(g70
g51
NtRp2378
(dp2379
g54
(dp2380
sg63
g2374
sg56
(lp2381
g49
(g50
g51
NtRp2382
(dp2383
g54
(dp2384
g62
I3
ssg63
g2378
sg56
(lp2385
g1603
asbasbasbag49
(g65
g51
NtRp2386
(dp2387
g54
(dp2388
sg63
g2334
sg56
(lp2389
g49
(g70
g51
NtRp2390
(dp2391
g54
(dp2392
sg63
g2386
sg56
(lp2393
g49
(g50
g51
NtRp2394
(dp2395
g54
(dp2396
g62
I3
ssg63
g2390
sg56
(lp2397
S'datetime.datetime(2013, 3, 18, 22, 46, 22)'
p2398
asbasbasbasbasbasbasbasbasbasbasbag49
(g65
g51
NtRp2399
(dp2400
g54
(dp2401
sg63
g59
sg56
(lp2402
g49
(g70
g51
NtRp2403
(dp2404
g54
(dp2405
g74
g75
ssg63
g2399
sg56
(lp2406
S'is_https'
p2407
asbag49
(g70
g51
NtRp2408
(dp2409
g54
(dp2410
g81
g82
ssg63
g2399
sg56
(lp2411
S':'
asbag49
(g70
g51
NtRp2412
(dp2413
g54
(dp2414
sg63
g2399
sg56
(lp2415
g49
(g50
g51
NtRp2416
(dp2417
g54
(dp2418
g62
I5
ssg63
g2412
sg56
(lp2419
g92
asbasbasbag49
(g65
g51
NtRp2420
(dp2421
g54
(dp2422
sg63
g59
sg56
(lp2423
g49
(g70
g51
NtRp2424
(dp2425
g54
(dp2426
g74
g75
ssg63
g2420
sg56
(lp2427
S'is_local'
p2428
asbag49
(g70
g51
NtRp2429
(dp2430
g54
(dp2431
g81
g82
ssg63
g2420
sg56
(lp2432
S':'
asbag49
(g70
g51
NtRp2433
(dp2434
g54
(dp2435
sg63
g2420
sg56
(lp2436
g49
(g50
g51
NtRp2437
(dp2438
g54
(dp2439
g62
I5
ssg63
g2433
sg56
(lp2440
g916
asbasbasbag49
(g65
g51
NtRp2441
(dp2442
g54
(dp2443
sg63
g59
sg56
(lp2444
g49
(g70
g51
NtRp2445
(dp2446
g54
(dp2447
g74
g75
ssg63
g2441
sg56
(lp2448
S'is_restful'
p2449
asbag49
(g70
g51
NtRp2450
(dp2451
g54
(dp2452
g81
g82
ssg63
g2441
sg56
(lp2453
S':'
asbag49
(g70
g51
NtRp2454
(dp2455
g54
(dp2456
sg63
g2441
sg56
(lp2457
g49
(g50
g51
NtRp2458
(dp2459
g54
(dp2460
g62
I5
ssg63
g2454
sg56
(lp2461
g92
asbasbasbag49
(g65
g51
NtRp2462
(dp2463
g54
(dp2464
sg63
g59
sg56
(lp2465
g49
(g70
g51
NtRp2466
(dp2467
g54
(dp2468
g74
g75
ssg63
g2462
sg56
(lp2469
S'now'
p2470
asbag49
(g70
g51
NtRp2471
(dp2472
g54
(dp2473
g81
g82
ssg63
g2462
sg56
(lp2474
S':'
asbag49
(g70
g51
NtRp2475
(dp2476
g54
(dp2477
sg63
g2462
sg56
(lp2478
g49
(g50
g51
NtRp2479
(dp2480
g54
(dp2481
g62
I5
ssg63
g2475
sg56
(lp2482
S'datetime.datetime(2013, 4, 15, 17, 40, 51, 779291)'
p2483
asbasbasbag49
(g65
g51
NtRp2484
(dp2485
g54
(dp2486
sg63
g59
sg56
(lp2487
g49
(g70
g51
NtRp2488
(dp2489
g54
(dp2490
g74
g75
ssg63
g2484
sg56
(lp2491
S'post_vars'
p2492
asbag49
(g70
g51
NtRp2493
(dp2494
g54
(dp2495
g81
g82
ssg63
g2484
sg56
(lp2496
S':'
asbag49
(g70
g51
NtRp2497
(dp2498
g54
(dp2499
sg63
g2484
sg56
(lp2500
g49
(g50
g51
NtRp2501
(dp2502
g54
(dp2503
g62
I5
ssg63
g2497
sg56
(lp2504
g49
(g58
g51
NtRp2505
(dp2506
g54
(dp2507
g62
I4
ssg63
Nsg56
(lp2508
sbasbasbasbag49
(g65
g51
NtRp2509
(dp2510
g54
(dp2511
sg63
g59
sg56
(lp2512
g49
(g70
g51
NtRp2513
(dp2514
g54
(dp2515
g74
g75
ssg63
g2509
sg56
(lp2516
S'raw_args'
p2517
asbag49
(g70
g51
NtRp2518
(dp2519
g54
(dp2520
g81
g82
ssg63
g2509
sg56
(lp2521
S':'
asbag49
(g70
g51
NtRp2522
(dp2523
g54
(dp2524
sg63
g2509
sg56
(lp2525
g49
(g50
g51
NtRp2526
(dp2527
g54
(dp2528
g62
I5
ssg63
g2522
sg56
(lp2529
S''
asbasbasbag49
(g65
g51
NtRp2530
(dp2531
g54
(dp2532
sg63
g59
sg56
(lp2533
g49
(g70
g51
NtRp2534
(dp2535
g54
(dp2536
g74
g75
ssg63
g2530
sg56
(lp2537
S'raw_extension'
p2538
asbag49
(g70
g51
NtRp2539
(dp2540
g54
(dp2541
g81
g82
ssg63
g2530
sg56
(lp2542
S':'
asbag49
(g70
g51
NtRp2543
(dp2544
g54
(dp2545
sg63
g2530
sg56
(lp2546
g49
(g50
g51
NtRp2547
(dp2548
g54
(dp2549
g62
I5
ssg63
g2543
sg56
(lp2550
S'None'
p2551
asbasbasbag49
(g65
g51
NtRp2552
(dp2553
g54
(dp2554
sg63
g59
sg56
(lp2555
g49
(g70
g51
NtRp2556
(dp2557
g54
(dp2558
g74
g75
ssg63
g2552
sg56
(lp2559
S'url'
p2560
asbag49
(g70
g51
NtRp2561
(dp2562
g54
(dp2563
g81
g82
ssg63
g2552
sg56
(lp2564
S':'
asbag49
(g70
g51
NtRp2565
(dp2566
g54
(dp2567
sg63
g2552
sg56
(lp2568
g49
(g50
g51
NtRp2569
(dp2570
g54
(dp2571
g62
I5
ssg63
g2565
sg56
(lp2572
g1290
asbasbasbag49
(g65
g51
NtRp2573
(dp2574
g54
(dp2575
sg63
g59
sg56
(lp2576
g49
(g70
g51
NtRp2577
(dp2578
g54
(dp2579
g74
g75
ssg63
g2573
sg56
(lp2580
S'utcnow'
p2581
asbag49
(g70
g51
NtRp2582
(dp2583
g54
(dp2584
g81
g82
ssg63
g2573
sg56
(lp2585
S':'
asbag49
(g70
g51
NtRp2586
(dp2587
g54
(dp2588
sg63
g2573
sg56
(lp2589
g49
(g50
g51
NtRp2590
(dp2591
g54
(dp2592
g62
I5
ssg63
g2586
sg56
(lp2593
S'datetime.datetime(2013, 4, 16, 0, 40, 51, 779303)'
p2594
asbasbasbag49
(g65
g51
NtRp2595
(dp2596
g54
(dp2597
sg63
g59
sg56
(lp2598
g49
(g70
g51
NtRp2599
(dp2600
g54
(dp2601
g74
g75
ssg63
g2595
sg56
(lp2602
S'uuid'
p2603
asbag49
(g70
g51
NtRp2604
(dp2605
g54
(dp2606
g81
g82
ssg63
g2595
sg56
(lp2607
S':'
asbag49
(g70
g51
NtRp2608
(dp2609
g54
(dp2610
sg63
g2595
sg56
(lp2611
g49
(g50
g51
NtRp2612
(dp2613
g54
(dp2614
g62
I5
ssg63
g2608
sg56
(lp2615
S'MR/127.0.0.1.2013-04-15.17-40-51.12cc66df-e84f-4b22-a41d-1851d4271dd3'
p2616
asbasbasbag49
(g65
g51
NtRp2617
(dp2618
g54
(dp2619
sg63
g59
sg56
(lp2620
g49
(g70
g51
NtRp2621
(dp2622
g54
(dp2623
g74
g75
ssg63
g2617
sg56
(lp2624
S'vars'
p2625
asbag49
(g70
g51
NtRp2626
(dp2627
g54
(dp2628
g81
g82
ssg63
g2617
sg56
(lp2629
S':'
asbag49
(g70
g51
NtRp2630
(dp2631
g54
(dp2632
sg63
g2617
sg56
(lp2633
g49
(g50
g51
NtRp2634
(dp2635
g54
(dp2636
g62
I5
ssg63
g2630
sg56
(lp2637
g49
(g58
g51
NtRp2638
(dp2639
g54
(dp2640
g62
I4
ssg63
Nsg56
(lp2641
g49
(g65
g51
NtRp2642
(dp2643
g54
(dp2644
sg63
g2638
sg56
(lp2645
g49
(g70
g51
NtRp2646
(dp2647
g54
(dp2648
g74
g75
ssg63
g2642
sg56
(lp2649
g1916
asbag49
(g70
g51
NtRp2650
(dp2651
g54
(dp2652
g81
g82
ssg63
g2642
sg56
(lp2653
S':'
asbag49
(g70
g51
NtRp2654
(dp2655
g54
(dp2656
sg63
g2642
sg56
(lp2657
g49
(g50
g51
NtRp2658
(dp2659
g54
(dp2660
g62
I4
ssg63
g2654
sg56
(lp2661
g1929
asbasbasbag49
(g65
g51
NtRp2662
(dp2663
g54
(dp2664
sg63
g2638
sg56
(lp2665
g49
(g70
g51
NtRp2666
(dp2667
g54
(dp2668
g74
g75
ssg63
g2662
sg56
(lp2669
g1938
asbag49
(g70
g51
NtRp2670
(dp2671
g54
(dp2672
g81
g82
ssg63
g2662
sg56
(lp2673
S':'
asbag49
(g70
g51
NtRp2674
(dp2675
g54
(dp2676
sg63
g2662
sg56
(lp2677
g49
(g50
g51
NtRp2678
(dp2679
g54
(dp2680
g62
I4
ssg63
g2674
sg56
(lp2681
g1951
asbasbasbag49
(g65
g51
NtRp2682
(dp2683
g54
(dp2684
sg63
g2638
sg56
(lp2685
g49
(g70
g51
NtRp2686
(dp2687
g54
(dp2688
g74
g75
ssg63
g2682
sg56
(lp2689
g1960
asbag49
(g70
g51
NtRp2690
(dp2691
g54
(dp2692
g81
g82
ssg63
g2682
sg56
(lp2693
S':'
asbag49
(g70
g51
NtRp2694
(dp2695
g54
(dp2696
sg63
g2682
sg56
(lp2697
g49
(g50
g51
NtRp2698
(dp2699
g54
(dp2700
g62
I4
ssg63
g2694
sg56
(lp2701
g1973
asbasbasbag49
(g65
g51
NtRp2702
(dp2703
g54
(dp2704
sg63
g2638
sg56
(lp2705
g49
(g70
g51
NtRp2706
(dp2707
g54
(dp2708
g74
g75
ssg63
g2702
sg56
(lp2709
g1982
asbag49
(g70
g51
NtRp2710
(dp2711
g54
(dp2712
g81
g82
ssg63
g2702
sg56
(lp2713
S':'
asbag49
(g70
g51
NtRp2714
(dp2715
g54
(dp2716
sg63
g2702
sg56
(lp2717
g49
(g50
g51
NtRp2718
(dp2719
g54
(dp2720
g62
I4
ssg63
g2714
sg56
(lp2721
g1995
asbasbasbag49
(g65
g51
NtRp2722
(dp2723
g54
(dp2724
sg63
g2638
sg56
(lp2725
g49
(g70
g51
NtRp2726
(dp2727
g54
(dp2728
g74
g75
ssg63
g2722
sg56
(lp2729
g2004
asbag49
(g70
g51
NtRp2730
(dp2731
g54
(dp2732
g81
g82
ssg63
g2722
sg56
(lp2733
S':'
asbag49
(g70
g51
NtRp2734
(dp2735
g54
(dp2736
sg63
g2722
sg56
(lp2737
g49
(g50
g51
NtRp2738
(dp2739
g54
(dp2740
g62
I4
ssg63
g2734
sg56
(lp2741
g2017
asbasbasbasbasbasbasbag49
(g65
g51
NtRp2742
(dp2743
g54
(dp2744
sg63
g59
sg56
(lp2745
g49
(g70
g51
NtRp2746
(dp2747
g54
(dp2748
g74
g75
ssg63
g2742
sg56
(lp2749
S'wsgi'
p2750
asbag49
(g70
g51
NtRp2751
(dp2752
g54
(dp2753
g81
g82
ssg63
g2742
sg56
(lp2754
S':'
asbag49
(g70
g51
NtRp2755
(dp2756
g54
(dp2757
sg63
g2742
sg56
(lp2758
g49
(g50
g51
NtRp2759
(dp2760
g54
(dp2761
g62
I5
ssg63
g2755
sg56
(lp2762
g49
(g58
g51
NtRp2763
(dp2764
g54
(dp2765
g62
I4
ssg63
Nsg56
(lp2766
g49
(g65
g51
NtRp2767
(dp2768
g54
(dp2769
sg63
g2763
sg56
(lp2770
g49
(g70
g51
NtRp2771
(dp2772
g54
(dp2773
g74
g75
ssg63
g2767
sg56
(lp2774
S'environ'
p2775
asbag49
(g70
g51
NtRp2776
(dp2777
g54
(dp2778
g81
g82
ssg63
g2767
sg56
(lp2779
S':'
asbag49
(g70
g51
NtRp2780
(dp2781
g54
(dp2782
sg63
g2767
sg56
(lp2783
g49
(g50
g51
NtRp2784
(dp2785
g54
(dp2786
g62
I4
ssg63
g2780
sg56
(lp2787
g49
(g58
g51
NtRp2788
(dp2789
g54
(dp2790
g62
I3
ssg63
Nsg56
(lp2791
g49
(g65
g51
NtRp2792
(dp2793
g54
(dp2794
sg63
g2788
sg56
(lp2795
g49
(g70
g51
NtRp2796
(dp2797
g54
(dp2798
g74
g75
ssg63
g2792
sg56
(lp2799
S'HTTP_ACCEPT'
p2800
asbag49
(g70
g51
NtRp2801
(dp2802
g54
(dp2803
g81
g82
ssg63
g2792
sg56
(lp2804
S':'
asbag49
(g70
g51
NtRp2805
(dp2806
g54
(dp2807
sg63
g2792
sg56
(lp2808
g49
(g50
g51
NtRp2809
(dp2810
g54
(dp2811
g62
I3
ssg63
g2805
sg56
(lp2812
g960
asbasbasbag49
(g65
g51
NtRp2813
(dp2814
g54
(dp2815
sg63
g2788
sg56
(lp2816
g49
(g70
g51
NtRp2817
(dp2818
g54
(dp2819
g74
g75
ssg63
g2813
sg56
(lp2820
S'HTTP_ACCEPT_CHARSET'
p2821
asbag49
(g70
g51
NtRp2822
(dp2823
g54
(dp2824
g81
g82
ssg63
g2813
sg56
(lp2825
S':'
asbag49
(g70
g51
NtRp2826
(dp2827
g54
(dp2828
sg63
g2813
sg56
(lp2829
g49
(g50
g51
NtRp2830
(dp2831
g54
(dp2832
g62
I3
ssg63
g2826
sg56
(lp2833
g982
asbasbasbag49
(g65
g51
NtRp2834
(dp2835
g54
(dp2836
sg63
g2788
sg56
(lp2837
g49
(g70
g51
NtRp2838
(dp2839
g54
(dp2840
g74
g75
ssg63
g2834
sg56
(lp2841
S'HTTP_ACCEPT_ENCODING'
p2842
asbag49
(g70
g51
NtRp2843
(dp2844
g54
(dp2845
g81
g82
ssg63
g2834
sg56
(lp2846
S':'
asbag49
(g70
g51
NtRp2847
(dp2848
g54
(dp2849
sg63
g2834
sg56
(lp2850
g49
(g50
g51
NtRp2851
(dp2852
g54
(dp2853
g62
I3
ssg63
g2847
sg56
(lp2854
g1004
asbasbasbag49
(g65
g51
NtRp2855
(dp2856
g54
(dp2857
sg63
g2788
sg56
(lp2858
g49
(g70
g51
NtRp2859
(dp2860
g54
(dp2861
g74
g75
ssg63
g2855
sg56
(lp2862
S'HTTP_ACCEPT_LANGUAGE'
p2863
asbag49
(g70
g51
NtRp2864
(dp2865
g54
(dp2866
g81
g82
ssg63
g2855
sg56
(lp2867
S':'
asbag49
(g70
g51
NtRp2868
(dp2869
g54
(dp2870
sg63
g2855
sg56
(lp2871
g49
(g50
g51
NtRp2872
(dp2873
g54
(dp2874
g62
I3
ssg63
g2868
sg56
(lp2875
g1026
asbasbasbag49
(g65
g51
NtRp2876
(dp2877
g54
(dp2878
sg63
g2788
sg56
(lp2879
g49
(g70
g51
NtRp2880
(dp2881
g54
(dp2882
g74
g75
ssg63
g2876
sg56
(lp2883
S'HTTP_CACHE_CONTROL'
p2884
asbag49
(g70
g51
NtRp2885
(dp2886
g54
(dp2887
g81
g82
ssg63
g2876
sg56
(lp2888
S':'
asbag49
(g70
g51
NtRp2889
(dp2890
g54
(dp2891
sg63
g2876
sg56
(lp2892
g49
(g50
g51
NtRp2893
(dp2894
g54
(dp2895
g62
I3
ssg63
g2889
sg56
(lp2896
g1048
asbasbasbag49
(g65
g51
NtRp2897
(dp2898
g54
(dp2899
sg63
g2788
sg56
(lp2900
g49
(g70
g51
NtRp2901
(dp2902
g54
(dp2903
g74
g75
ssg63
g2897
sg56
(lp2904
S'HTTP_CONNECTION'
p2905
asbag49
(g70
g51
NtRp2906
(dp2907
g54
(dp2908
g81
g82
ssg63
g2897
sg56
(lp2909
S':'
asbag49
(g70
g51
NtRp2910
(dp2911
g54
(dp2912
sg63
g2897
sg56
(lp2913
g49
(g50
g51
NtRp2914
(dp2915
g54
(dp2916
g62
I3
ssg63
g2910
sg56
(lp2917
g1070
asbasbasbag49
(g65
g51
NtRp2918
(dp2919
g54
(dp2920
sg63
g2788
sg56
(lp2921
g49
(g70
g51
NtRp2922
(dp2923
g54
(dp2924
g74
g75
ssg63
g2918
sg56
(lp2925
S'HTTP_COOKIE'
p2926
asbag49
(g70
g51
NtRp2927
(dp2928
g54
(dp2929
g81
g82
ssg63
g2918
sg56
(lp2930
S':'
asbag49
(g70
g51
NtRp2931
(dp2932
g54
(dp2933
sg63
g2918
sg56
(lp2934
g49
(g50
g51
NtRp2935
(dp2936
g54
(dp2937
g62
I3
ssg63
g2931
sg56
(lp2938
g1092
asbasbasbag49
(g65
g51
NtRp2939
(dp2940
g54
(dp2941
sg63
g2788
sg56
(lp2942
g49
(g70
g51
NtRp2943
(dp2944
g54
(dp2945
g74
g75
ssg63
g2939
sg56
(lp2946
S'HTTP_HOST'
p2947
asbag49
(g70
g51
NtRp2948
(dp2949
g54
(dp2950
g81
g82
ssg63
g2939
sg56
(lp2951
S':'
asbag49
(g70
g51
NtRp2952
(dp2953
g54
(dp2954
sg63
g2939
sg56
(lp2955
g49
(g50
g51
NtRp2956
(dp2957
g54
(dp2958
g62
I3
ssg63
g2952
sg56
(lp2959
g1114
asbasbasbag49
(g65
g51
NtRp2960
(dp2961
g54
(dp2962
sg63
g2788
sg56
(lp2963
g49
(g70
g51
NtRp2964
(dp2965
g54
(dp2966
g74
g75
ssg63
g2960
sg56
(lp2967
S'HTTP_USER_AGENT'
p2968
asbag49
(g70
g51
NtRp2969
(dp2970
g54
(dp2971
g81
g82
ssg63
g2960
sg56
(lp2972
S':'
asbag49
(g70
g51
NtRp2973
(dp2974
g54
(dp2975
sg63
g2960
sg56
(lp2976
g49
(g50
g51
NtRp2977
(dp2978
g54
(dp2979
g62
I3
ssg63
g2973
sg56
(lp2980
g1136
asbasbasbag49
(g65
g51
NtRp2981
(dp2982
g54
(dp2983
sg63
g2788
sg56
(lp2984
g49
(g70
g51
NtRp2985
(dp2986
g54
(dp2987
g74
g75
ssg63
g2981
sg56
(lp2988
S'PATH_INFO'
p2989
asbag49
(g70
g51
NtRp2990
(dp2991
g54
(dp2992
g81
g82
ssg63
g2981
sg56
(lp2993
S':'
asbag49
(g70
g51
NtRp2994
(dp2995
g54
(dp2996
sg63
g2981
sg56
(lp2997
g49
(g50
g51
NtRp2998
(dp2999
g54
(dp3000
g62
I3
ssg63
g2994
sg56
(lp3001
g1290
asbasbasbag49
(g65
g51
NtRp3002
(dp3003
g54
(dp3004
sg63
g2788
sg56
(lp3005
g49
(g70
g51
NtRp3006
(dp3007
g54
(dp3008
g74
g75
ssg63
g3002
sg56
(lp3009
S'QUERY_STRING'
p3010
asbag49
(g70
g51
NtRp3011
(dp3012
g54
(dp3013
g81
g82
ssg63
g3002
sg56
(lp3014
S':'
asbag49
(g70
g51
NtRp3015
(dp3016
g54
(dp3017
sg63
g3002
sg56
(lp3018
g49
(g50
g51
NtRp3019
(dp3020
g54
(dp3021
g62
I3
ssg63
g3015
sg56
(lp3022
g1312
asbasbasbag49
(g65
g51
NtRp3023
(dp3024
g54
(dp3025
sg63
g2788
sg56
(lp3026
g49
(g70
g51
NtRp3027
(dp3028
g54
(dp3029
g74
g75
ssg63
g3023
sg56
(lp3030
S'REMOTE_ADDR'
p3031
asbag49
(g70
g51
NtRp3032
(dp3033
g54
(dp3034
g81
g82
ssg63
g3023
sg56
(lp3035
S':'
asbag49
(g70
g51
NtRp3036
(dp3037
g54
(dp3038
sg63
g3023
sg56
(lp3039
g49
(g50
g51
NtRp3040
(dp3041
g54
(dp3042
g62
I3
ssg63
g3036
sg56
(lp3043
g204
asbasbasbag49
(g65
g51
NtRp3044
(dp3045
g54
(dp3046
sg63
g2788
sg56
(lp3047
g49
(g70
g51
NtRp3048
(dp3049
g54
(dp3050
g74
g75
ssg63
g3044
sg56
(lp3051
S'REMOTE_PORT'
p3052
asbag49
(g70
g51
NtRp3053
(dp3054
g54
(dp3055
g81
g82
ssg63
g3044
sg56
(lp3056
S':'
asbag49
(g70
g51
NtRp3057
(dp3058
g54
(dp3059
sg63
g3044
sg56
(lp3060
g49
(g50
g51
NtRp3061
(dp3062
g54
(dp3063
g62
I3
ssg63
g3057
sg56
(lp3064
g1355
asbasbasbag49
(g65
g51
NtRp3065
(dp3066
g54
(dp3067
sg63
g2788
sg56
(lp3068
g49
(g70
g51
NtRp3069
(dp3070
g54
(dp3071
g74
g75
ssg63
g3065
sg56
(lp3072
S'REQUEST_METHOD'
p3073
asbag49
(g70
g51
NtRp3074
(dp3075
g54
(dp3076
g81
g82
ssg63
g3065
sg56
(lp3077
S':'
asbag49
(g70
g51
NtRp3078
(dp3079
g54
(dp3080
sg63
g3065
sg56
(lp3081
g49
(g50
g51
NtRp3082
(dp3083
g54
(dp3084
g62
I3
ssg63
g3078
sg56
(lp3085
g1377
asbasbasbag49
(g65
g51
NtRp3086
(dp3087
g54
(dp3088
sg63
g2788
sg56
(lp3089
g49
(g70
g51
NtRp3090
(dp3091
g54
(dp3092
g74
g75
ssg63
g3086
sg56
(lp3093
S'REQUEST_URI'
p3094
asbag49
(g70
g51
NtRp3095
(dp3096
g54
(dp3097
g81
g82
ssg63
g3086
sg56
(lp3098
S':'
asbag49
(g70
g51
NtRp3099
(dp3100
g54
(dp3101
sg63
g3086
sg56
(lp3102
g49
(g50
g51
NtRp3103
(dp3104
g54
(dp3105
g62
I3
ssg63
g3099
sg56
(lp3106
g1399
asbasbasbag49
(g65
g51
NtRp3107
(dp3108
g54
(dp3109
sg63
g2788
sg56
(lp3110
g49
(g70
g51
NtRp3111
(dp3112
g54
(dp3113
g74
g75
ssg63
g3107
sg56
(lp3114
S'SCRIPT_NAME'
p3115
asbag49
(g70
g51
NtRp3116
(dp3117
g54
(dp3118
g81
g82
ssg63
g3107
sg56
(lp3119
S':'
asbag49
(g70
g51
NtRp3120
(dp3121
g54
(dp3122
sg63
g3107
sg56
(lp3123
g49
(g50
g51
NtRp3124
(dp3125
g54
(dp3126
g62
I3
ssg63
g3120
sg56
(lp3127
S''
asbasbasbag49
(g65
g51
NtRp3128
(dp3129
g54
(dp3130
sg63
g2788
sg56
(lp3131
g49
(g70
g51
NtRp3132
(dp3133
g54
(dp3134
g74
g75
ssg63
g3128
sg56
(lp3135
S'SERVER_NAME'
p3136
asbag49
(g70
g51
NtRp3137
(dp3138
g54
(dp3139
g81
g82
ssg63
g3128
sg56
(lp3140
S':'
asbag49
(g70
g51
NtRp3141
(dp3142
g54
(dp3143
sg63
g3128
sg56
(lp3144
g49
(g50
g51
NtRp3145
(dp3146
g54
(dp3147
g62
I3
ssg63
g3141
sg56
(lp3148
g1442
asbasbasbag49
(g65
g51
NtRp3149
(dp3150
g54
(dp3151
sg63
g2788
sg56
(lp3152
g49
(g70
g51
NtRp3153
(dp3154
g54
(dp3155
g74
g75
ssg63
g3149
sg56
(lp3156
S'SERVER_PORT'
p3157
asbag49
(g70
g51
NtRp3158
(dp3159
g54
(dp3160
g81
g82
ssg63
g3149
sg56
(lp3161
S':'
asbag49
(g70
g51
NtRp3162
(dp3163
g54
(dp3164
sg63
g3149
sg56
(lp3165
g49
(g50
g51
NtRp3166
(dp3167
g54
(dp3168
g62
I3
ssg63
g3162
sg56
(lp3169
g1464
asbasbasbag49
(g65
g51
NtRp3170
(dp3171
g54
(dp3172
sg63
g2788
sg56
(lp3173
g49
(g70
g51
NtRp3174
(dp3175
g54
(dp3176
g74
g75
ssg63
g3170
sg56
(lp3177
S'SERVER_PROTOCOL'
p3178
asbag49
(g70
g51
NtRp3179
(dp3180
g54
(dp3181
g81
g82
ssg63
g3170
sg56
(lp3182
S':'
asbag49
(g70
g51
NtRp3183
(dp3184
g54
(dp3185
sg63
g3170
sg56
(lp3186
g49
(g50
g51
NtRp3187
(dp3188
g54
(dp3189
g62
I3
ssg63
g3183
sg56
(lp3190
g1486
asbasbasbag49
(g65
g51
NtRp3191
(dp3192
g54
(dp3193
sg63
g2788
sg56
(lp3194
g49
(g70
g51
NtRp3195
(dp3196
g54
(dp3197
g74
g75
ssg63
g3191
sg56
(lp3198
S'SERVER_SOFTWARE'
p3199
asbag49
(g70
g51
NtRp3200
(dp3201
g54
(dp3202
g81
g82
ssg63
g3191
sg56
(lp3203
S':'
asbag49
(g70
g51
NtRp3204
(dp3205
g54
(dp3206
sg63
g3191
sg56
(lp3207
g49
(g50
g51
NtRp3208
(dp3209
g54
(dp3210
g62
I3
ssg63
g3204
sg56
(lp3211
g1508
asbasbasbag49
(g65
g51
NtRp3212
(dp3213
g54
(dp3214
sg63
g2788
sg56
(lp3215
g49
(g70
g51
NtRp3216
(dp3217
g54
(dp3218
g74
g75
ssg63
g3212
sg56
(lp3219
S'wsgi.errors'
p3220
asbag49
(g70
g51
NtRp3221
(dp3222
g54
(dp3223
g81
g82
ssg63
g3212
sg56
(lp3224
S':'
asbag49
(g70
g51
NtRp3225
(dp3226
g54
(dp3227
sg63
g3212
sg56
(lp3228
g49
(g50
g51
NtRp3229
(dp3230
g54
(dp3231
g62
I3
ssg63
g3225
sg56
(lp3232
S"<open file '<stderr>', mode 'w' at 0x660b0>"
p3233
asbasbasbag49
(g65
g51
NtRp3234
(dp3235
g54
(dp3236
sg63
g2788
sg56
(lp3237
g49
(g70
g51
NtRp3238
(dp3239
g54
(dp3240
g74
g75
ssg63
g3234
sg56
(lp3241
S'wsgi.file_wrapper'
p3242
asbag49
(g70
g51
NtRp3243
(dp3244
g54
(dp3245
g81
g82
ssg63
g3234
sg56
(lp3246
S':'
asbag49
(g70
g51
NtRp3247
(dp3248
g54
(dp3249
sg63
g3234
sg56
(lp3250
g49
(g50
g51
NtRp3251
(dp3252
g54
(dp3253
g62
I3
ssg63
g3247
sg56
(lp3254
S'<class wsgiref.util.FileWrapper at 0x452d060>'
p3255
asbasbasbag49
(g65
g51
NtRp3256
(dp3257
g54
(dp3258
sg63
g2788
sg56
(lp3259
g49
(g70
g51
NtRp3260
(dp3261
g54
(dp3262
g74
g75
ssg63
g3256
sg56
(lp3263
S'wsgi.input'
p3264
asbag49
(g70
g51
NtRp3265
(dp3266
g54
(dp3267
g81
g82
ssg63
g3256
sg56
(lp3268
S':'
asbag49
(g70
g51
NtRp3269
(dp3270
g54
(dp3271
sg63
g3256
sg56
(lp3272
g49
(g50
g51
NtRp3273
(dp3274
g54
(dp3275
g62
I3
ssg63
g3269
sg56
(lp3276
S'<cStringIO.StringO object at 0x8eac5c0>'
p3277
asbasbasbag49
(g65
g51
NtRp3278
(dp3279
g54
(dp3280
sg63
g2788
sg56
(lp3281
g49
(g70
g51
NtRp3282
(dp3283
g54
(dp3284
g74
g75
ssg63
g3278
sg56
(lp3285
S'wsgi.multiprocess'
p3286
asbag49
(g70
g51
NtRp3287
(dp3288
g54
(dp3289
g81
g82
ssg63
g3278
sg56
(lp3290
S':'
asbag49
(g70
g51
NtRp3291
(dp3292
g54
(dp3293
sg63
g3278
sg56
(lp3294
g49
(g50
g51
NtRp3295
(dp3296
g54
(dp3297
g62
I3
ssg63
g3291
sg56
(lp3298
g92
asbasbasbag49
(g65
g51
NtRp3299
(dp3300
g54
(dp3301
sg63
g2788
sg56
(lp3302
g49
(g70
g51
NtRp3303
(dp3304
g54
(dp3305
g74
g75
ssg63
g3299
sg56
(lp3306
S'wsgi.multithread'
p3307
asbag49
(g70
g51
NtRp3308
(dp3309
g54
(dp3310
g81
g82
ssg63
g3299
sg56
(lp3311
S':'
asbag49
(g70
g51
NtRp3312
(dp3313
g54
(dp3314
sg63
g3299
sg56
(lp3315
g49
(g50
g51
NtRp3316
(dp3317
g54
(dp3318
g62
I3
ssg63
g3312
sg56
(lp3319
g916
asbasbasbag49
(g65
g51
NtRp3320
(dp3321
g54
(dp3322
sg63
g2788
sg56
(lp3323
g49
(g70
g51
NtRp3324
(dp3325
g54
(dp3326
g74
g75
ssg63
g3320
sg56
(lp3327
S'wsgi.run_once'
p3328
asbag49
(g70
g51
NtRp3329
(dp3330
g54
(dp3331
g81
g82
ssg63
g3320
sg56
(lp3332
S':'
asbag49
(g70
g51
NtRp3333
(dp3334
g54
(dp3335
sg63
g3320
sg56
(lp3336
g49
(g50
g51
NtRp3337
(dp3338
g54
(dp3339
g62
I3
ssg63
g3333
sg56
(lp3340
g92
asbasbasbag49
(g65
g51
NtRp3341
(dp3342
g54
(dp3343
sg63
g2788
sg56
(lp3344
g49
(g70
g51
NtRp3345
(dp3346
g54
(dp3347
g74
g75
ssg63
g3341
sg56
(lp3348
S'wsgi.url_scheme'
p3349
asbag49
(g70
g51
NtRp3350
(dp3351
g54
(dp3352
g81
g82
ssg63
g3341
sg56
(lp3353
S':'
asbag49
(g70
g51
NtRp3354
(dp3355
g54
(dp3356
sg63
g3341
sg56
(lp3357
g49
(g50
g51
NtRp3358
(dp3359
g54
(dp3360
g62
I3
ssg63
g3354
sg56
(lp3361
g1767
asbasbasbag49
(g65
g51
NtRp3362
(dp3363
g54
(dp3364
sg63
g2788
sg56
(lp3365
g49
(g70
g51
NtRp3366
(dp3367
g54
(dp3368
g74
g75
ssg63
g3362
sg56
(lp3369
S'wsgi.version'
p3370
asbag49
(g70
g51
NtRp3371
(dp3372
g54
(dp3373
g81
g82
ssg63
g3362
sg56
(lp3374
S':'
asbag49
(g70
g51
NtRp3375
(dp3376
g54
(dp3377
sg63
g3362
sg56
(lp3378
g49
(g50
g51
NtRp3379
(dp3380
g54
(dp3381
g62
I3
ssg63
g3375
sg56
(lp3382
S'1'
asbasbasbasbasbasbasbasbasbasbasbasbasbsS'frames'
p3383
(lp3384
(dp3385
S'file'
p3386
S'/home/mdipierro/web2py/gluon/restricted.py'
p3387
sS'dump'
p3388
(dp3389
sS'lnum'
p3390
I212
sS'lines'
p3391
(dp3392
sS'call'
p3393
S"(code='# -*- coding: utf-8 -*-\\n# this file is released ...nse._vars=response._caller(mobile_user_register)\\n', environment={'A': <class 'gluon.html.A'>, 'Auth': <class 'gluon.tools.Auth'>, 'B': <class 'gluon.html.B'>, 'BEAUTIFY': <class 'gluon.html.BEAUTIFY'>, 'BODY': <class 'gluon.html.BODY'>, 'BR': <class 'gluon.html.BR'>, 'BUTTON': <class 'gluon.html.BUTTON'>, 'CAT': <class 'gluon.html.CAT'>, 'CENTER': <class 'gluon.html.CENTER'>, 'CLEANUP': <class 'gluon.validators.CLEANUP'>, ...}, layer='/Applications/web2py.app/Contents/Resources/applications/MR/controllers/default.py')"
p3394
sS'func'
p3395
S'restricted'
p3396
sa(dp3397
g3386
S'/Applications/web2py.app/Contents/Resources/applications/MR/controllers/default.py'
p3398
sg3388
(dp3399
sg3390
I93
sg3391
(dp3400
I82
S'    http://..../[app]/default/data/update/[table]/[id]'
p3401
sI83
S'    http://..../[app]/default/data/delete/[table]/[id]'
p3402
sI84
S'    http://..../[app]/default/data/select/[table]'
p3403
sI85
S'    http://..../[app]/default/data/search/[table]'
p3404
sI86
S'    but URLs must be signed, i.e. linked with'
p3405
sI87
S"      A('table',_href=URL('data/tables',user_signature=True))"
p3406
sI88
S'    or with the signed load operator'
p3407
sI89
S"      LOAD('default','data.load',args='tables',ajax=True,user_signature=True)"
p3408
sI90
S'    """'
p3409
sI91
S'    return dict(form=crud())'
p3410
ssg3393
S'()'
p3411
sg3395
S'<module>'
p3412
sa(dp3413
g3386
S'/home/mdipierro/web2py/gluon/globals.py'
p3414
sg3388
(dp3415
sg3390
I193
sg3391
(dp3416
sg3393
S'(f=<function mobile_user_register at 0x7d75830>)'
p3417
sg3395
S'<lambda>'
p3418
sa(dp3419
g3386
S'/Applications/web2py.app/Contents/Resources/applications/MR/controllers/default.py'
p3420
sg3388
(dp3421
sg3390
I61
sg3391
(dp3422
I64
S"        return {'status':'ERROR'}"
p3423
sI65
S''
sI56
S'    country = request.vars.country'
p3424
sI57
S'    rows = db(db.mobile_user.email==email).select()'
p3425
sI58
S'    if len(rows) != 0:'
p3426
sI59
S"        return {'status': 'exist'}"
p3427
sI60
S''
sI61
S'    result = TT.d5_hash(password)'
p3428
sI62
S'    ret = db.mobile_user.validate_and_insert(email=email, password=password, first_name=firstname, last_name=lastname, md5=result, country=country)'
p3429
sI63
S'    if ret.errors:'
p3430
ssg3393
S'()'
p3431
sg3395
S'mobile_user_register'
p3432
sasS'pyver'
p3433
S'Python 2.5.1: /Applications/web2py.app/Contents/MacOS/python'
p3434
sS'session'
p3435
g49
(g50
g51
NtRp3436
(dp3437
g54
(dp3438
sg56
(lp3439
g49
(g58
g51
NtRp3440
(dp3441
g54
(dp3442
g62
I5
ssg63
Nsg56
(lp3443
g49
(g65
g51
NtRp3444
(dp3445
g54
(dp3446
sg63
g3440
sg56
(lp3447
g49
(g70
g51
NtRp3448
(dp3449
g54
(dp3450
g74
g75
ssg63
g3444
sg56
(lp3451
S'last_orderby'
p3452
asbag49
(g70
g51
NtRp3453
(dp3454
g54
(dp3455
g81
g82
ssg63
g3444
sg56
(lp3456
S':'
asbag49
(g70
g51
NtRp3457
(dp3458
g54
(dp3459
sg63
g3444
sg56
(lp3460
g49
(g50
g51
NtRp3461
(dp3462
g54
(dp3463
g62
I5
ssg63
g3457
sg56
(lp3464
S'None'
p3465
asbasbasbag49
(g65
g51
NtRp3466
(dp3467
g54
(dp3468
sg63
g3440
sg56
(lp3469
g49
(g70
g51
NtRp3470
(dp3471
g54
(dp3472
g74
g75
ssg63
g3466
sg56
(lp3473
S'last_query'
p3474
asbag49
(g70
g51
NtRp3475
(dp3476
g54
(dp3477
g81
g82
ssg63
g3466
sg56
(lp3478
S':'
asbag49
(g70
g51
NtRp3479
(dp3480
g54
(dp3481
sg63
g3466
sg56
(lp3482
g49
(g50
g51
NtRp3483
(dp3484
g54
(dp3485
g62
I5
ssg63
g3479
sg56
(lp3486
S'db.auth_user.id>0'
p3487
asbasbasbasbasbsS'etype'
p3488
S"<type 'exceptions.AttributeError'>"
p3489
sS'date'
p3490
S'Mon Apr 15 17:40:51 2013'
p3491
sS'response'
p3492
g49
(g50
g51
NtRp3493
(dp3494
g54
(dp3495
sg56
(lp3496
g49
(g58
g51
NtRp3497
(dp3498
g54
(dp3499
g62
I5
ssg63
Nsg56
(lp3500
g49
(g65
g51
NtRp3501
(dp3502
g54
(dp3503
sg63
g3497
sg56
(lp3504
g49
(g70
g51
NtRp3505
(dp3506
g54
(dp3507
g74
g75
ssg63
g3501
sg56
(lp3508
g147
asbag49
(g70
g51
NtRp3509
(dp3510
g54
(dp3511
g81
g82
ssg63
g3501
sg56
(lp3512
S':'
asbag49
(g70
g51
NtRp3513
(dp3514
g54
(dp3515
sg63
g3501
sg56
(lp3516
g49
(g50
g51
NtRp3517
(dp3518
g54
(dp3519
g62
I5
ssg63
g3513
sg56
(lp3520
S'<cStringIO.StringO object at 0x7db75e0>'
p3521
asbasbasbag49
(g65
g51
NtRp3522
(dp3523
g54
(dp3524
sg63
g3497
sg56
(lp3525
g49
(g70
g51
NtRp3526
(dp3527
g54
(dp3528
g74
g75
ssg63
g3522
sg56
(lp3529
g235
asbag49
(g70
g51
NtRp3530
(dp3531
g54
(dp3532
g81
g82
ssg63
g3522
sg56
(lp3533
S':'
asbag49
(g70
g51
NtRp3534
(dp3535
g54
(dp3536
sg63
g3522
sg56
(lp3537
g49
(g50
g51
NtRp3538
(dp3539
g54
(dp3540
g62
I5
ssg63
g3534
sg56
(lp3541
g49
(g58
g51
NtRp3542
(dp3543
g54
(dp3544
g62
I4
ssg63
Nsg56
(lp3545
g49
(g65
g51
NtRp3546
(dp3547
g54
(dp3548
sg63
g3542
sg56
(lp3549
g49
(g70
g51
NtRp3550
(dp3551
g54
(dp3552
g74
g75
ssg63
g3546
sg56
(lp3553
S'session_id_mr'
p3554
asbag49
(g70
g51
NtRp3555
(dp3556
g54
(dp3557
g81
g82
ssg63
g3546
sg56
(lp3558
S':'
asbag49
(g70
g51
NtRp3559
(dp3560
g54
(dp3561
sg63
g3546
sg56
(lp3562
g49
(g50
g51
NtRp3563
(dp3564
g54
(dp3565
g62
I4
ssg63
g3559
sg56
(lp3566
g446
ag49
(g58
g51
NtRp3567
(dp3568
g54
(dp3569
g62
I3
ssg63
Nsg56
(lp3570
g49
(g65
g51
NtRp3571
(dp3572
g54
(dp3573
sg63
g3567
sg56
(lp3574
g49
(g70
g51
NtRp3575
(dp3576
g54
(dp3577
g74
g75
ssg63
g3571
sg56
(lp3578
g286
asbag49
(g70
g51
NtRp3579
(dp3580
g54
(dp3581
g81
g82
ssg63
g3571
sg56
(lp3582
S':'
asbag49
(g70
g51
NtRp3583
(dp3584
g54
(dp3585
sg63
g3571
sg56
(lp3586
g49
(g50
g51
NtRp3587
(dp3588
g54
(dp3589
g62
I3
ssg63
g3583
sg56
(lp3590
S''
asbasbasbag49
(g65
g51
NtRp3591
(dp3592
g54
(dp3593
sg63
g3567
sg56
(lp3594
g49
(g70
g51
NtRp3595
(dp3596
g54
(dp3597
g74
g75
ssg63
g3591
sg56
(lp3598
g307
asbag49
(g70
g51
NtRp3599
(dp3600
g54
(dp3601
g81
g82
ssg63
g3591
sg56
(lp3602
S':'
asbag49
(g70
g51
NtRp3603
(dp3604
g54
(dp3605
sg63
g3591
sg56
(lp3606
g49
(g50
g51
NtRp3607
(dp3608
g54
(dp3609
g62
I3
ssg63
g3603
sg56
(lp3610
S''
asbasbasbag49
(g65
g51
NtRp3611
(dp3612
g54
(dp3613
sg63
g3567
sg56
(lp3614
g49
(g70
g51
NtRp3615
(dp3616
g54
(dp3617
g74
g75
ssg63
g3611
sg56
(lp3618
g328
asbag49
(g70
g51
NtRp3619
(dp3620
g54
(dp3621
g81
g82
ssg63
g3611
sg56
(lp3622
S':'
asbag49
(g70
g51
NtRp3623
(dp3624
g54
(dp3625
sg63
g3611
sg56
(lp3626
g49
(g50
g51
NtRp3627
(dp3628
g54
(dp3629
g62
I3
ssg63
g3623
sg56
(lp3630
S''
asbasbasbag49
(g65
g51
NtRp3631
(dp3632
g54
(dp3633
sg63
g3567
sg56
(lp3634
g49
(g70
g51
NtRp3635
(dp3636
g54
(dp3637
g74
g75
ssg63
g3631
sg56
(lp3638
g349
asbag49
(g70
g51
NtRp3639
(dp3640
g54
(dp3641
g81
g82
ssg63
g3631
sg56
(lp3642
S':'
asbag49
(g70
g51
NtRp3643
(dp3644
g54
(dp3645
sg63
g3631
sg56
(lp3646
g49
(g50
g51
NtRp3647
(dp3648
g54
(dp3649
g62
I3
ssg63
g3643
sg56
(lp3650
S''
asbasbasbag49
(g65
g51
NtRp3651
(dp3652
g54
(dp3653
sg63
g3567
sg56
(lp3654
g49
(g70
g51
NtRp3655
(dp3656
g54
(dp3657
g74
g75
ssg63
g3651
sg56
(lp3658
g370
asbag49
(g70
g51
NtRp3659
(dp3660
g54
(dp3661
g81
g82
ssg63
g3651
sg56
(lp3662
S':'
asbag49
(g70
g51
NtRp3663
(dp3664
g54
(dp3665
sg63
g3651
sg56
(lp3666
g49
(g50
g51
NtRp3667
(dp3668
g54
(dp3669
g62
I3
ssg63
g3663
sg56
(lp3670
S'/'
asbasbasbag49
(g65
g51
NtRp3671
(dp3672
g54
(dp3673
sg63
g3567
sg56
(lp3674
g49
(g70
g51
NtRp3675
(dp3676
g54
(dp3677
g74
g75
ssg63
g3671
sg56
(lp3678
g391
asbag49
(g70
g51
NtRp3679
(dp3680
g54
(dp3681
g81
g82
ssg63
g3671
sg56
(lp3682
S':'
asbag49
(g70
g51
NtRp3683
(dp3684
g54
(dp3685
sg63
g3671
sg56
(lp3686
g49
(g50
g51
NtRp3687
(dp3688
g54
(dp3689
g62
I3
ssg63
g3683
sg56
(lp3690
S''
asbasbasbag49
(g65
g51
NtRp3691
(dp3692
g54
(dp3693
sg63
g3567
sg56
(lp3694
g49
(g70
g51
NtRp3695
(dp3696
g54
(dp3697
g74
g75
ssg63
g3691
sg56
(lp3698
g412
asbag49
(g70
g51
NtRp3699
(dp3700
g54
(dp3701
g81
g82
ssg63
g3691
sg56
(lp3702
S':'
asbag49
(g70
g51
NtRp3703
(dp3704
g54
(dp3705
sg63
g3691
sg56
(lp3706
g49
(g50
g51
NtRp3707
(dp3708
g54
(dp3709
g62
I3
ssg63
g3703
sg56
(lp3710
S''
asbasbasbasbasbasbasbasbasbasbasbag49
(g65
g51
NtRp3711
(dp3712
g54
(dp3713
sg63
g3497
sg56
(lp3714
g49
(g70
g51
NtRp3715
(dp3716
g54
(dp3717
g74
g75
ssg63
g3711
sg56
(lp3718
S'delimiters'
p3719
asbag49
(g70
g51
NtRp3720
(dp3721
g54
(dp3722
g81
g82
ssg63
g3711
sg56
(lp3723
S':'
asbag49
(g70
g51
NtRp3724
(dp3725
g54
(dp3726
sg63
g3711
sg56
(lp3727
g49
(g50
g51
NtRp3728
(dp3729
g54
(dp3730
g62
I5
ssg63
g3724
sg56
(lp3731
g49
(g58
g51
NtRp3732
(dp3733
g54
(dp3734
g62
I4
ssg63
Nsg56
(lp3735
g49
(g65
g51
NtRp3736
(dp3737
g54
(dp3738
sg63
g3732
sg56
(lp3739
g49
(g70
g51
NtRp3740
(dp3741
g54
(dp3742
sg63
g3736
sg56
(lp3743
g49
(g50
g51
NtRp3744
(dp3745
g54
(dp3746
g62
I4
ssg63
g3740
sg56
(lp3747
S'{{'
p3748
asbasbasbag49
(g65
g51
NtRp3749
(dp3750
g54
(dp3751
sg63
g3732
sg56
(lp3752
g49
(g70
g51
NtRp3753
(dp3754
g54
(dp3755
sg63
g3749
sg56
(lp3756
g49
(g50
g51
NtRp3757
(dp3758
g54
(dp3759
g62
I4
ssg63
g3753
sg56
(lp3760
S'}}'
p3761
asbasbasbasbasbasbasbag49
(g65
g51
NtRp3762
(dp3763
g54
(dp3764
sg63
g3497
sg56
(lp3765
g49
(g70
g51
NtRp3766
(dp3767
g54
(dp3768
g74
g75
ssg63
g3762
sg56
(lp3769
S'files'
p3770
asbag49
(g70
g51
NtRp3771
(dp3772
g54
(dp3773
g81
g82
ssg63
g3762
sg56
(lp3774
S':'
asbag49
(g70
g51
NtRp3775
(dp3776
g54
(dp3777
sg63
g3762
sg56
(lp3778
g49
(g50
g51
NtRp3779
(dp3780
g54
(dp3781
g62
I5
ssg63
g3775
sg56
(lp3782
g49
(g58
g51
NtRp3783
(dp3784
g54
(dp3785
g62
I4
ssg63
Nsg56
(lp3786
sbasbasbasbag49
(g65
g51
NtRp3787
(dp3788
g54
(dp3789
sg63
g3497
sg56
(lp3790
g49
(g70
g51
NtRp3791
(dp3792
g54
(dp3793
g74
g75
ssg63
g3787
sg56
(lp3794
S'flash'
p3795
asbag49
(g70
g51
NtRp3796
(dp3797
g54
(dp3798
g81
g82
ssg63
g3787
sg56
(lp3799
S':'
asbag49
(g70
g51
NtRp3800
(dp3801
g54
(dp3802
sg63
g3787
sg56
(lp3803
g49
(g50
g51
NtRp3804
(dp3805
g54
(dp3806
g62
I5
ssg63
g3800
sg56
(lp3807
S''
asbasbasbag49
(g65
g51
NtRp3808
(dp3809
g54
(dp3810
sg63
g3497
sg56
(lp3811
g49
(g70
g51
NtRp3812
(dp3813
g54
(dp3814
g74
g75
ssg63
g3808
sg56
(lp3815
S'generic_patterns'
p3816
asbag49
(g70
g51
NtRp3817
(dp3818
g54
(dp3819
g81
g82
ssg63
g3808
sg56
(lp3820
S':'
asbag49
(g70
g51
NtRp3821
(dp3822
g54
(dp3823
sg63
g3808
sg56
(lp3824
g49
(g50
g51
NtRp3825
(dp3826
g54
(dp3827
g62
I5
ssg63
g3821
sg56
(lp3828
g49
(g58
g51
NtRp3829
(dp3830
g54
(dp3831
g62
I4
ssg63
Nsg56
(lp3832
g49
(g65
g51
NtRp3833
(dp3834
g54
(dp3835
sg63
g3829
sg56
(lp3836
g49
(g70
g51
NtRp3837
(dp3838
g54
(dp3839
sg63
g3833
sg56
(lp3840
g49
(g50
g51
NtRp3841
(dp3842
g54
(dp3843
g62
I4
ssg63
g3837
sg56
(lp3844
S'*'
asbasbasbasbasbasbasbag49
(g65
g51
NtRp3845
(dp3846
g54
(dp3847
sg63
g3497
sg56
(lp3848
g49
(g70
g51
NtRp3849
(dp3850
g54
(dp3851
g74
g75
ssg63
g3845
sg56
(lp3852
S'google_analytics_id'
p3853
asbag49
(g70
g51
NtRp3854
(dp3855
g54
(dp3856
g81
g82
ssg63
g3845
sg56
(lp3857
S':'
asbag49
(g70
g51
NtRp3858
(dp3859
g54
(dp3860
sg63
g3845
sg56
(lp3861
g49
(g50
g51
NtRp3862
(dp3863
g54
(dp3864
g62
I5
ssg63
g3858
sg56
(lp3865
S'None'
p3866
asbasbasbag49
(g65
g51
NtRp3867
(dp3868
g54
(dp3869
sg63
g3497
sg56
(lp3870
g49
(g70
g51
NtRp3871
(dp3872
g54
(dp3873
g74
g75
ssg63
g3867
sg56
(lp3874
S'headers'
p3875
asbag49
(g70
g51
NtRp3876
(dp3877
g54
(dp3878
g81
g82
ssg63
g3867
sg56
(lp3879
S':'
asbag49
(g70
g51
NtRp3880
(dp3881
g54
(dp3882
sg63
g3867
sg56
(lp3883
g49
(g50
g51
NtRp3884
(dp3885
g54
(dp3886
g62
I5
ssg63
g3880
sg56
(lp3887
g49
(g58
g51
NtRp3888
(dp3889
g54
(dp3890
g62
I4
ssg63
Nsg56
(lp3891
g49
(g65
g51
NtRp3892
(dp3893
g54
(dp3894
sg63
g3888
sg56
(lp3895
g49
(g70
g51
NtRp3896
(dp3897
g54
(dp3898
g74
g75
ssg63
g3892
sg56
(lp3899
S'X-Powered-By'
p3900
asbag49
(g70
g51
NtRp3901
(dp3902
g54
(dp3903
g81
g82
ssg63
g3892
sg56
(lp3904
S':'
asbag49
(g70
g51
NtRp3905
(dp3906
g54
(dp3907
sg63
g3892
sg56
(lp3908
g49
(g50
g51
NtRp3909
(dp3910
g54
(dp3911
g62
I4
ssg63
g3905
sg56
(lp3912
S'web2py'
p3913
asbasbasbasbasbasbasbag49
(g65
g51
NtRp3914
(dp3915
g54
(dp3916
sg63
g3497
sg56
(lp3917
g49
(g70
g51
NtRp3918
(dp3919
g54
(dp3920
g74
g75
ssg63
g3914
sg56
(lp3921
S'logo'
p3922
asbag49
(g70
g51
NtRp3923
(dp3924
g54
(dp3925
g81
g82
ssg63
g3914
sg56
(lp3926
S':'
asbag49
(g70
g51
NtRp3927
(dp3928
g54
(dp3929
sg63
g3914
sg56
(lp3930
g49
(g50
g51
NtRp3931
(dp3932
g54
(dp3933
g62
I5
ssg63
g3927
sg56
(lp3934
g49
(cgluon.html
A
p3935
g51
NtRp3936
(dp3937
g54
(dp3938
S'_class'
p3939
S'brand'
p3940
sS'_href'
p3941
S'http://www.web2py.com/'
p3942
ssg63
Nsg56
(lp3943
g49
(cgluon.html
B
p3944
g51
NtRp3945
(dp3946
g54
(dp3947
sg63
g3936
sg56
(lp3948
S'web'
p3949
ag49
(cgluon.html
SPAN
p3950
g51
NtRp3951
(dp3952
g54
(dp3953
sg63
g3945
sg56
(lp3954
I2
asbaS'py'
p3955
asbacgluon.html
XML_unpickle
p3956
(S's\r\x00\x00\x00&trade;&nbsp;'
tRp3957
asbasbasbasbag49
(g65
g51
NtRp3958
(dp3959
g54
(dp3960
sg63
g3497
sg56
(lp3961
g49
(g70
g51
NtRp3962
(dp3963
g54
(dp3964
g74
g75
ssg63
g3958
sg56
(lp3965
S'menu'
p3966
asbag49
(g70
g51
NtRp3967
(dp3968
g54
(dp3969
g81
g82
ssg63
g3958
sg56
(lp3970
S':'
asbag49
(g70
g51
NtRp3971
(dp3972
g54
(dp3973
sg63
g3958
sg56
(lp3974
g49
(g50
g51
NtRp3975
(dp3976
g54
(dp3977
g62
I5
ssg63
g3971
sg56
(lp3978
g49
(g58
g51
NtRp3979
(dp3980
g54
(dp3981
g62
I4
ssg63
Nsg56
(lp3982
g49
(g65
g51
NtRp3983
(dp3984
g54
(dp3985
sg63
g3979
sg56
(lp3986
g49
(g70
g51
NtRp3987
(dp3988
g54
(dp3989
sg63
g3983
sg56
(lp3990
g49
(g50
g51
NtRp3991
(dp3992
g54
(dp3993
g62
I4
ssg63
g3987
sg56
(lp3994
g49
(g58
g51
NtRp3995
(dp3996
g54
(dp3997
g62
I3
ssg63
Nsg56
(lp3998
g49
(g65
g51
NtRp3999
(dp4000
g54
(dp4001
sg63
g3995
sg56
(lp4002
g49
(g70
g51
NtRp4003
(dp4004
g54
(dp4005
sg63
g3999
sg56
(lp4006
g49
(g50
g51
NtRp4007
(dp4008
g54
(dp4009
g62
I3
ssg63
g4003
sg56
(lp4010
cgluon.languages
lazyT_unpickle
p4011
(S't\x04\x00\x00\x00Home'
tRp4012
asbasbasbag49
(g65
g51
NtRp4013
(dp4014
g54
(dp4015
sg63
g3995
sg56
(lp4016
g49
(g70
g51
NtRp4017
(dp4018
g54
(dp4019
sg63
g4013
sg56
(lp4020
g49
(g50
g51
NtRp4021
(dp4022
g54
(dp4023
g62
I3
ssg63
g4017
sg56
(lp4024
g92
asbasbasbag49
(g65
g51
NtRp4025
(dp4026
g54
(dp4027
sg63
g3995
sg56
(lp4028
g49
(g70
g51
NtRp4029
(dp4030
g54
(dp4031
sg63
g4025
sg56
(lp4032
g49
(g50
g51
NtRp4033
(dp4034
g54
(dp4035
g62
I3
ssg63
g4029
sg56
(lp4036
S'/MR/default/index'
p4037
asbasbasbag49
(g65
g51
NtRp4038
(dp4039
g54
(dp4040
sg63
g3995
sg56
(lp4041
g49
(g70
g51
NtRp4042
(dp4043
g54
(dp4044
sg63
g4038
sg56
(lp4045
g49
(g50
g51
NtRp4046
(dp4047
g54
(dp4048
g62
I3
ssg63
g4042
sg56
(lp4049
g49
(g58
g51
NtRp4050
(dp4051
g54
(dp4052
g62
I2
ssg63
Nsg56
(lp4053
sbasbasbasbasbasbasbasbag49
(g65
g51
NtRp4054
(dp4055
g54
(dp4056
sg63
g3979
sg56
(lp4057
g49
(g70
g51
NtRp4058
(dp4059
g54
(dp4060
sg63
g4054
sg56
(lp4061
g49
(g50
g51
NtRp4062
(dp4063
g54
(dp4064
g62
I4
ssg63
g4058
sg56
(lp4065
g49
(g58
g51
NtRp4066
(dp4067
g54
(dp4068
g62
I3
ssg63
Nsg56
(lp4069
g49
(g65
g51
NtRp4070
(dp4071
g54
(dp4072
sg63
g4066
sg56
(lp4073
g49
(g70
g51
NtRp4074
(dp4075
g54
(dp4076
sg63
g4070
sg56
(lp4077
g49
(g50
g51
NtRp4078
(dp4079
g54
(dp4080
g62
I3
ssg63
g4074
sg56
(lp4081
g49
(g3950
g51
NtRp4082
(dp4083
g54
(dp4084
g3939
S'highlighted'
p4085
ssg63
Nsg56
(lp4086
g3913
asbasbasbasbag49
(g65
g51
NtRp4087
(dp4088
g54
(dp4089
sg63
g4066
sg56
(lp4090
g49
(g70
g51
NtRp4091
(dp4092
g54
(dp4093
sg63
g4087
sg56
(lp4094
g49
(g50
g51
NtRp4095
(dp4096
g54
(dp4097
g62
I3
ssg63
g4091
sg56
(lp4098
g92
asbasbasbag49
(g65
g51
NtRp4099
(dp4100
g54
(dp4101
sg63
g4066
sg56
(lp4102
g49
(g70
g51
NtRp4103
(dp4104
g54
(dp4105
sg63
g4099
sg56
(lp4106
g49
(g50
g51
NtRp4107
(dp4108
g54
(dp4109
g62
I3
ssg63
g4103
sg56
(lp4110
S'http://web2py.com'
p4111
asbasbasbag49
(g65
g51
NtRp4112
(dp4113
g54
(dp4114
sg63
g4066
sg56
(lp4115
g49
(g70
g51
NtRp4116
(dp4117
g54
(dp4118
sg63
g4112
sg56
(lp4119
g49
(g50
g51
NtRp4120
(dp4121
g54
(dp4122
g62
I3
ssg63
g4116
sg56
(lp4123
g49
(g58
g51
NtRp4124
(dp4125
g54
(dp4126
g62
I2
ssg63
Nsg56
(lp4127
g49
(g65
g51
NtRp4128
(dp4129
g54
(dp4130
sg63
g4124
sg56
(lp4131
g49
(g70
g51
NtRp4132
(dp4133
g54
(dp4134
sg63
g4128
sg56
(lp4135
g49
(g50
g51
NtRp4136
(dp4137
g54
(dp4138
g62
I2
ssg63
g4132
sg56
(lp4139
g49
(g58
g51
NtRp4140
(dp4141
g54
(dp4142
g62
I1
ssg63
Nsg56
(lp4143
g49
(g65
g51
NtRp4144
(dp4145
g54
(dp4146
sg63
g4140
sg56
(lp4147
g49
(g70
g51
NtRp4148
(dp4149
g54
(dp4150
sg63
g4144
sg56
(lp4151
g49
(g50
g51
NtRp4152
(dp4153
g54
(dp4154
g62
I1
ssg63
g4148
sg56
(lp4155
g4011
(S's\x08\x00\x00\x00My Sites'
tRp4156
asbasbasbag49
(g65
g51
NtRp4157
(dp4158
g54
(dp4159
sg63
g4140
sg56
(lp4160
g49
(g70
g51
NtRp4161
(dp4162
g54
(dp4163
sg63
g4157
sg56
(lp4164
g49
(g50
g51
NtRp4165
(dp4166
g54
(dp4167
g62
I1
ssg63
g4161
sg56
(lp4168
I00
asbasbasbag49
(g65
g51
NtRp4169
(dp4170
g54
(dp4171
sg63
g4140
sg56
(lp4172
g49
(g70
g51
NtRp4173
(dp4174
g54
(dp4175
sg63
g4169
sg56
(lp4176
g49
(g50
g51
NtRp4177
(dp4178
g54
(dp4179
g62
I1
ssg63
g4173
sg56
(lp4180
S'/admin/default/site'
p4181
asbasbasbasbasbasbasbag49
(g65
g51
NtRp4182
(dp4183
g54
(dp4184
sg63
g4124
sg56
(lp4185
g49
(g70
g51
NtRp4186
(dp4187
g54
(dp4188
sg63
g4182
sg56
(lp4189
g49
(g50
g51
NtRp4190
(dp4191
g54
(dp4192
g62
I2
ssg63
g4186
sg56
(lp4193
g49
(g58
g51
NtRp4194
(dp4195
g54
(dp4196
g62
I1
ssg63
Nsg56
(lp4197
g49
(g65
g51
NtRp4198
(dp4199
g54
(dp4200
sg63
g4194
sg56
(lp4201
g49
(g70
g51
NtRp4202
(dp4203
g54
(dp4204
sg63
g4198
sg56
(lp4205
g49
(g50
g51
NtRp4206
(dp4207
g54
(dp4208
g62
I1
ssg63
g4202
sg56
(lp4209
g4011
(S's\x08\x00\x00\x00This App'
tRp4210
asbasbasbag49
(g65
g51
NtRp4211
(dp4212
g54
(dp4213
sg63
g4194
sg56
(lp4214
g49
(g70
g51
NtRp4215
(dp4216
g54
(dp4217
sg63
g4211
sg56
(lp4218
g49
(g50
g51
NtRp4219
(dp4220
g54
(dp4221
g62
I1
ssg63
g4215
sg56
(lp4222
I00
asbasbasbag49
(g65
g51
NtRp4223
(dp4224
g54
(dp4225
sg63
g4194
sg56
(lp4226
g49
(g70
g51
NtRp4227
(dp4228
g54
(dp4229
sg63
g4223
sg56
(lp4230
g49
(g50
g51
NtRp4231
(dp4232
g54
(dp4233
g62
I1
ssg63
g4227
sg56
(lp4234
S'/admin/default/design/MR'
p4235
asbasbasbag49
(g65
g51
NtRp4236
(dp4237
g54
(dp4238
sg63
g4194
sg56
(lp4239
g49
(g70
g51
NtRp4240
(dp4241
g54
(dp4242
sg63
g4236
sg56
(lp4243
g49
(g50
g51
NtRp4244
(dp4245
g54
(dp4246
g62
I1
ssg63
g4240
sg56
(lp4247
(lp4248
(g4011
(S's\x06\x00\x00\x00\xe6\x8e\xa7\xe4\xbb\xb6'
tRp4249
I00
S'/admin/default/edit/MR/controllers/default.py'
tp4250
a(g4011
(S's\x06\x00\x00\x00\xe8\xa6\x96\xe5\x9c\x96'
tRp4251
I00
S'/admin/default/edit/MR/views/default/mobile_user_register.html'
tp4252
a(g4011
(S's\x0c\x00\x00\x00\xe7\xb6\xb2\xe9\xa0\x81\xe9\x85\x8d\xe7\xbd\xae'
tRp4253
I00
S'/admin/default/edit/MR/views/layout.html'
tp4254
a(g4011
(S's\x0f\x00\x00\x00\xe7\xb6\xb2\xe9\xa0\x81\xe9\xa2\xa8\xe6\xa0\xbc\xe6\xaa\x94'
tRp4255
I00
S'/admin/default/edit/MR/static/css/web2py.css'
tp4256
a(g4011
(S's\x0f\x00\x00\x00\xe8\xb3\x87\xe6\x96\x99\xe5\xba\xab\xe6\xa8\xa1\xe7\xb5\x84'
tRp4257
I00
S'/admin/default/edit/MR/models/db.py'
tp4258
a(g4011
(S's\x12\x00\x00\x00\xe9\x81\xb8\xe5\x96\xae\xe6\xa8\xa1\xe7\xb5\x84(menu)'
tRp4259
I00
S'/admin/default/edit/MR/models/menu.py'
tp4260
a(g4011
(S's\t\x00\x00\x00\xe8\xb3\x87\xe6\x96\x99\xe5\xba\xab'
tRp4261
I00
S'/MR/appadmin/index'
tp4262
a(g4011
(S't\x06\x00\x00\x00Errors'
tRp4263
I00
S'/admin/default/errors/MR'
tp4264
a(g4011
(S's\x06\x00\x00\x00\xe9\x97\x9c\xe6\x96\xbc'
tRp4265
I00
S'/admin/default/about/MR'
tp4266
aasbasbasbasbasbasbasbag49
(g65
g51
NtRp4267
(dp4268
g54
(dp4269
sg63
g4124
sg56
(lp4270
g49
(g70
g51
NtRp4271
(dp4272
g54
(dp4273
sg63
g4267
sg56
(lp4274
g49
(g50
g51
NtRp4275
(dp4276
g54
(dp4277
g62
I2
ssg63
g4271
sg56
(lp4278
g49
(g58
g51
NtRp4279
(dp4280
g54
(dp4281
g62
I1
ssg63
Nsg56
(lp4282
g49
(g65
g51
NtRp4283
(dp4284
g54
(dp4285
sg63
g4279
sg56
(lp4286
g49
(g70
g51
NtRp4287
(dp4288
g54
(dp4289
sg63
g4283
sg56
(lp4290
g49
(g50
g51
NtRp4291
(dp4292
g54
(dp4293
g62
I1
ssg63
g4287
sg56
(lp4294
S'web2py.com'
p4295
asbasbasbag49
(g65
g51
NtRp4296
(dp4297
g54
(dp4298
sg63
g4279
sg56
(lp4299
g49
(g70
g51
NtRp4300
(dp4301
g54
(dp4302
sg63
g4296
sg56
(lp4303
g49
(g50
g51
NtRp4304
(dp4305
g54
(dp4306
g62
I1
ssg63
g4300
sg56
(lp4307
I00
asbasbasbag49
(g65
g51
NtRp4308
(dp4309
g54
(dp4310
sg63
g4279
sg56
(lp4311
g49
(g70
g51
NtRp4312
(dp4313
g54
(dp4314
sg63
g4308
sg56
(lp4315
g49
(g50
g51
NtRp4316
(dp4317
g54
(dp4318
g62
I1
ssg63
g4312
sg56
(lp4319
S'http://www.web2py.com'
p4320
asbasbasbag49
(g65
g51
NtRp4321
(dp4322
g54
(dp4323
sg63
g4279
sg56
(lp4324
g49
(g70
g51
NtRp4325
(dp4326
g54
(dp4327
sg63
g4321
sg56
(lp4328
g49
(g50
g51
NtRp4329
(dp4330
g54
(dp4331
g62
I1
ssg63
g4325
sg56
(lp4332
(lp4333
(g4011
(S't\x08\x00\x00\x00Download'
tRp4334
I00
S'http://www.web2py.com/examples/default/download'
p4335
tp4336
a(g4011
(S't\x07\x00\x00\x00Support'
tRp4337
I00
S'http://www.web2py.com/examples/default/support'
p4338
tp4339
a(g4011
(S't\x04\x00\x00\x00Demo'
tRp4340
I00
S'http://web2py.com/demo_admin'
p4341
tp4342
a(g4011
(S's\x0e\x00\x00\x00Quick Examples'
tRp4343
I00
S'http://web2py.com/examples/default/examples'
p4344
tp4345
a(g4011
(S't\x03\x00\x00\x00FAQ'
tRp4346
I00
S'http://web2py.com/AlterEgo'
p4347
tp4348
a(g4011
(S't\x06\x00\x00\x00Videos'
tRp4349
I00
S'http://www.web2py.com/examples/default/videos/'
p4350
tp4351
a(g4011
(S's\x11\x00\x00\x00Free Applications'
tRp4352
I00
S'http://web2py.com/appliances'
p4353
tp4354
a(g4011
(S't\x07\x00\x00\x00Plugins'
tRp4355
I00
S'http://web2py.com/plugins'
p4356
tp4357
a(g4011
(S't\x07\x00\x00\x00Layouts'
tRp4358
I00
S'http://web2py.com/layouts'
p4359
tp4360
a(g4011
(S't\x07\x00\x00\x00Recipes'
tRp4361
I00
S'http://web2pyslices.com/'
p4362
tp4363
a(g4011
(S't\x08\x00\x00\x00Semantic'
tRp4364
I00
S'http://web2py.com/semantic'
p4365
tp4366
aasbasbasbasbasbasbasbag49
(g65
g51
NtRp4367
(dp4368
g54
(dp4369
sg63
g4124
sg56
(lp4370
g49
(g70
g51
NtRp4371
(dp4372
g54
(dp4373
sg63
g4367
sg56
(lp4374
g49
(g50
g51
NtRp4375
(dp4376
g54
(dp4377
g62
I2
ssg63
g4371
sg56
(lp4378
g49
(g58
g51
NtRp4379
(dp4380
g54
(dp4381
g62
I1
ssg63
Nsg56
(lp4382
g49
(g65
g51
NtRp4383
(dp4384
g54
(dp4385
sg63
g4379
sg56
(lp4386
g49
(g70
g51
NtRp4387
(dp4388
g54
(dp4389
sg63
g4383
sg56
(lp4390
g49
(g50
g51
NtRp4391
(dp4392
g54
(dp4393
g62
I1
ssg63
g4387
sg56
(lp4394
g4011
(S't\r\x00\x00\x00Documentation'
tRp4395
asbasbasbag49
(g65
g51
NtRp4396
(dp4397
g54
(dp4398
sg63
g4379
sg56
(lp4399
g49
(g70
g51
NtRp4400
(dp4401
g54
(dp4402
sg63
g4396
sg56
(lp4403
g49
(g50
g51
NtRp4404
(dp4405
g54
(dp4406
g62
I1
ssg63
g4400
sg56
(lp4407
I00
asbasbasbag49
(g65
g51
NtRp4408
(dp4409
g54
(dp4410
sg63
g4379
sg56
(lp4411
g49
(g70
g51
NtRp4412
(dp4413
g54
(dp4414
sg63
g4408
sg56
(lp4415
g49
(g50
g51
NtRp4416
(dp4417
g54
(dp4418
g62
I1
ssg63
g4412
sg56
(lp4419
S'http://www.web2py.com/book'
p4420
asbasbasbag49
(g65
g51
NtRp4421
(dp4422
g54
(dp4423
sg63
g4379
sg56
(lp4424
g49
(g70
g51
NtRp4425
(dp4426
g54
(dp4427
sg63
g4421
sg56
(lp4428
g49
(g50
g51
NtRp4429
(dp4430
g54
(dp4431
g62
I1
ssg63
g4425
sg56
(lp4432
(lp4433
(g4011
(S't\x07\x00\x00\x00Preface'
tRp4434
I00
S'http://www.web2py.com/book/default/chapter/00'
p4435
tp4436
a(g4011
(S't\x0c\x00\x00\x00Introduction'
tRp4437
I00
S'http://www.web2py.com/book/default/chapter/01'
p4438
tp4439
a(g4011
(S't\x06\x00\x00\x00Python'
tRp4440
I00
S'http://www.web2py.com/book/default/chapter/02'
p4441
tp4442
a(g4011
(S't\x08\x00\x00\x00Overview'
tRp4443
I00
S'http://www.web2py.com/book/default/chapter/03'
p4444
tp4445
a(g4011
(S's\x08\x00\x00\x00The Core'
tRp4446
I00
S'http://www.web2py.com/book/default/chapter/04'
p4447
tp4448
a(g4011
(S's\t\x00\x00\x00The Views'
tRp4449
I00
S'http://www.web2py.com/book/default/chapter/05'
p4450
tp4451
a(g4011
(S's\t\x00\x00\x00\xe8\xb3\x87\xe6\x96\x99\xe5\xba\xab'
tRp4452
I00
S'http://www.web2py.com/book/default/chapter/06'
p4453
tp4454
a(g4011
(S's\x14\x00\x00\x00Forms and Validators'
tRp4455
I00
S'http://www.web2py.com/book/default/chapter/07'
p4456
tp4457
a(g4011
(S's\r\x00\x00\x00Email and SMS'
tRp4458
I00
S'http://www.web2py.com/book/default/chapter/08'
p4459
tp4460
a(g4011
(S's\x0e\x00\x00\x00Access Control'
tRp4461
I00
S'http://www.web2py.com/book/default/chapter/09'
p4462
tp4463
a(g4011
(S't\x08\x00\x00\x00Services'
tRp4464
I00
S'http://www.web2py.com/book/default/chapter/10'
p4465
tp4466
a(g4011
(S's\x0c\x00\x00\x00Ajax Recipes'
tRp4467
I00
S'http://www.web2py.com/book/default/chapter/11'
p4468
tp4469
a(g4011
(S's\x16\x00\x00\x00Components and Plugins'
tRp4470
I00
S'http://www.web2py.com/book/default/chapter/12'
p4471
tp4472
a(g4011
(S's\x12\x00\x00\x00Deployment Recipes'
tRp4473
I00
S'http://www.web2py.com/book/default/chapter/13'
p4474
tp4475
a(g4011
(S's\r\x00\x00\x00Other Recipes'
tRp4476
I00
S'http://www.web2py.com/book/default/chapter/14'
p4477
tp4478
a(g4011
(S's\r\x00\x00\x00Buy this book'
tRp4479
I00
S'http://stores.lulu.com/web2py'
p4480
tp4481
aasbasbasbasbasbasbasbag49
(g65
g51
NtRp4482
(dp4483
g54
(dp4484
sg63
g4124
sg56
(lp4485
g49
(g70
g51
NtRp4486
(dp4487
g54
(dp4488
sg63
g4482
sg56
(lp4489
g49
(g50
g51
NtRp4490
(dp4491
g54
(dp4492
g62
I2
ssg63
g4486
sg56
(lp4493
g49
(g58
g51
NtRp4494
(dp4495
g54
(dp4496
g62
I1
ssg63
Nsg56
(lp4497
g49
(g65
g51
NtRp4498
(dp4499
g54
(dp4500
sg63
g4494
sg56
(lp4501
g49
(g70
g51
NtRp4502
(dp4503
g54
(dp4504
sg63
g4498
sg56
(lp4505
g49
(g50
g51
NtRp4506
(dp4507
g54
(dp4508
g62
I1
ssg63
g4502
sg56
(lp4509
g4011
(S't\t\x00\x00\x00Community'
tRp4510
asbasbasbag49
(g65
g51
NtRp4511
(dp4512
g54
(dp4513
sg63
g4494
sg56
(lp4514
g49
(g70
g51
NtRp4515
(dp4516
g54
(dp4517
sg63
g4511
sg56
(lp4518
g49
(g50
g51
NtRp4519
(dp4520
g54
(dp4521
g62
I1
ssg63
g4515
sg56
(lp4522
I00
asbasbasbag49
(g65
g51
NtRp4523
(dp4524
g54
(dp4525
sg63
g4494
sg56
(lp4526
g49
(g70
g51
NtRp4527
(dp4528
g54
(dp4529
sg63
g4523
sg56
(lp4530
g49
(g50
g51
NtRp4531
(dp4532
g54
(dp4533
g62
I1
ssg63
g4527
sg56
(lp4534
Nasbasbasbag49
(g65
g51
NtRp4535
(dp4536
g54
(dp4537
sg63
g4494
sg56
(lp4538
g49
(g70
g51
NtRp4539
(dp4540
g54
(dp4541
sg63
g4535
sg56
(lp4542
g49
(g50
g51
NtRp4543
(dp4544
g54
(dp4545
g62
I1
ssg63
g4539
sg56
(lp4546
(lp4547
(g4011
(S't\x06\x00\x00\x00Groups'
tRp4548
I00
S'http://www.web2py.com/examples/default/usergroups'
p4549
tp4550
a(g4011
(S't\x07\x00\x00\x00Twitter'
tRp4551
I00
S'http://twitter.com/web2py'
p4552
tp4553
a(g4011
(S's\t\x00\x00\x00Live Chat'
tRp4554
I00
S'http://webchat.freenode.net/?channels=web2py'
p4555
tp4556
aasbasbasbasbasbasbasbag49
(g65
g51
NtRp4557
(dp4558
g54
(dp4559
sg63
g4124
sg56
(lp4560
g49
(g70
g51
NtRp4561
(dp4562
g54
(dp4563
sg63
g4557
sg56
(lp4564
g49
(g50
g51
NtRp4565
(dp4566
g54
(dp4567
g62
I2
ssg63
g4561
sg56
(lp4568
g49
(g58
g51
NtRp4569
(dp4570
g54
(dp4571
g62
I1
ssg63
Nsg56
(lp4572
g49
(g65
g51
NtRp4573
(dp4574
g54
(dp4575
sg63
g4569
sg56
(lp4576
g49
(g70
g51
NtRp4577
(dp4578
g54
(dp4579
sg63
g4573
sg56
(lp4580
g49
(g50
g51
NtRp4581
(dp4582
g54
(dp4583
g62
I1
ssg63
g4577
sg56
(lp4584
g4011
(S't\x07\x00\x00\x00Plugins'
tRp4585
asbasbasbag49
(g65
g51
NtRp4586
(dp4587
g54
(dp4588
sg63
g4569
sg56
(lp4589
g49
(g70
g51
NtRp4590
(dp4591
g54
(dp4592
sg63
g4586
sg56
(lp4593
g49
(g50
g51
NtRp4594
(dp4595
g54
(dp4596
g62
I1
ssg63
g4590
sg56
(lp4597
I00
asbasbasbag49
(g65
g51
NtRp4598
(dp4599
g54
(dp4600
sg63
g4569
sg56
(lp4601
g49
(g70
g51
NtRp4602
(dp4603
g54
(dp4604
sg63
g4598
sg56
(lp4605
g49
(g50
g51
NtRp4606
(dp4607
g54
(dp4608
g62
I1
ssg63
g4602
sg56
(lp4609
Nasbasbasbag49
(g65
g51
NtRp4610
(dp4611
g54
(dp4612
sg63
g4569
sg56
(lp4613
g49
(g70
g51
NtRp4614
(dp4615
g54
(dp4616
sg63
g4610
sg56
(lp4617
g49
(g50
g51
NtRp4618
(dp4619
g54
(dp4620
g62
I1
ssg63
g4614
sg56
(lp4621
(lp4622
(S'plugin_wiki'
p4623
I00
S'http://web2py.com/examples/default/download'
p4624
tp4625
a(g4011
(S's\r\x00\x00\x00Other Plugins'
tRp4626
I00
g4356
tp4627
a(g4011
(S's\x0e\x00\x00\x00Layout Plugins'
tRp4628
I00
g4359
tp4629
aasbasbasbasbasbasbasbasbasbasbasbasbasbasbasbasbasbasbasbag49
(g65
g51
NtRp4630
(dp4631
g54
(dp4632
sg63
g3497
sg56
(lp4633
g49
(g70
g51
NtRp4634
(dp4635
g54
(dp4636
g74
g75
ssg63
g4630
sg56
(lp4637
S'meta'
p4638
asbag49
(g70
g51
NtRp4639
(dp4640
g54
(dp4641
g81
g82
ssg63
g4630
sg56
(lp4642
S':'
asbag49
(g70
g51
NtRp4643
(dp4644
g54
(dp4645
sg63
g4630
sg56
(lp4646
g49
(g50
g51
NtRp4647
(dp4648
g54
(dp4649
g62
I5
ssg63
g4643
sg56
(lp4650
g49
(g58
g51
NtRp4651
(dp4652
g54
(dp4653
g62
I4
ssg63
Nsg56
(lp4654
g49
(g65
g51
NtRp4655
(dp4656
g54
(dp4657
sg63
g4651
sg56
(lp4658
g49
(g70
g51
NtRp4659
(dp4660
g54
(dp4661
g74
g75
ssg63
g4655
sg56
(lp4662
S'author'
p4663
asbag49
(g70
g51
NtRp4664
(dp4665
g54
(dp4666
g81
g82
ssg63
g4655
sg56
(lp4667
S':'
asbag49
(g70
g51
NtRp4668
(dp4669
g54
(dp4670
sg63
g4655
sg56
(lp4671
g49
(g50
g51
NtRp4672
(dp4673
g54
(dp4674
g62
I4
ssg63
g4668
sg56
(lp4675
S'Your Name <you@example.com>'
p4676
asbasbasbag49
(g65
g51
NtRp4677
(dp4678
g54
(dp4679
sg63
g4651
sg56
(lp4680
g49
(g70
g51
NtRp4681
(dp4682
g54
(dp4683
g74
g75
ssg63
g4677
sg56
(lp4684
S'description'
p4685
asbag49
(g70
g51
NtRp4686
(dp4687
g54
(dp4688
g81
g82
ssg63
g4677
sg56
(lp4689
S':'
asbag49
(g70
g51
NtRp4690
(dp4691
g54
(dp4692
sg63
g4677
sg56
(lp4693
g49
(g50
g51
NtRp4694
(dp4695
g54
(dp4696
g62
I4
ssg63
g4690
sg56
(lp4697
S'a cool new app'
p4698
asbasbasbag49
(g65
g51
NtRp4699
(dp4700
g54
(dp4701
sg63
g4651
sg56
(lp4702
g49
(g70
g51
NtRp4703
(dp4704
g54
(dp4705
g74
g75
ssg63
g4699
sg56
(lp4706
S'generator'
p4707
asbag49
(g70
g51
NtRp4708
(dp4709
g54
(dp4710
g81
g82
ssg63
g4699
sg56
(lp4711
S':'
asbag49
(g70
g51
NtRp4712
(dp4713
g54
(dp4714
sg63
g4699
sg56
(lp4715
g49
(g50
g51
NtRp4716
(dp4717
g54
(dp4718
g62
I4
ssg63
g4712
sg56
(lp4719
S'Web2py Web Framework'
p4720
asbasbasbag49
(g65
g51
NtRp4721
(dp4722
g54
(dp4723
sg63
g4651
sg56
(lp4724
g49
(g70
g51
NtRp4725
(dp4726
g54
(dp4727
g74
g75
ssg63
g4721
sg56
(lp4728
S'keywords'
p4729
asbag49
(g70
g51
NtRp4730
(dp4731
g54
(dp4732
g81
g82
ssg63
g4721
sg56
(lp4733
S':'
asbag49
(g70
g51
NtRp4734
(dp4735
g54
(dp4736
sg63
g4721
sg56
(lp4737
g49
(g50
g51
NtRp4738
(dp4739
g54
(dp4740
g62
I4
ssg63
g4734
sg56
(lp4741
S'web2py, python, framework'
p4742
asbasbasbasbasbasbasbag49
(g65
g51
NtRp4743
(dp4744
g54
(dp4745
sg63
g3497
sg56
(lp4746
g49
(g70
g51
NtRp4747
(dp4748
g54
(dp4749
g74
g75
ssg63
g4743
sg56
(lp4750
S'models_to_run'
p4751
asbag49
(g70
g51
NtRp4752
(dp4753
g54
(dp4754
g81
g82
ssg63
g4743
sg56
(lp4755
S':'
asbag49
(g70
g51
NtRp4756
(dp4757
g54
(dp4758
sg63
g4743
sg56
(lp4759
g49
(g50
g51
NtRp4760
(dp4761
g54
(dp4762
g62
I5
ssg63
g4756
sg56
(lp4763
g49
(g58
g51
NtRp4764
(dp4765
g54
(dp4766
g62
I4
ssg63
Nsg56
(lp4767
g49
(g65
g51
NtRp4768
(dp4769
g54
(dp4770
sg63
g4764
sg56
(lp4771
g49
(g70
g51
NtRp4772
(dp4773
g54
(dp4774
sg63
g4768
sg56
(lp4775
g49
(g50
g51
NtRp4776
(dp4777
g54
(dp4778
g62
I4
ssg63
g4772
sg56
(lp4779
S'^\\w+\\.py$'
p4780
asbasbasbag49
(g65
g51
NtRp4781
(dp4782
g54
(dp4783
sg63
g4764
sg56
(lp4784
g49
(g70
g51
NtRp4785
(dp4786
g54
(dp4787
sg63
g4781
sg56
(lp4788
g49
(g50
g51
NtRp4789
(dp4790
g54
(dp4791
g62
I4
ssg63
g4785
sg56
(lp4792
S'^default/\\w+\\.py$'
p4793
asbasbasbag49
(g65
g51
NtRp4794
(dp4795
g54
(dp4796
sg63
g4764
sg56
(lp4797
g49
(g70
g51
NtRp4798
(dp4799
g54
(dp4800
sg63
g4794
sg56
(lp4801
g49
(g50
g51
NtRp4802
(dp4803
g54
(dp4804
g62
I4
ssg63
g4798
sg56
(lp4805
S'^default/mobile_user_register/\\w+\\.py$'
p4806
asbasbasbasbasbasbasbag49
(g65
g51
NtRp4807
(dp4808
g54
(dp4809
sg63
g3497
sg56
(lp4810
g49
(g70
g51
NtRp4811
(dp4812
g54
(dp4813
g74
g75
ssg63
g4807
sg56
(lp4814
S'postprocessing'
p4815
asbag49
(g70
g51
NtRp4816
(dp4817
g54
(dp4818
g81
g82
ssg63
g4807
sg56
(lp4819
S':'
asbag49
(g70
g51
NtRp4820
(dp4821
g54
(dp4822
sg63
g4807
sg56
(lp4823
g49
(g50
g51
NtRp4824
(dp4825
g54
(dp4826
g62
I5
ssg63
g4820
sg56
(lp4827
g49
(g58
g51
NtRp4828
(dp4829
g54
(dp4830
g62
I4
ssg63
Nsg56
(lp4831
sbasbasbasbag49
(g65
g51
NtRp4832
(dp4833
g54
(dp4834
sg63
g3497
sg56
(lp4835
g49
(g70
g51
NtRp4836
(dp4837
g54
(dp4838
g74
g75
ssg63
g4832
sg56
(lp4839
S'session_cookie_expires'
p4840
asbag49
(g70
g51
NtRp4841
(dp4842
g54
(dp4843
g81
g82
ssg63
g4832
sg56
(lp4844
S':'
asbag49
(g70
g51
NtRp4845
(dp4846
g54
(dp4847
sg63
g4832
sg56
(lp4848
g49
(g50
g51
NtRp4849
(dp4850
g54
(dp4851
g62
I5
ssg63
g4845
sg56
(lp4852
S'None'
p4853
asbasbasbag49
(g65
g51
NtRp4854
(dp4855
g54
(dp4856
sg63
g3497
sg56
(lp4857
g49
(g70
g51
NtRp4858
(dp4859
g54
(dp4860
g74
g75
ssg63
g4854
sg56
(lp4861
S'session_data_name'
p4862
asbag49
(g70
g51
NtRp4863
(dp4864
g54
(dp4865
g81
g82
ssg63
g4854
sg56
(lp4866
S':'
asbag49
(g70
g51
NtRp4867
(dp4868
g54
(dp4869
sg63
g4854
sg56
(lp4870
g49
(g50
g51
NtRp4871
(dp4872
g54
(dp4873
g62
I5
ssg63
g4867
sg56
(lp4874
S'session_data_mr'
p4875
asbasbasbag49
(g65
g51
NtRp4876
(dp4877
g54
(dp4878
sg63
g3497
sg56
(lp4879
g49
(g70
g51
NtRp4880
(dp4881
g54
(dp4882
g74
g75
ssg63
g4876
sg56
(lp4883
S'session_file'
p4884
asbag49
(g70
g51
NtRp4885
(dp4886
g54
(dp4887
g81
g82
ssg63
g4876
sg56
(lp4888
S':'
asbag49
(g70
g51
NtRp4889
(dp4890
g54
(dp4891
sg63
g4876
sg56
(lp4892
g49
(g50
g51
NtRp4893
(dp4894
g54
(dp4895
g62
I5
ssg63
g4889
sg56
(lp4896
S"<open file '/Applications/web2py.app/Contents/Resources/applications/MR/sessions/127.0.0.1-56f6c833-4495-4158-afa1-0ddb41c94ce0', mode 'rb+' at 0x8b2e530>"
p4897
asbasbasbag49
(g65
g51
NtRp4898
(dp4899
g54
(dp4900
sg63
g3497
sg56
(lp4901
g49
(g70
g51
NtRp4902
(dp4903
g54
(dp4904
g74
g75
ssg63
g4898
sg56
(lp4905
S'session_filename'
p4906
asbag49
(g70
g51
NtRp4907
(dp4908
g54
(dp4909
g81
g82
ssg63
g4898
sg56
(lp4910
S':'
asbag49
(g70
g51
NtRp4911
(dp4912
g54
(dp4913
sg63
g4898
sg56
(lp4914
g49
(g50
g51
NtRp4915
(dp4916
g54
(dp4917
g62
I5
ssg63
g4911
sg56
(lp4918
S'/Applications/web2py.app/Contents/Resources/applications/MR/sessions/127.0.0.1-56f6c833-4495-4158-afa1-0ddb41c94ce0'
p4919
asbasbasbag49
(g65
g51
NtRp4920
(dp4921
g54
(dp4922
sg63
g3497
sg56
(lp4923
g49
(g70
g51
NtRp4924
(dp4925
g54
(dp4926
g74
g75
ssg63
g4920
sg56
(lp4927
S'session_id'
p4928
asbag49
(g70
g51
NtRp4929
(dp4930
g54
(dp4931
g81
g82
ssg63
g4920
sg56
(lp4932
S':'
asbag49
(g70
g51
NtRp4933
(dp4934
g54
(dp4935
sg63
g4920
sg56
(lp4936
g49
(g50
g51
NtRp4937
(dp4938
g54
(dp4939
g62
I5
ssg63
g4933
sg56
(lp4940
g446
asbasbasbag49
(g65
g51
NtRp4941
(dp4942
g54
(dp4943
sg63
g3497
sg56
(lp4944
g49
(g70
g51
NtRp4945
(dp4946
g54
(dp4947
g74
g75
ssg63
g4941
sg56
(lp4948
S'session_id_name'
p4949
asbag49
(g70
g51
NtRp4950
(dp4951
g54
(dp4952
g81
g82
ssg63
g4941
sg56
(lp4953
S':'
asbag49
(g70
g51
NtRp4954
(dp4955
g54
(dp4956
sg63
g4941
sg56
(lp4957
g49
(g50
g51
NtRp4958
(dp4959
g54
(dp4960
g62
I5
ssg63
g4954
sg56
(lp4961
g3554
asbasbasbag49
(g65
g51
NtRp4962
(dp4963
g54
(dp4964
sg63
g3497
sg56
(lp4965
g49
(g70
g51
NtRp4966
(dp4967
g54
(dp4968
g74
g75
ssg63
g4962
sg56
(lp4969
S'session_locked'
p4970
asbag49
(g70
g51
NtRp4971
(dp4972
g54
(dp4973
g81
g82
ssg63
g4962
sg56
(lp4974
S':'
asbag49
(g70
g51
NtRp4975
(dp4976
g54
(dp4977
sg63
g4962
sg56
(lp4978
g49
(g50
g51
NtRp4979
(dp4980
g54
(dp4981
g62
I5
ssg63
g4975
sg56
(lp4982
g916
asbasbasbag49
(g65
g51
NtRp4983
(dp4984
g54
(dp4985
sg63
g3497
sg56
(lp4986
g49
(g70
g51
NtRp4987
(dp4988
g54
(dp4989
g74
g75
ssg63
g4983
sg56
(lp4990
S'session_new'
p4991
asbag49
(g70
g51
NtRp4992
(dp4993
g54
(dp4994
g81
g82
ssg63
g4983
sg56
(lp4995
S':'
asbag49
(g70
g51
NtRp4996
(dp4997
g54
(dp4998
sg63
g4983
sg56
(lp4999
g49
(g50
g51
NtRp5000
(dp5001
g54
(dp5002
g62
I5
ssg63
g4996
sg56
(lp5003
g92
asbasbasbag49
(g65
g51
NtRp5004
(dp5005
g54
(dp5006
sg63
g3497
sg56
(lp5007
g49
(g70
g51
NtRp5008
(dp5009
g54
(dp5010
g74
g75
ssg63
g5004
sg56
(lp5011
S'session_storage_type'
p5012
asbag49
(g70
g51
NtRp5013
(dp5014
g54
(dp5015
g81
g82
ssg63
g5004
sg56
(lp5016
S':'
asbag49
(g70
g51
NtRp5017
(dp5018
g54
(dp5019
sg63
g5004
sg56
(lp5020
g49
(g50
g51
NtRp5021
(dp5022
g54
(dp5023
g62
I5
ssg63
g5017
sg56
(lp5024
g3386
asbasbasbag49
(g65
g51
NtRp5025
(dp5026
g54
(dp5027
sg63
g3497
sg56
(lp5028
g49
(g70
g51
NtRp5029
(dp5030
g54
(dp5031
g74
g75
ssg63
g5025
sg56
(lp5032
S'status'
p5033
asbag49
(g70
g51
NtRp5034
(dp5035
g54
(dp5036
g81
g82
ssg63
g5025
sg56
(lp5037
S':'
asbag49
(g70
g51
NtRp5038
(dp5039
g54
(dp5040
sg63
g5025
sg56
(lp5041
g49
(g50
g51
NtRp5042
(dp5043
g54
(dp5044
g62
I5
ssg63
g5038
sg56
(lp5045
S'200'
p5046
asbasbasbag49
(g65
g51
NtRp5047
(dp5048
g54
(dp5049
sg63
g3497
sg56
(lp5050
g49
(g70
g51
NtRp5051
(dp5052
g54
(dp5053
g74
g75
ssg63
g5047
sg56
(lp5054
S'subtitle'
p5055
asbag49
(g70
g51
NtRp5056
(dp5057
g54
(dp5058
g81
g82
ssg63
g5047
sg56
(lp5059
S':'
asbag49
(g70
g51
NtRp5060
(dp5061
g54
(dp5062
sg63
g5047
sg56
(lp5063
g49
(g50
g51
NtRp5064
(dp5065
g54
(dp5066
g62
I5
ssg63
g5060
sg56
(lp5067
g4011
(S's\r\x00\x00\x00\xe8\xab\x8b\xe8\xaa\xbf\xe6\x95\xb4\xe6\x88\x91!'
tRp5068
asbasbasbag49
(g65
g51
NtRp5069
(dp5070
g54
(dp5071
sg63
g3497
sg56
(lp5072
g49
(g70
g51
NtRp5073
(dp5074
g54
(dp5075
g74
g75
ssg63
g5069
sg56
(lp5076
S'title'
p5077
asbag49
(g70
g51
NtRp5078
(dp5079
g54
(dp5080
g81
g82
ssg63
g5069
sg56
(lp5081
S':'
asbag49
(g70
g51
NtRp5082
(dp5083
g54
(dp5084
sg63
g5069
sg56
(lp5085
g49
(g50
g51
NtRp5086
(dp5087
g54
(dp5088
g62
I5
ssg63
g5082
sg56
(lp5089
S'Mr'
p5090
asbasbasbag49
(g65
g51
NtRp5091
(dp5092
g54
(dp5093
sg63
g3497
sg56
(lp5094
g49
(g70
g51
NtRp5095
(dp5096
g54
(dp5097
g74
g75
ssg63
g5091
sg56
(lp5098
S'view'
p5099
asbag49
(g70
g51
NtRp5100
(dp5101
g54
(dp5102
g81
g82
ssg63
g5091
sg56
(lp5103
S':'
asbag49
(g70
g51
NtRp5104
(dp5105
g54
(dp5106
sg63
g5091
sg56
(lp5107
g49
(g50
g51
NtRp5108
(dp5109
g54
(dp5110
g62
I5
ssg63
g5104
sg56
(lp5111
S'default/mobile_user_register.html'
p5112
asbasbasbasbasbsS'locals'
p5113
(dp5114
S'rows'
p5115
S'<Rows (0)>'
p5116
sS'firstname'
p5117
S"'asdf'"
p5118
sS'country'
p5119
S"'asdf'"
p5120
sS'lastname'
p5121
S"'asdf'"
p5122
sS'password'
p5123
S"'adsf'"
p5124
sS'email'
p5125
S"'adsf'"
p5126
sssS'traceback'
p5127
S'Traceback (most recent call last):\n  File "/home/mdipierro/web2py/gluon/restricted.py", line 212, in restricted\n  File "/Applications/web2py.app/Contents/Resources/applications/MR/controllers/default.py", line 93, in <module>\n  File "/home/mdipierro/web2py/gluon/globals.py", line 193, in <lambda>\n  File "/Applications/web2py.app/Contents/Resources/applications/MR/controllers/default.py", line 61, in mobile_user_register\nAttributeError: \'module\' object has no attribute \'d5_hash\'\n'
p5128
s.