(dp1
S'output'
p2
S"<class 'sqlite3.IntegrityError'> column user_name is not unique"
p3
sS'layer'
p4
S'/Applications/web2py.app/Contents/Resources/applications/MR/controllers/default.py'
p5
sS'code'
p6
S'# -*- coding: utf-8 -*-\n# this file is released under public domain and you can use without limitations\n\n#########################################################################\n## This is a samples controller\n## - index is the default action of any application\n## - user is required for authentication and authorization\n## - download is for downloading files uploaded in the db (does streaming)\n## - call exposes all registered services (none by default)\n#########################################################################\nimport gluon.utils as TT\n\ndef index():\n    return dict(message=T(\'Hello World\'))\n\n\ndef user():\n    """\n    exposes:\n    http://..../[app]/default/user/login\n    http://..../[app]/default/user/logout\n    http://..../[app]/default/user/register\n    http://..../[app]/default/user/profile\n    http://..../[app]/default/user/retrieve_password\n    http://..../[app]/default/user/change_password\n    use @auth.requires_login()\n        @auth.requires_membership(\'group name\')\n        @auth.requires_permission(\'read\',\'table name\',record_id)\n    to decorate functions that need access control\n    """\n    return dict(form=auth())\n\ndef download():\n    """\n    allows downloading of uploaded files\n    http://..../[app]/default/download/[filename]\n    """\n    return response.download(request, db)\n\n\ndef call():\n    """\n    exposes services. for example:\n    http://..../[app]/default/call/jsonrpc\n    decorate with @services.jsonrpc the functions to expose\n    supports xml, json, xmlrpc, jsonrpc, amfrpc, rss, csv\n    """\n    return service()\n\n#@service.jsonrpc\ndef mobile_user_register():\n    email = request.vars.email\n    password = request.vars.password\n    firstname = request.vars.firstname\n    lastname = request.vars.lastname\n    country = request.vars.country\n    rows = db(db.mobile_user.email==email).select()\n    if len(rows) != 0:\n        return {\'status\': \'exist\'}\n    \n    result = TT.md5_hash(password)\n    ret = db.mobile_user.validate_and_insert(email=email, password=password, first_name=firstname, last_name=lastname, md5=result, country=country)\n    if ret.errors:\n        return {\'status\':\'ERROR\'}        \n        \n    return {\'status\': \'success\', \'result\': result}\n    \n#@service.jsonrpc\ndef mobile_user_login(email, password):\n    rows = db(db.mobile_user.email==email).select()\n    if len(rows) != 1:\n        return {\'status\': \'ERROR\'}\n    user = rows[0]\n    return {\'status\':\'success\', \'result\': user.md5}\n\n@auth.requires_signature()\ndef data():\n    """\n    http://..../[app]/default/data/tables\n    http://..../[app]/default/data/create/[table]\n    http://..../[app]/default/data/read/[table]/[id]\n    http://..../[app]/default/data/update/[table]/[id]\n    http://..../[app]/default/data/delete/[table]/[id]\n    http://..../[app]/default/data/select/[table]\n    http://..../[app]/default/data/search/[table]\n    but URLs must be signed, i.e. linked with\n      A(\'table\',_href=URL(\'data/tables\',user_signature=True))\n    or with the signed load operator\n      LOAD(\'default\',\'data.load\',args=\'tables\',ajax=True,user_signature=True)\n    """\n    return dict(form=crud())\n\nresponse._vars=response._caller(mobile_user_register)\n'
p7
sS'snapshot'
p8
(dp9
S'exception'
p10
(dp11
S'__hash__'
p12
S"<method-wrapper '__hash__' of IntegrityError object at 0x8aa9ad0>"
p13
sS'__module__'
p14
S"'sqlite3'"
p15
sS'__reduce_ex__'
p16
S'<built-in method __reduce_ex__ of IntegrityError object at 0x8aa9ad0>'
p17
sS'__getslice__'
p18
S"<method-wrapper '__getslice__' of IntegrityError object at 0x8aa9ad0>"
p19
sS'__getitem__'
p20
S"<method-wrapper '__getitem__' of IntegrityError object at 0x8aa9ad0>"
p21
sS'__setstate__'
p22
S'<built-in method __setstate__ of IntegrityError object at 0x8aa9ad0>'
p23
sS'__reduce__'
p24
S'<built-in method __reduce__ of IntegrityError object at 0x8aa9ad0>'
p25
sS'__str__'
p26
S"<method-wrapper '__str__' of IntegrityError object at 0x8aa9ad0>"
p27
sS'args'
p28
S"('column user_name is not unique',)"
p29
sS'__getattribute__'
p30
S"<method-wrapper '__getattribute__' of IntegrityError object at 0x8aa9ad0>"
p31
sS'__class__'
p32
S"<class 'sqlite3.IntegrityError'>"
p33
sS'__delattr__'
p34
S"<method-wrapper '__delattr__' of IntegrityError object at 0x8aa9ad0>"
p35
sS'__repr__'
p36
S"<method-wrapper '__repr__' of IntegrityError object at 0x8aa9ad0>"
p37
sS'__setattr__'
p38
S"<method-wrapper '__setattr__' of IntegrityError object at 0x8aa9ad0>"
p39
sS'__dict__'
p40
S'{}'
p41
sS'__weakref__'
p42
S'None'
p43
sS'__doc__'
p44
S'None'
p45
sS'__init__'
p46
S"<method-wrapper '__init__' of IntegrityError object at 0x8aa9ad0>"
p47
sS'__new__'
p48
S'<built-in method __new__ of type object at 0x5f83a0>'
p49
ssS'evalue'
p50
S'column user_name is not unique'
p51
sS'request'
p52
ccopy_reg
_reconstructor
p53
(cgluon.html
BEAUTIFY
p54
c__builtin__
object
p55
NtRp56
(dp57
S'attributes'
p58
(dp59
sS'components'
p60
(lp61
g53
(cgluon.html
TABLE
p62
g55
NtRp63
(dp64
g58
(dp65
S'level'
p66
I5
ssS'parent'
p67
Nsg60
(lp68
g53
(cgluon.html
TR
p69
g55
NtRp70
(dp71
g58
(dp72
sg67
g63
sg60
(lp73
g53
(cgluon.html
TD
p74
g55
NtRp75
(dp76
g58
(dp77
S'_style'
p78
S'font-weight:bold;vertical-align:top'
p79
ssg67
g70
sg60
(lp80
S'ajax'
p81
asbag53
(g74
g55
NtRp82
(dp83
g58
(dp84
S'_valign'
p85
S'top'
p86
ssg67
g70
sg60
(lp87
S':'
asbag53
(g74
g55
NtRp88
(dp89
g58
(dp90
sg67
g70
sg60
(lp91
g53
(g54
g55
NtRp92
(dp93
g58
(dp94
g66
I5
ssg67
g88
sg60
(lp95
S'False'
p96
asbasbasbag53
(g69
g55
NtRp97
(dp98
g58
(dp99
sg67
g63
sg60
(lp100
g53
(g74
g55
NtRp101
(dp102
g58
(dp103
g78
g79
ssg67
g97
sg60
(lp104
S'application'
p105
asbag53
(g74
g55
NtRp106
(dp107
g58
(dp108
g85
g86
ssg67
g97
sg60
(lp109
S':'
asbag53
(g74
g55
NtRp110
(dp111
g58
(dp112
sg67
g97
sg60
(lp113
g53
(g54
g55
NtRp114
(dp115
g58
(dp116
g66
I5
ssg67
g110
sg60
(lp117
S'MR'
p118
asbasbasbag53
(g69
g55
NtRp119
(dp120
g58
(dp121
sg67
g63
sg60
(lp122
g53
(g74
g55
NtRp123
(dp124
g58
(dp125
g78
g79
ssg67
g119
sg60
(lp126
g28
asbag53
(g74
g55
NtRp127
(dp128
g58
(dp129
g85
g86
ssg67
g119
sg60
(lp130
S':'
asbag53
(g74
g55
NtRp131
(dp132
g58
(dp133
sg67
g119
sg60
(lp134
g53
(g54
g55
NtRp135
(dp136
g58
(dp137
g66
I5
ssg67
g131
sg60
(lp138
g53
(g62
g55
NtRp139
(dp140
g58
(dp141
g66
I4
ssg67
Nsg60
(lp142
sbasbasbasbag53
(g69
g55
NtRp143
(dp144
g58
(dp145
sg67
g63
sg60
(lp146
g53
(g74
g55
NtRp147
(dp148
g58
(dp149
g78
g79
ssg67
g143
sg60
(lp150
S'body'
p151
asbag53
(g74
g55
NtRp152
(dp153
g58
(dp154
g85
g86
ssg67
g143
sg60
(lp155
S':'
asbag53
(g74
g55
NtRp156
(dp157
g58
(dp158
sg67
g143
sg60
(lp159
g53
(g54
g55
NtRp160
(dp161
g58
(dp162
g66
I5
ssg67
g156
sg60
(lp163
S'<cStringIO.StringO object at 0x7899200>'
p164
asbasbasbag53
(g69
g55
NtRp165
(dp166
g58
(dp167
sg67
g63
sg60
(lp168
g53
(g74
g55
NtRp169
(dp170
g58
(dp171
g78
g79
ssg67
g165
sg60
(lp172
S'cid'
p173
asbag53
(g74
g55
NtRp174
(dp175
g58
(dp176
g85
g86
ssg67
g165
sg60
(lp177
S':'
asbag53
(g74
g55
NtRp178
(dp179
g58
(dp180
sg67
g165
sg60
(lp181
g53
(g54
g55
NtRp182
(dp183
g58
(dp184
g66
I5
ssg67
g178
sg60
(lp185
S'None'
p186
asbasbasbag53
(g69
g55
NtRp187
(dp188
g58
(dp189
sg67
g63
sg60
(lp190
g53
(g74
g55
NtRp191
(dp192
g58
(dp193
g78
g79
ssg67
g187
sg60
(lp194
S'client'
p195
asbag53
(g74
g55
NtRp196
(dp197
g58
(dp198
g85
g86
ssg67
g187
sg60
(lp199
S':'
asbag53
(g74
g55
NtRp200
(dp201
g58
(dp202
sg67
g187
sg60
(lp203
g53
(g54
g55
NtRp204
(dp205
g58
(dp206
g66
I5
ssg67
g200
sg60
(lp207
S'127.0.0.1'
p208
asbasbasbag53
(g69
g55
NtRp209
(dp210
g58
(dp211
sg67
g63
sg60
(lp212
g53
(g74
g55
NtRp213
(dp214
g58
(dp215
g78
g79
ssg67
g209
sg60
(lp216
S'controller'
p217
asbag53
(g74
g55
NtRp218
(dp219
g58
(dp220
g85
g86
ssg67
g209
sg60
(lp221
S':'
asbag53
(g74
g55
NtRp222
(dp223
g58
(dp224
sg67
g209
sg60
(lp225
g53
(g54
g55
NtRp226
(dp227
g58
(dp228
g66
I5
ssg67
g222
sg60
(lp229
S'default'
p230
asbasbasbag53
(g69
g55
NtRp231
(dp232
g58
(dp233
sg67
g63
sg60
(lp234
g53
(g74
g55
NtRp235
(dp236
g58
(dp237
g78
g79
ssg67
g231
sg60
(lp238
S'cookies'
p239
asbag53
(g74
g55
NtRp240
(dp241
g58
(dp242
g85
g86
ssg67
g231
sg60
(lp243
S':'
asbag53
(g74
g55
NtRp244
(dp245
g58
(dp246
sg67
g231
sg60
(lp247
g53
(g54
g55
NtRp248
(dp249
g58
(dp250
g66
I5
ssg67
g244
sg60
(lp251
g53
(g62
g55
NtRp252
(dp253
g58
(dp254
g66
I4
ssg67
Nsg60
(lp255
g53
(g69
g55
NtRp256
(dp257
g58
(dp258
sg67
g252
sg60
(lp259
g53
(g74
g55
NtRp260
(dp261
g58
(dp262
g78
g79
ssg67
g256
sg60
(lp263
S'session_id_mr'
p264
asbag53
(g74
g55
NtRp265
(dp266
g58
(dp267
g85
g86
ssg67
g256
sg60
(lp268
S':'
asbag53
(g74
g55
NtRp269
(dp270
g58
(dp271
sg67
g256
sg60
(lp272
g53
(g54
g55
NtRp273
(dp274
g58
(dp275
g66
I4
ssg67
g269
sg60
(lp276
S'127.0.0.1-01c54a64-3e63-47a8-a67b-a7e1fee963a1'
p277
ag53
(g62
g55
NtRp278
(dp279
g58
(dp280
g66
I3
ssg67
Nsg60
(lp281
g53
(g69
g55
NtRp282
(dp283
g58
(dp284
sg67
g278
sg60
(lp285
g53
(g74
g55
NtRp286
(dp287
g58
(dp288
g78
g79
ssg67
g282
sg60
(lp289
S'comment'
p290
asbag53
(g74
g55
NtRp291
(dp292
g58
(dp293
g85
g86
ssg67
g282
sg60
(lp294
S':'
asbag53
(g74
g55
NtRp295
(dp296
g58
(dp297
sg67
g282
sg60
(lp298
g53
(g54
g55
NtRp299
(dp300
g58
(dp301
g66
I3
ssg67
g295
sg60
(lp302
S''
asbasbasbag53
(g69
g55
NtRp303
(dp304
g58
(dp305
sg67
g278
sg60
(lp306
g53
(g74
g55
NtRp307
(dp308
g58
(dp309
g78
g79
ssg67
g303
sg60
(lp310
S'domain'
p311
asbag53
(g74
g55
NtRp312
(dp313
g58
(dp314
g85
g86
ssg67
g303
sg60
(lp315
S':'
asbag53
(g74
g55
NtRp316
(dp317
g58
(dp318
sg67
g303
sg60
(lp319
g53
(g54
g55
NtRp320
(dp321
g58
(dp322
g66
I3
ssg67
g316
sg60
(lp323
S''
asbasbasbag53
(g69
g55
NtRp324
(dp325
g58
(dp326
sg67
g278
sg60
(lp327
g53
(g74
g55
NtRp328
(dp329
g58
(dp330
g78
g79
ssg67
g324
sg60
(lp331
S'expires'
p332
asbag53
(g74
g55
NtRp333
(dp334
g58
(dp335
g85
g86
ssg67
g324
sg60
(lp336
S':'
asbag53
(g74
g55
NtRp337
(dp338
g58
(dp339
sg67
g324
sg60
(lp340
g53
(g54
g55
NtRp341
(dp342
g58
(dp343
g66
I3
ssg67
g337
sg60
(lp344
S''
asbasbasbag53
(g69
g55
NtRp345
(dp346
g58
(dp347
sg67
g278
sg60
(lp348
g53
(g74
g55
NtRp349
(dp350
g58
(dp351
g78
g79
ssg67
g345
sg60
(lp352
S'max-age'
p353
asbag53
(g74
g55
NtRp354
(dp355
g58
(dp356
g85
g86
ssg67
g345
sg60
(lp357
S':'
asbag53
(g74
g55
NtRp358
(dp359
g58
(dp360
sg67
g345
sg60
(lp361
g53
(g54
g55
NtRp362
(dp363
g58
(dp364
g66
I3
ssg67
g358
sg60
(lp365
S''
asbasbasbag53
(g69
g55
NtRp366
(dp367
g58
(dp368
sg67
g278
sg60
(lp369
g53
(g74
g55
NtRp370
(dp371
g58
(dp372
g78
g79
ssg67
g366
sg60
(lp373
S'path'
p374
asbag53
(g74
g55
NtRp375
(dp376
g58
(dp377
g85
g86
ssg67
g366
sg60
(lp378
S':'
asbag53
(g74
g55
NtRp379
(dp380
g58
(dp381
sg67
g366
sg60
(lp382
g53
(g54
g55
NtRp383
(dp384
g58
(dp385
g66
I3
ssg67
g379
sg60
(lp386
S''
asbasbasbag53
(g69
g55
NtRp387
(dp388
g58
(dp389
sg67
g278
sg60
(lp390
g53
(g74
g55
NtRp391
(dp392
g58
(dp393
g78
g79
ssg67
g387
sg60
(lp394
S'secure'
p395
asbag53
(g74
g55
NtRp396
(dp397
g58
(dp398
g85
g86
ssg67
g387
sg60
(lp399
S':'
asbag53
(g74
g55
NtRp400
(dp401
g58
(dp402
sg67
g387
sg60
(lp403
g53
(g54
g55
NtRp404
(dp405
g58
(dp406
g66
I3
ssg67
g400
sg60
(lp407
S''
asbasbasbag53
(g69
g55
NtRp408
(dp409
g58
(dp410
sg67
g278
sg60
(lp411
g53
(g74
g55
NtRp412
(dp413
g58
(dp414
g78
g79
ssg67
g408
sg60
(lp415
S'version'
p416
asbag53
(g74
g55
NtRp417
(dp418
g58
(dp419
g85
g86
ssg67
g408
sg60
(lp420
S':'
asbag53
(g74
g55
NtRp421
(dp422
g58
(dp423
sg67
g408
sg60
(lp424
g53
(g54
g55
NtRp425
(dp426
g58
(dp427
g66
I3
ssg67
g421
sg60
(lp428
S''
asbasbasbasbasbasbasbasbasbasbasbag53
(g69
g55
NtRp429
(dp430
g58
(dp431
sg67
g63
sg60
(lp432
g53
(g74
g55
NtRp433
(dp434
g58
(dp435
g78
g79
ssg67
g429
sg60
(lp436
S'env'
p437
asbag53
(g74
g55
NtRp438
(dp439
g58
(dp440
g85
g86
ssg67
g429
sg60
(lp441
S':'
asbag53
(g74
g55
NtRp442
(dp443
g58
(dp444
sg67
g429
sg60
(lp445
g53
(g54
g55
NtRp446
(dp447
g58
(dp448
g66
I5
ssg67
g442
sg60
(lp449
g53
(g62
g55
NtRp450
(dp451
g58
(dp452
g66
I4
ssg67
Nsg60
(lp453
g53
(g69
g55
NtRp454
(dp455
g58
(dp456
sg67
g450
sg60
(lp457
g53
(g74
g55
NtRp458
(dp459
g58
(dp460
g78
g79
ssg67
g454
sg60
(lp461
S'app_folders'
p462
asbag53
(g74
g55
NtRp463
(dp464
g58
(dp465
g85
g86
ssg67
g454
sg60
(lp466
S':'
asbag53
(g74
g55
NtRp467
(dp468
g58
(dp469
sg67
g454
sg60
(lp470
g53
(g54
g55
NtRp471
(dp472
g58
(dp473
g66
I4
ssg67
g467
sg60
(lp474
S"set(['/Applications/web2py.app/Contents/Resources/applications/MR/'])"
p475
asbasbasbag53
(g69
g55
NtRp476
(dp477
g58
(dp478
sg67
g450
sg60
(lp479
g53
(g74
g55
NtRp480
(dp481
g58
(dp482
g78
g79
ssg67
g476
sg60
(lp483
S'applications_parent'
p484
asbag53
(g74
g55
NtRp485
(dp486
g58
(dp487
g85
g86
ssg67
g476
sg60
(lp488
S':'
asbag53
(g74
g55
NtRp489
(dp490
g58
(dp491
sg67
g476
sg60
(lp492
g53
(g54
g55
NtRp493
(dp494
g58
(dp495
g66
I4
ssg67
g489
sg60
(lp496
S'/Applications/web2py.app/Contents/Resources'
p497
asbasbasbag53
(g69
g55
NtRp498
(dp499
g58
(dp500
sg67
g450
sg60
(lp501
g53
(g74
g55
NtRp502
(dp503
g58
(dp504
g78
g79
ssg67
g498
sg60
(lp505
S'cmd_args'
p506
asbag53
(g74
g55
NtRp507
(dp508
g58
(dp509
g85
g86
ssg67
g498
sg60
(lp510
S':'
asbag53
(g74
g55
NtRp511
(dp512
g58
(dp513
sg67
g498
sg60
(lp514
g53
(g54
g55
NtRp515
(dp516
g58
(dp517
g66
I4
ssg67
g511
sg60
(lp518
g53
(g62
g55
NtRp519
(dp520
g58
(dp521
g66
I3
ssg67
Nsg60
(lp522
sbasbasbasbag53
(g69
g55
NtRp523
(dp524
g58
(dp525
sg67
g450
sg60
(lp526
g53
(g74
g55
NtRp527
(dp528
g58
(dp529
g78
g79
ssg67
g523
sg60
(lp530
S'cmd_options'
p531
asbag53
(g74
g55
NtRp532
(dp533
g58
(dp534
g85
g86
ssg67
g523
sg60
(lp535
S':'
asbag53
(g74
g55
NtRp536
(dp537
g58
(dp538
sg67
g523
sg60
(lp539
g53
(g54
g55
NtRp540
(dp541
g58
(dp542
g66
I4
ssg67
g536
sg60
(lp543
S"<Values at 0x4596f58: {'verbose': False, 'ip': '127.0.0.1', 'with_scheduler': False, 'ips': ['140.142.222.54'], 'shutdown_timeout': 5, 'taskbar': False, 'port': 8000, 'maxthreads': None, 'softcron': False, 'server_name': 'd-140-142-222-54.dhcp4.washington.edu', 'bpython': False, 'nogui': False, 'pid_filename': 'httpserver.pid', 'extcron': False, 'runcron': False, 'run_system_tests': False, 'test': None, 'folder': '/Applications/web2py.app/Contents/Resources', 'config': '', 'import_models': False, 'winservice': '', 'shell': None, 'run': '', 'log_filename': 'httpserver.log', 'debuglevel': 30, 'args': [''], 'socket_timeout': 5, 'ssl_ca_certificate': None, 'scheduler': None, 'profiler_filename': None, 'ssl_private_key': '', 'scheduler_groups': None, 'password': '<ask>', 'request_queue_size': 5, 'ssl_certificate': '', 'cronjob': False, 'numthreads': None, 'quiet': False, 'interfaces': None, 'minthreads': None, 'timeout': 10, 'plain': False, 'nobanner': False}>"
p544
asbasbasbag53
(g69
g55
NtRp545
(dp546
g58
(dp547
sg67
g450
sg60
(lp548
g53
(g74
g55
NtRp549
(dp550
g58
(dp551
g78
g79
ssg67
g545
sg60
(lp552
S'db_sessions'
p553
asbag53
(g74
g55
NtRp554
(dp555
g58
(dp556
g85
g86
ssg67
g545
sg60
(lp557
S':'
asbag53
(g74
g55
NtRp558
(dp559
g58
(dp560
sg67
g545
sg60
(lp561
g53
(g54
g55
NtRp562
(dp563
g58
(dp564
g66
I4
ssg67
g558
sg60
(lp565
S'set([])'
p566
asbasbasbag53
(g69
g55
NtRp567
(dp568
g58
(dp569
sg67
g450
sg60
(lp570
g53
(g74
g55
NtRp571
(dp572
g58
(dp573
g78
g79
ssg67
g567
sg60
(lp574
S'debugging'
p575
asbag53
(g74
g55
NtRp576
(dp577
g58
(dp578
g85
g86
ssg67
g567
sg60
(lp579
S':'
asbag53
(g74
g55
NtRp580
(dp581
g58
(dp582
sg67
g567
sg60
(lp583
g53
(g54
g55
NtRp584
(dp585
g58
(dp586
g66
I4
ssg67
g580
sg60
(lp587
g96
asbasbasbag53
(g69
g55
NtRp588
(dp589
g58
(dp590
sg67
g450
sg60
(lp591
g53
(g74
g55
NtRp592
(dp593
g58
(dp594
g78
g79
ssg67
g588
sg60
(lp595
S'gluon_parent'
p596
asbag53
(g74
g55
NtRp597
(dp598
g58
(dp599
g85
g86
ssg67
g588
sg60
(lp600
S':'
asbag53
(g74
g55
NtRp601
(dp602
g58
(dp603
sg67
g588
sg60
(lp604
g53
(g54
g55
NtRp605
(dp606
g58
(dp607
g66
I4
ssg67
g601
sg60
(lp608
S'/Applications/web2py.app/Contents/Resources'
p609
asbasbasbag53
(g69
g55
NtRp610
(dp611
g58
(dp612
sg67
g450
sg60
(lp613
g53
(g74
g55
NtRp614
(dp615
g58
(dp616
g78
g79
ssg67
g610
sg60
(lp617
S'http_accept'
p618
asbag53
(g74
g55
NtRp619
(dp620
g58
(dp621
g85
g86
ssg67
g610
sg60
(lp622
S':'
asbag53
(g74
g55
NtRp623
(dp624
g58
(dp625
sg67
g610
sg60
(lp626
g53
(g54
g55
NtRp627
(dp628
g58
(dp629
g66
I4
ssg67
g623
sg60
(lp630
S'text/html,application/xhtml+xml,application/xml;q=0.9,*/*;q=0.8'
p631
asbasbasbag53
(g69
g55
NtRp632
(dp633
g58
(dp634
sg67
g450
sg60
(lp635
g53
(g74
g55
NtRp636
(dp637
g58
(dp638
g78
g79
ssg67
g632
sg60
(lp639
S'http_accept_charset'
p640
asbag53
(g74
g55
NtRp641
(dp642
g58
(dp643
g85
g86
ssg67
g632
sg60
(lp644
S':'
asbag53
(g74
g55
NtRp645
(dp646
g58
(dp647
sg67
g632
sg60
(lp648
g53
(g54
g55
NtRp649
(dp650
g58
(dp651
g66
I4
ssg67
g645
sg60
(lp652
S'GBK,utf-8;q=0.7,*;q=0.3'
p653
asbasbasbag53
(g69
g55
NtRp654
(dp655
g58
(dp656
sg67
g450
sg60
(lp657
g53
(g74
g55
NtRp658
(dp659
g58
(dp660
g78
g79
ssg67
g654
sg60
(lp661
S'http_accept_encoding'
p662
asbag53
(g74
g55
NtRp663
(dp664
g58
(dp665
g85
g86
ssg67
g654
sg60
(lp666
S':'
asbag53
(g74
g55
NtRp667
(dp668
g58
(dp669
sg67
g654
sg60
(lp670
g53
(g54
g55
NtRp671
(dp672
g58
(dp673
g66
I4
ssg67
g667
sg60
(lp674
S'gzip,deflate,sdch'
p675
asbasbasbag53
(g69
g55
NtRp676
(dp677
g58
(dp678
sg67
g450
sg60
(lp679
g53
(g74
g55
NtRp680
(dp681
g58
(dp682
g78
g79
ssg67
g676
sg60
(lp683
S'http_accept_language'
p684
asbag53
(g74
g55
NtRp685
(dp686
g58
(dp687
g85
g86
ssg67
g676
sg60
(lp688
S':'
asbag53
(g74
g55
NtRp689
(dp690
g58
(dp691
sg67
g676
sg60
(lp692
g53
(g54
g55
NtRp693
(dp694
g58
(dp695
g66
I4
ssg67
g689
sg60
(lp696
S'zh-CN,zh;q=0.8'
p697
asbasbasbag53
(g69
g55
NtRp698
(dp699
g58
(dp700
sg67
g450
sg60
(lp701
g53
(g74
g55
NtRp702
(dp703
g58
(dp704
g78
g79
ssg67
g698
sg60
(lp705
S'http_connection'
p706
asbag53
(g74
g55
NtRp707
(dp708
g58
(dp709
g85
g86
ssg67
g698
sg60
(lp710
S':'
asbag53
(g74
g55
NtRp711
(dp712
g58
(dp713
sg67
g698
sg60
(lp714
g53
(g54
g55
NtRp715
(dp716
g58
(dp717
g66
I4
ssg67
g711
sg60
(lp718
S'keep-alive'
p719
asbasbasbag53
(g69
g55
NtRp720
(dp721
g58
(dp722
sg67
g450
sg60
(lp723
g53
(g74
g55
NtRp724
(dp725
g58
(dp726
g78
g79
ssg67
g720
sg60
(lp727
S'http_cookie'
p728
asbag53
(g74
g55
NtRp729
(dp730
g58
(dp731
g85
g86
ssg67
g720
sg60
(lp732
S':'
asbag53
(g74
g55
NtRp733
(dp734
g58
(dp735
sg67
g720
sg60
(lp736
g53
(g54
g55
NtRp737
(dp738
g58
(dp739
g66
I4
ssg67
g733
sg60
(lp740
S'session_id_mr=127.0.0.1-01c54a64-3e63-47a8-a67b-a7e1fee963a1'
p741
asbasbasbag53
(g69
g55
NtRp742
(dp743
g58
(dp744
sg67
g450
sg60
(lp745
g53
(g74
g55
NtRp746
(dp747
g58
(dp748
g78
g79
ssg67
g742
sg60
(lp749
S'http_host'
p750
asbag53
(g74
g55
NtRp751
(dp752
g58
(dp753
g85
g86
ssg67
g742
sg60
(lp754
S':'
asbag53
(g74
g55
NtRp755
(dp756
g58
(dp757
sg67
g742
sg60
(lp758
g53
(g54
g55
NtRp759
(dp760
g58
(dp761
g66
I4
ssg67
g755
sg60
(lp762
S'127.0.0.1:8000'
p763
asbasbasbag53
(g69
g55
NtRp764
(dp765
g58
(dp766
sg67
g450
sg60
(lp767
g53
(g74
g55
NtRp768
(dp769
g58
(dp770
g78
g79
ssg67
g764
sg60
(lp771
S'http_user_agent'
p772
asbag53
(g74
g55
NtRp773
(dp774
g58
(dp775
g85
g86
ssg67
g764
sg60
(lp776
S':'
asbag53
(g74
g55
NtRp777
(dp778
g58
(dp779
sg67
g764
sg60
(lp780
g53
(g54
g55
NtRp781
(dp782
g58
(dp783
g66
I4
ssg67
g777
sg60
(lp784
S'Mozilla/5.0 (Macintosh; Intel Mac OS X 10_8_3) AppleWebKit/537.31 (KHTML, like Gecko) Chrome/26.0.1410.65 Safari/537.31'
p785
asbasbasbag53
(g69
g55
NtRp786
(dp787
g58
(dp788
sg67
g450
sg60
(lp789
g53
(g74
g55
NtRp790
(dp791
g58
(dp792
g78
g79
ssg67
g786
sg60
(lp793
S'is_jython'
p794
asbag53
(g74
g55
NtRp795
(dp796
g58
(dp797
g85
g86
ssg67
g786
sg60
(lp798
S':'
asbag53
(g74
g55
NtRp799
(dp800
g58
(dp801
sg67
g786
sg60
(lp802
g53
(g54
g55
NtRp803
(dp804
g58
(dp805
g66
I4
ssg67
g799
sg60
(lp806
g96
asbasbasbag53
(g69
g55
NtRp807
(dp808
g58
(dp809
sg67
g450
sg60
(lp810
g53
(g74
g55
NtRp811
(dp812
g58
(dp813
g78
g79
ssg67
g807
sg60
(lp814
S'is_pypy'
p815
asbag53
(g74
g55
NtRp816
(dp817
g58
(dp818
g85
g86
ssg67
g807
sg60
(lp819
S':'
asbag53
(g74
g55
NtRp820
(dp821
g58
(dp822
sg67
g807
sg60
(lp823
g53
(g54
g55
NtRp824
(dp825
g58
(dp826
g66
I4
ssg67
g820
sg60
(lp827
g96
asbasbasbag53
(g69
g55
NtRp828
(dp829
g58
(dp830
sg67
g450
sg60
(lp831
g53
(g74
g55
NtRp832
(dp833
g58
(dp834
g78
g79
ssg67
g828
sg60
(lp835
S'local_hosts'
p836
asbag53
(g74
g55
NtRp837
(dp838
g58
(dp839
g85
g86
ssg67
g828
sg60
(lp840
S':'
asbag53
(g74
g55
NtRp841
(dp842
g58
(dp843
sg67
g828
sg60
(lp844
g53
(g54
g55
NtRp845
(dp846
g58
(dp847
g66
I4
ssg67
g841
sg60
(lp848
g53
(g62
g55
NtRp849
(dp850
g58
(dp851
g66
I3
ssg67
Nsg60
(lp852
g53
(g69
g55
NtRp853
(dp854
g58
(dp855
sg67
g849
sg60
(lp856
g53
(g74
g55
NtRp857
(dp858
g58
(dp859
sg67
g853
sg60
(lp860
g53
(g54
g55
NtRp861
(dp862
g58
(dp863
g66
I3
ssg67
g857
sg60
(lp864
S'::1'
p865
asbasbasbag53
(g69
g55
NtRp866
(dp867
g58
(dp868
sg67
g849
sg60
(lp869
g53
(g74
g55
NtRp870
(dp871
g58
(dp872
sg67
g866
sg60
(lp873
g53
(g54
g55
NtRp874
(dp875
g58
(dp876
g66
I3
ssg67
g870
sg60
(lp877
S'140.142.222.54'
p878
asbasbasbag53
(g69
g55
NtRp879
(dp880
g58
(dp881
sg67
g849
sg60
(lp882
g53
(g74
g55
NtRp883
(dp884
g58
(dp885
sg67
g879
sg60
(lp886
g53
(g54
g55
NtRp887
(dp888
g58
(dp889
g66
I3
ssg67
g883
sg60
(lp890
S'::ffff:127.0.0.1'
p891
asbasbasbag53
(g69
g55
NtRp892
(dp893
g58
(dp894
sg67
g849
sg60
(lp895
g53
(g74
g55
NtRp896
(dp897
g58
(dp898
sg67
g892
sg60
(lp899
g53
(g54
g55
NtRp900
(dp901
g58
(dp902
g66
I3
ssg67
g896
sg60
(lp903
S'127.0.0.1'
p904
asbasbasbag53
(g69
g55
NtRp905
(dp906
g58
(dp907
sg67
g849
sg60
(lp908
g53
(g74
g55
NtRp909
(dp910
g58
(dp911
sg67
g905
sg60
(lp912
g53
(g54
g55
NtRp913
(dp914
g58
(dp915
g66
I3
ssg67
g909
sg60
(lp916
S'd-140-142-222-54.dhcp4.washington.edu'
p917
asbasbasbasbasbasbasbag53
(g69
g55
NtRp918
(dp919
g58
(dp920
sg67
g450
sg60
(lp921
g53
(g74
g55
NtRp922
(dp923
g58
(dp924
g78
g79
ssg67
g918
sg60
(lp925
S'path_info'
p926
asbag53
(g74
g55
NtRp927
(dp928
g58
(dp929
g85
g86
ssg67
g918
sg60
(lp930
S':'
asbag53
(g74
g55
NtRp931
(dp932
g58
(dp933
sg67
g918
sg60
(lp934
g53
(g54
g55
NtRp935
(dp936
g58
(dp937
g66
I4
ssg67
g931
sg60
(lp938
S'/MR/default/mobile_user_register'
p939
asbasbasbag53
(g69
g55
NtRp940
(dp941
g58
(dp942
sg67
g450
sg60
(lp943
g53
(g74
g55
NtRp944
(dp945
g58
(dp946
g78
g79
ssg67
g940
sg60
(lp947
S'query_string'
p948
asbag53
(g74
g55
NtRp949
(dp950
g58
(dp951
g85
g86
ssg67
g940
sg60
(lp952
S':'
asbag53
(g74
g55
NtRp953
(dp954
g58
(dp955
sg67
g940
sg60
(lp956
g53
(g54
g55
NtRp957
(dp958
g58
(dp959
g66
I4
ssg67
g953
sg60
(lp960
S'email=adsasdfasdff&password=adsf&firstname=asdf&lastname=asdf&country='
p961
asbasbasbag53
(g69
g55
NtRp962
(dp963
g58
(dp964
sg67
g450
sg60
(lp965
g53
(g74
g55
NtRp966
(dp967
g58
(dp968
g78
g79
ssg67
g962
sg60
(lp969
S'remote_addr'
p970
asbag53
(g74
g55
NtRp971
(dp972
g58
(dp973
g85
g86
ssg67
g962
sg60
(lp974
S':'
asbag53
(g74
g55
NtRp975
(dp976
g58
(dp977
sg67
g962
sg60
(lp978
g53
(g54
g55
NtRp979
(dp980
g58
(dp981
g66
I4
ssg67
g975
sg60
(lp982
g208
asbasbasbag53
(g69
g55
NtRp983
(dp984
g58
(dp985
sg67
g450
sg60
(lp986
g53
(g74
g55
NtRp987
(dp988
g58
(dp989
g78
g79
ssg67
g983
sg60
(lp990
S'remote_port'
p991
asbag53
(g74
g55
NtRp992
(dp993
g58
(dp994
g85
g86
ssg67
g983
sg60
(lp995
S':'
asbag53
(g74
g55
NtRp996
(dp997
g58
(dp998
sg67
g983
sg60
(lp999
g53
(g54
g55
NtRp1000
(dp1001
g58
(dp1002
g66
I4
ssg67
g996
sg60
(lp1003
S'51184'
p1004
asbasbasbag53
(g69
g55
NtRp1005
(dp1006
g58
(dp1007
sg67
g450
sg60
(lp1008
g53
(g74
g55
NtRp1009
(dp1010
g58
(dp1011
g78
g79
ssg67
g1005
sg60
(lp1012
S'request_method'
p1013
asbag53
(g74
g55
NtRp1014
(dp1015
g58
(dp1016
g85
g86
ssg67
g1005
sg60
(lp1017
S':'
asbag53
(g74
g55
NtRp1018
(dp1019
g58
(dp1020
sg67
g1005
sg60
(lp1021
g53
(g54
g55
NtRp1022
(dp1023
g58
(dp1024
g66
I4
ssg67
g1018
sg60
(lp1025
S'GET'
p1026
asbasbasbag53
(g69
g55
NtRp1027
(dp1028
g58
(dp1029
sg67
g450
sg60
(lp1030
g53
(g74
g55
NtRp1031
(dp1032
g58
(dp1033
g78
g79
ssg67
g1027
sg60
(lp1034
S'request_uri'
p1035
asbag53
(g74
g55
NtRp1036
(dp1037
g58
(dp1038
g85
g86
ssg67
g1027
sg60
(lp1039
S':'
asbag53
(g74
g55
NtRp1040
(dp1041
g58
(dp1042
sg67
g1027
sg60
(lp1043
g53
(g54
g55
NtRp1044
(dp1045
g58
(dp1046
g66
I4
ssg67
g1040
sg60
(lp1047
S'/MR/default/mobile_user_register?email=adsasdfasdff&password=adsf&firstname=asdf&lastname=asdf&country='
p1048
asbasbasbag53
(g69
g55
NtRp1049
(dp1050
g58
(dp1051
sg67
g450
sg60
(lp1052
g53
(g74
g55
NtRp1053
(dp1054
g58
(dp1055
g78
g79
ssg67
g1049
sg60
(lp1056
S'script_name'
p1057
asbag53
(g74
g55
NtRp1058
(dp1059
g58
(dp1060
g85
g86
ssg67
g1049
sg60
(lp1061
S':'
asbag53
(g74
g55
NtRp1062
(dp1063
g58
(dp1064
sg67
g1049
sg60
(lp1065
g53
(g54
g55
NtRp1066
(dp1067
g58
(dp1068
g66
I4
ssg67
g1062
sg60
(lp1069
S''
asbasbasbag53
(g69
g55
NtRp1070
(dp1071
g58
(dp1072
sg67
g450
sg60
(lp1073
g53
(g74
g55
NtRp1074
(dp1075
g58
(dp1076
g78
g79
ssg67
g1070
sg60
(lp1077
S'server_name'
p1078
asbag53
(g74
g55
NtRp1079
(dp1080
g58
(dp1081
g85
g86
ssg67
g1070
sg60
(lp1082
S':'
asbag53
(g74
g55
NtRp1083
(dp1084
g58
(dp1085
sg67
g1070
sg60
(lp1086
g53
(g54
g55
NtRp1087
(dp1088
g58
(dp1089
g66
I4
ssg67
g1083
sg60
(lp1090
S'd-140-142-222-54.dhcp4.washington.edu'
p1091
asbasbasbag53
(g69
g55
NtRp1092
(dp1093
g58
(dp1094
sg67
g450
sg60
(lp1095
g53
(g74
g55
NtRp1096
(dp1097
g58
(dp1098
g78
g79
ssg67
g1092
sg60
(lp1099
S'server_port'
p1100
asbag53
(g74
g55
NtRp1101
(dp1102
g58
(dp1103
g85
g86
ssg67
g1092
sg60
(lp1104
S':'
asbag53
(g74
g55
NtRp1105
(dp1106
g58
(dp1107
sg67
g1092
sg60
(lp1108
g53
(g54
g55
NtRp1109
(dp1110
g58
(dp1111
g66
I4
ssg67
g1105
sg60
(lp1112
S'8000'
p1113
asbasbasbag53
(g69
g55
NtRp1114
(dp1115
g58
(dp1116
sg67
g450
sg60
(lp1117
g53
(g74
g55
NtRp1118
(dp1119
g58
(dp1120
g78
g79
ssg67
g1114
sg60
(lp1121
S'server_protocol'
p1122
asbag53
(g74
g55
NtRp1123
(dp1124
g58
(dp1125
g85
g86
ssg67
g1114
sg60
(lp1126
S':'
asbag53
(g74
g55
NtRp1127
(dp1128
g58
(dp1129
sg67
g1114
sg60
(lp1130
g53
(g54
g55
NtRp1131
(dp1132
g58
(dp1133
g66
I4
ssg67
g1127
sg60
(lp1134
S'HTTP/1.1'
p1135
asbasbasbag53
(g69
g55
NtRp1136
(dp1137
g58
(dp1138
sg67
g450
sg60
(lp1139
g53
(g74
g55
NtRp1140
(dp1141
g58
(dp1142
g78
g79
ssg67
g1136
sg60
(lp1143
S'server_software'
p1144
asbag53
(g74
g55
NtRp1145
(dp1146
g58
(dp1147
g85
g86
ssg67
g1136
sg60
(lp1148
S':'
asbag53
(g74
g55
NtRp1149
(dp1150
g58
(dp1151
sg67
g1136
sg60
(lp1152
g53
(g54
g55
NtRp1153
(dp1154
g58
(dp1155
g66
I4
ssg67
g1149
sg60
(lp1156
S'Rocket 1.2.6'
p1157
asbasbasbag53
(g69
g55
NtRp1158
(dp1159
g58
(dp1160
sg67
g450
sg60
(lp1161
g53
(g74
g55
NtRp1162
(dp1163
g58
(dp1164
g78
g79
ssg67
g1158
sg60
(lp1165
S'web2py_path'
p1166
asbag53
(g74
g55
NtRp1167
(dp1168
g58
(dp1169
g85
g86
ssg67
g1158
sg60
(lp1170
S':'
asbag53
(g74
g55
NtRp1171
(dp1172
g58
(dp1173
sg67
g1158
sg60
(lp1174
g53
(g54
g55
NtRp1175
(dp1176
g58
(dp1177
g66
I4
ssg67
g1171
sg60
(lp1178
g497
asbasbasbag53
(g69
g55
NtRp1179
(dp1180
g58
(dp1181
sg67
g450
sg60
(lp1182
g53
(g74
g55
NtRp1183
(dp1184
g58
(dp1185
g78
g79
ssg67
g1179
sg60
(lp1186
S'web2py_version'
p1187
asbag53
(g74
g55
NtRp1188
(dp1189
g58
(dp1190
g85
g86
ssg67
g1179
sg60
(lp1191
S':'
asbag53
(g74
g55
NtRp1192
(dp1193
g58
(dp1194
sg67
g1179
sg60
(lp1195
g53
(g54
g55
NtRp1196
(dp1197
g58
(dp1198
g66
I4
ssg67
g1192
sg60
(lp1199
g53
(g62
g55
NtRp1200
(dp1201
g58
(dp1202
g66
I3
ssg67
Nsg60
(lp1203
g53
(g69
g55
NtRp1204
(dp1205
g58
(dp1206
sg67
g1200
sg60
(lp1207
g53
(g74
g55
NtRp1208
(dp1209
g58
(dp1210
sg67
g1204
sg60
(lp1211
g53
(g54
g55
NtRp1212
(dp1213
g58
(dp1214
g66
I3
ssg67
g1208
sg60
(lp1215
S'2'
asbasbasbag53
(g69
g55
NtRp1216
(dp1217
g58
(dp1218
sg67
g1200
sg60
(lp1219
g53
(g74
g55
NtRp1220
(dp1221
g58
(dp1222
sg67
g1216
sg60
(lp1223
g53
(g54
g55
NtRp1224
(dp1225
g58
(dp1226
g66
I3
ssg67
g1220
sg60
(lp1227
S'4'
asbasbasbag53
(g69
g55
NtRp1228
(dp1229
g58
(dp1230
sg67
g1200
sg60
(lp1231
g53
(g74
g55
NtRp1232
(dp1233
g58
(dp1234
sg67
g1228
sg60
(lp1235
g53
(g54
g55
NtRp1236
(dp1237
g58
(dp1238
g66
I3
ssg67
g1232
sg60
(lp1239
S'5'
asbasbasbag53
(g69
g55
NtRp1240
(dp1241
g58
(dp1242
sg67
g1200
sg60
(lp1243
g53
(g74
g55
NtRp1244
(dp1245
g58
(dp1246
sg67
g1240
sg60
(lp1247
g53
(g54
g55
NtRp1248
(dp1249
g58
(dp1250
g66
I3
ssg67
g1244
sg60
(lp1251
S'stable'
p1252
asbasbasbag53
(g69
g55
NtRp1253
(dp1254
g58
(dp1255
sg67
g1200
sg60
(lp1256
g53
(g74
g55
NtRp1257
(dp1258
g58
(dp1259
sg67
g1253
sg60
(lp1260
g53
(g54
g55
NtRp1261
(dp1262
g58
(dp1263
g66
I3
ssg67
g1257
sg60
(lp1264
S'datetime.datetime(2013, 3, 18, 22, 46, 22)'
p1265
asbasbasbasbasbasbasbag53
(g69
g55
NtRp1266
(dp1267
g58
(dp1268
sg67
g450
sg60
(lp1269
g53
(g74
g55
NtRp1270
(dp1271
g58
(dp1272
g78
g79
ssg67
g1266
sg60
(lp1273
S'wsgi_errors'
p1274
asbag53
(g74
g55
NtRp1275
(dp1276
g58
(dp1277
g85
g86
ssg67
g1266
sg60
(lp1278
S':'
asbag53
(g74
g55
NtRp1279
(dp1280
g58
(dp1281
sg67
g1266
sg60
(lp1282
g53
(g54
g55
NtRp1283
(dp1284
g58
(dp1285
g66
I4
ssg67
g1279
sg60
(lp1286
S"<open file '<stderr>', mode 'w' at 0x660b0>"
p1287
asbasbasbag53
(g69
g55
NtRp1288
(dp1289
g58
(dp1290
sg67
g450
sg60
(lp1291
g53
(g74
g55
NtRp1292
(dp1293
g58
(dp1294
g78
g79
ssg67
g1288
sg60
(lp1295
S'wsgi_file_wrapper'
p1296
asbag53
(g74
g55
NtRp1297
(dp1298
g58
(dp1299
g85
g86
ssg67
g1288
sg60
(lp1300
S':'
asbag53
(g74
g55
NtRp1301
(dp1302
g58
(dp1303
sg67
g1288
sg60
(lp1304
g53
(g54
g55
NtRp1305
(dp1306
g58
(dp1307
g66
I4
ssg67
g1301
sg60
(lp1308
S'<class wsgiref.util.FileWrapper at 0x456f060>'
p1309
asbasbasbag53
(g69
g55
NtRp1310
(dp1311
g58
(dp1312
sg67
g450
sg60
(lp1313
g53
(g74
g55
NtRp1314
(dp1315
g58
(dp1316
g78
g79
ssg67
g1310
sg60
(lp1317
S'wsgi_input'
p1318
asbag53
(g74
g55
NtRp1319
(dp1320
g58
(dp1321
g85
g86
ssg67
g1310
sg60
(lp1322
S':'
asbag53
(g74
g55
NtRp1323
(dp1324
g58
(dp1325
sg67
g1310
sg60
(lp1326
g53
(g54
g55
NtRp1327
(dp1328
g58
(dp1329
g66
I4
ssg67
g1323
sg60
(lp1330
S'<socket._fileobject object at 0x78283b0>'
p1331
asbasbasbag53
(g69
g55
NtRp1332
(dp1333
g58
(dp1334
sg67
g450
sg60
(lp1335
g53
(g74
g55
NtRp1336
(dp1337
g58
(dp1338
g78
g79
ssg67
g1332
sg60
(lp1339
S'wsgi_multiprocess'
p1340
asbag53
(g74
g55
NtRp1341
(dp1342
g58
(dp1343
g85
g86
ssg67
g1332
sg60
(lp1344
S':'
asbag53
(g74
g55
NtRp1345
(dp1346
g58
(dp1347
sg67
g1332
sg60
(lp1348
g53
(g54
g55
NtRp1349
(dp1350
g58
(dp1351
g66
I4
ssg67
g1345
sg60
(lp1352
g96
asbasbasbag53
(g69
g55
NtRp1353
(dp1354
g58
(dp1355
sg67
g450
sg60
(lp1356
g53
(g74
g55
NtRp1357
(dp1358
g58
(dp1359
g78
g79
ssg67
g1353
sg60
(lp1360
S'wsgi_multithread'
p1361
asbag53
(g74
g55
NtRp1362
(dp1363
g58
(dp1364
g85
g86
ssg67
g1353
sg60
(lp1365
S':'
asbag53
(g74
g55
NtRp1366
(dp1367
g58
(dp1368
sg67
g1353
sg60
(lp1369
g53
(g54
g55
NtRp1370
(dp1371
g58
(dp1372
g66
I4
ssg67
g1366
sg60
(lp1373
S'True'
p1374
asbasbasbag53
(g69
g55
NtRp1375
(dp1376
g58
(dp1377
sg67
g450
sg60
(lp1378
g53
(g74
g55
NtRp1379
(dp1380
g58
(dp1381
g78
g79
ssg67
g1375
sg60
(lp1382
S'wsgi_run_once'
p1383
asbag53
(g74
g55
NtRp1384
(dp1385
g58
(dp1386
g85
g86
ssg67
g1375
sg60
(lp1387
S':'
asbag53
(g74
g55
NtRp1388
(dp1389
g58
(dp1390
sg67
g1375
sg60
(lp1391
g53
(g54
g55
NtRp1392
(dp1393
g58
(dp1394
g66
I4
ssg67
g1388
sg60
(lp1395
g96
asbasbasbag53
(g69
g55
NtRp1396
(dp1397
g58
(dp1398
sg67
g450
sg60
(lp1399
g53
(g74
g55
NtRp1400
(dp1401
g58
(dp1402
g78
g79
ssg67
g1396
sg60
(lp1403
S'wsgi_url_scheme'
p1404
asbag53
(g74
g55
NtRp1405
(dp1406
g58
(dp1407
g85
g86
ssg67
g1396
sg60
(lp1408
S':'
asbag53
(g74
g55
NtRp1409
(dp1410
g58
(dp1411
sg67
g1396
sg60
(lp1412
g53
(g54
g55
NtRp1413
(dp1414
g58
(dp1415
g66
I4
ssg67
g1409
sg60
(lp1416
S'http'
p1417
asbasbasbag53
(g69
g55
NtRp1418
(dp1419
g58
(dp1420
sg67
g450
sg60
(lp1421
g53
(g74
g55
NtRp1422
(dp1423
g58
(dp1424
g78
g79
ssg67
g1418
sg60
(lp1425
S'wsgi_version'
p1426
asbag53
(g74
g55
NtRp1427
(dp1428
g58
(dp1429
g85
g86
ssg67
g1418
sg60
(lp1430
S':'
asbag53
(g74
g55
NtRp1431
(dp1432
g58
(dp1433
sg67
g1418
sg60
(lp1434
g53
(g54
g55
NtRp1435
(dp1436
g58
(dp1437
g66
I4
ssg67
g1431
sg60
(lp1438
g53
(g62
g55
NtRp1439
(dp1440
g58
(dp1441
g66
I3
ssg67
Nsg60
(lp1442
g53
(g69
g55
NtRp1443
(dp1444
g58
(dp1445
sg67
g1439
sg60
(lp1446
g53
(g74
g55
NtRp1447
(dp1448
g58
(dp1449
sg67
g1443
sg60
(lp1450
g53
(g54
g55
NtRp1451
(dp1452
g58
(dp1453
g66
I3
ssg67
g1447
sg60
(lp1454
S'1'
asbasbasbag53
(g69
g55
NtRp1455
(dp1456
g58
(dp1457
sg67
g1439
sg60
(lp1458
g53
(g74
g55
NtRp1459
(dp1460
g58
(dp1461
sg67
g1455
sg60
(lp1462
g53
(g54
g55
NtRp1463
(dp1464
g58
(dp1465
g66
I3
ssg67
g1459
sg60
(lp1466
S'0'
asbasbasbasbasbasbasbasbasbasbasbag53
(g69
g55
NtRp1467
(dp1468
g58
(dp1469
sg67
g63
sg60
(lp1470
g53
(g74
g55
NtRp1471
(dp1472
g58
(dp1473
g78
g79
ssg67
g1467
sg60
(lp1474
S'extension'
p1475
asbag53
(g74
g55
NtRp1476
(dp1477
g58
(dp1478
g85
g86
ssg67
g1467
sg60
(lp1479
S':'
asbag53
(g74
g55
NtRp1480
(dp1481
g58
(dp1482
sg67
g1467
sg60
(lp1483
g53
(g54
g55
NtRp1484
(dp1485
g58
(dp1486
g66
I5
ssg67
g1480
sg60
(lp1487
S'html'
p1488
asbasbasbag53
(g69
g55
NtRp1489
(dp1490
g58
(dp1491
sg67
g63
sg60
(lp1492
g53
(g74
g55
NtRp1493
(dp1494
g58
(dp1495
g78
g79
ssg67
g1489
sg60
(lp1496
S'folder'
p1497
asbag53
(g74
g55
NtRp1498
(dp1499
g58
(dp1500
g85
g86
ssg67
g1489
sg60
(lp1501
S':'
asbag53
(g74
g55
NtRp1502
(dp1503
g58
(dp1504
sg67
g1489
sg60
(lp1505
g53
(g54
g55
NtRp1506
(dp1507
g58
(dp1508
g66
I5
ssg67
g1502
sg60
(lp1509
S'/Applications/web2py.app/Contents/Resources/applications/MR/'
p1510
asbasbasbag53
(g69
g55
NtRp1511
(dp1512
g58
(dp1513
sg67
g63
sg60
(lp1514
g53
(g74
g55
NtRp1515
(dp1516
g58
(dp1517
g78
g79
ssg67
g1511
sg60
(lp1518
S'function'
p1519
asbag53
(g74
g55
NtRp1520
(dp1521
g58
(dp1522
g85
g86
ssg67
g1511
sg60
(lp1523
S':'
asbag53
(g74
g55
NtRp1524
(dp1525
g58
(dp1526
sg67
g1511
sg60
(lp1527
g53
(g54
g55
NtRp1528
(dp1529
g58
(dp1530
g66
I5
ssg67
g1524
sg60
(lp1531
S'mobile_user_register'
p1532
asbasbasbag53
(g69
g55
NtRp1533
(dp1534
g58
(dp1535
sg67
g63
sg60
(lp1536
g53
(g74
g55
NtRp1537
(dp1538
g58
(dp1539
g78
g79
ssg67
g1533
sg60
(lp1540
S'get_vars'
p1541
asbag53
(g74
g55
NtRp1542
(dp1543
g58
(dp1544
g85
g86
ssg67
g1533
sg60
(lp1545
S':'
asbag53
(g74
g55
NtRp1546
(dp1547
g58
(dp1548
sg67
g1533
sg60
(lp1549
g53
(g54
g55
NtRp1550
(dp1551
g58
(dp1552
g66
I5
ssg67
g1546
sg60
(lp1553
g53
(g62
g55
NtRp1554
(dp1555
g58
(dp1556
g66
I4
ssg67
Nsg60
(lp1557
g53
(g69
g55
NtRp1558
(dp1559
g58
(dp1560
sg67
g1554
sg60
(lp1561
g53
(g74
g55
NtRp1562
(dp1563
g58
(dp1564
g78
g79
ssg67
g1558
sg60
(lp1565
S'country'
p1566
asbag53
(g74
g55
NtRp1567
(dp1568
g58
(dp1569
g85
g86
ssg67
g1558
sg60
(lp1570
S':'
asbag53
(g74
g55
NtRp1571
(dp1572
g58
(dp1573
sg67
g1558
sg60
(lp1574
g53
(g54
g55
NtRp1575
(dp1576
g58
(dp1577
g66
I4
ssg67
g1571
sg60
(lp1578
S''
asbasbasbag53
(g69
g55
NtRp1579
(dp1580
g58
(dp1581
sg67
g1554
sg60
(lp1582
g53
(g74
g55
NtRp1583
(dp1584
g58
(dp1585
g78
g79
ssg67
g1579
sg60
(lp1586
S'email'
p1587
asbag53
(g74
g55
NtRp1588
(dp1589
g58
(dp1590
g85
g86
ssg67
g1579
sg60
(lp1591
S':'
asbag53
(g74
g55
NtRp1592
(dp1593
g58
(dp1594
sg67
g1579
sg60
(lp1595
g53
(g54
g55
NtRp1596
(dp1597
g58
(dp1598
g66
I4
ssg67
g1592
sg60
(lp1599
S'adsasdfasdff'
p1600
asbasbasbag53
(g69
g55
NtRp1601
(dp1602
g58
(dp1603
sg67
g1554
sg60
(lp1604
g53
(g74
g55
NtRp1605
(dp1606
g58
(dp1607
g78
g79
ssg67
g1601
sg60
(lp1608
S'firstname'
p1609
asbag53
(g74
g55
NtRp1610
(dp1611
g58
(dp1612
g85
g86
ssg67
g1601
sg60
(lp1613
S':'
asbag53
(g74
g55
NtRp1614
(dp1615
g58
(dp1616
sg67
g1601
sg60
(lp1617
g53
(g54
g55
NtRp1618
(dp1619
g58
(dp1620
g66
I4
ssg67
g1614
sg60
(lp1621
S'asdf'
p1622
asbasbasbag53
(g69
g55
NtRp1623
(dp1624
g58
(dp1625
sg67
g1554
sg60
(lp1626
g53
(g74
g55
NtRp1627
(dp1628
g58
(dp1629
g78
g79
ssg67
g1623
sg60
(lp1630
S'lastname'
p1631
asbag53
(g74
g55
NtRp1632
(dp1633
g58
(dp1634
g85
g86
ssg67
g1623
sg60
(lp1635
S':'
asbag53
(g74
g55
NtRp1636
(dp1637
g58
(dp1638
sg67
g1623
sg60
(lp1639
g53
(g54
g55
NtRp1640
(dp1641
g58
(dp1642
g66
I4
ssg67
g1636
sg60
(lp1643
S'asdf'
p1644
asbasbasbag53
(g69
g55
NtRp1645
(dp1646
g58
(dp1647
sg67
g1554
sg60
(lp1648
g53
(g74
g55
NtRp1649
(dp1650
g58
(dp1651
g78
g79
ssg67
g1645
sg60
(lp1652
S'password'
p1653
asbag53
(g74
g55
NtRp1654
(dp1655
g58
(dp1656
g85
g86
ssg67
g1645
sg60
(lp1657
S':'
asbag53
(g74
g55
NtRp1658
(dp1659
g58
(dp1660
sg67
g1645
sg60
(lp1661
g53
(g54
g55
NtRp1662
(dp1663
g58
(dp1664
g66
I4
ssg67
g1658
sg60
(lp1665
S'adsf'
p1666
asbasbasbasbasbasbasbag53
(g69
g55
NtRp1667
(dp1668
g58
(dp1669
sg67
g63
sg60
(lp1670
g53
(g74
g55
NtRp1671
(dp1672
g58
(dp1673
g78
g79
ssg67
g1667
sg60
(lp1674
S'global_settings'
p1675
asbag53
(g74
g55
NtRp1676
(dp1677
g58
(dp1678
g85
g86
ssg67
g1667
sg60
(lp1679
S':'
asbag53
(g74
g55
NtRp1680
(dp1681
g58
(dp1682
sg67
g1667
sg60
(lp1683
g53
(g54
g55
NtRp1684
(dp1685
g58
(dp1686
g66
I5
ssg67
g1680
sg60
(lp1687
g53
(g62
g55
NtRp1688
(dp1689
g58
(dp1690
g66
I4
ssg67
Nsg60
(lp1691
g53
(g69
g55
NtRp1692
(dp1693
g58
(dp1694
sg67
g1688
sg60
(lp1695
g53
(g74
g55
NtRp1696
(dp1697
g58
(dp1698
g78
g79
ssg67
g1692
sg60
(lp1699
g462
asbag53
(g74
g55
NtRp1700
(dp1701
g58
(dp1702
g85
g86
ssg67
g1692
sg60
(lp1703
S':'
asbag53
(g74
g55
NtRp1704
(dp1705
g58
(dp1706
sg67
g1692
sg60
(lp1707
g53
(g54
g55
NtRp1708
(dp1709
g58
(dp1710
g66
I4
ssg67
g1704
sg60
(lp1711
S"set(['/Applications/web2py.app/Contents/Resources/applications/MR/'])"
p1712
asbasbasbag53
(g69
g55
NtRp1713
(dp1714
g58
(dp1715
sg67
g1688
sg60
(lp1716
g53
(g74
g55
NtRp1717
(dp1718
g58
(dp1719
g78
g79
ssg67
g1713
sg60
(lp1720
g484
asbag53
(g74
g55
NtRp1721
(dp1722
g58
(dp1723
g85
g86
ssg67
g1713
sg60
(lp1724
S':'
asbag53
(g74
g55
NtRp1725
(dp1726
g58
(dp1727
sg67
g1713
sg60
(lp1728
g53
(g54
g55
NtRp1729
(dp1730
g58
(dp1731
g66
I4
ssg67
g1725
sg60
(lp1732
g497
asbasbasbag53
(g69
g55
NtRp1733
(dp1734
g58
(dp1735
sg67
g1688
sg60
(lp1736
g53
(g74
g55
NtRp1737
(dp1738
g58
(dp1739
g78
g79
ssg67
g1733
sg60
(lp1740
g506
asbag53
(g74
g55
NtRp1741
(dp1742
g58
(dp1743
g85
g86
ssg67
g1733
sg60
(lp1744
S':'
asbag53
(g74
g55
NtRp1745
(dp1746
g58
(dp1747
sg67
g1733
sg60
(lp1748
g53
(g54
g55
NtRp1749
(dp1750
g58
(dp1751
g66
I4
ssg67
g1745
sg60
(lp1752
g53
(g62
g55
NtRp1753
(dp1754
g58
(dp1755
g66
I3
ssg67
Nsg60
(lp1756
sbasbasbasbag53
(g69
g55
NtRp1757
(dp1758
g58
(dp1759
sg67
g1688
sg60
(lp1760
g53
(g74
g55
NtRp1761
(dp1762
g58
(dp1763
g78
g79
ssg67
g1757
sg60
(lp1764
g531
asbag53
(g74
g55
NtRp1765
(dp1766
g58
(dp1767
g85
g86
ssg67
g1757
sg60
(lp1768
S':'
asbag53
(g74
g55
NtRp1769
(dp1770
g58
(dp1771
sg67
g1757
sg60
(lp1772
g53
(g54
g55
NtRp1773
(dp1774
g58
(dp1775
g66
I4
ssg67
g1769
sg60
(lp1776
S"<Values at 0x4596f58: {'verbose': False, 'ip': '127.0.0.1', 'with_scheduler': False, 'ips': ['140.142.222.54'], 'shutdown_timeout': 5, 'taskbar': False, 'port': 8000, 'maxthreads': None, 'softcron': False, 'server_name': 'd-140-142-222-54.dhcp4.washington.edu', 'bpython': False, 'nogui': False, 'pid_filename': 'httpserver.pid', 'extcron': False, 'runcron': False, 'run_system_tests': False, 'test': None, 'folder': '/Applications/web2py.app/Contents/Resources', 'config': '', 'import_models': False, 'winservice': '', 'shell': None, 'run': '', 'log_filename': 'httpserver.log', 'debuglevel': 30, 'args': [''], 'socket_timeout': 5, 'ssl_ca_certificate': None, 'scheduler': None, 'profiler_filename': None, 'ssl_private_key': '', 'scheduler_groups': None, 'password': '<ask>', 'request_queue_size': 5, 'ssl_certificate': '', 'cronjob': False, 'numthreads': None, 'quiet': False, 'interfaces': None, 'minthreads': None, 'timeout': 10, 'plain': False, 'nobanner': False}>"
p1777
asbasbasbag53
(g69
g55
NtRp1778
(dp1779
g58
(dp1780
sg67
g1688
sg60
(lp1781
g53
(g74
g55
NtRp1782
(dp1783
g58
(dp1784
g78
g79
ssg67
g1778
sg60
(lp1785
g553
asbag53
(g74
g55
NtRp1786
(dp1787
g58
(dp1788
g85
g86
ssg67
g1778
sg60
(lp1789
S':'
asbag53
(g74
g55
NtRp1790
(dp1791
g58
(dp1792
sg67
g1778
sg60
(lp1793
g53
(g54
g55
NtRp1794
(dp1795
g58
(dp1796
g66
I4
ssg67
g1790
sg60
(lp1797
S'set([])'
p1798
asbasbasbag53
(g69
g55
NtRp1799
(dp1800
g58
(dp1801
sg67
g1688
sg60
(lp1802
g53
(g74
g55
NtRp1803
(dp1804
g58
(dp1805
g78
g79
ssg67
g1799
sg60
(lp1806
g575
asbag53
(g74
g55
NtRp1807
(dp1808
g58
(dp1809
g85
g86
ssg67
g1799
sg60
(lp1810
S':'
asbag53
(g74
g55
NtRp1811
(dp1812
g58
(dp1813
sg67
g1799
sg60
(lp1814
g53
(g54
g55
NtRp1815
(dp1816
g58
(dp1817
g66
I4
ssg67
g1811
sg60
(lp1818
g96
asbasbasbag53
(g69
g55
NtRp1819
(dp1820
g58
(dp1821
sg67
g1688
sg60
(lp1822
g53
(g74
g55
NtRp1823
(dp1824
g58
(dp1825
g78
g79
ssg67
g1819
sg60
(lp1826
g596
asbag53
(g74
g55
NtRp1827
(dp1828
g58
(dp1829
g85
g86
ssg67
g1819
sg60
(lp1830
S':'
asbag53
(g74
g55
NtRp1831
(dp1832
g58
(dp1833
sg67
g1819
sg60
(lp1834
g53
(g54
g55
NtRp1835
(dp1836
g58
(dp1837
g66
I4
ssg67
g1831
sg60
(lp1838
g609
asbasbasbag53
(g69
g55
NtRp1839
(dp1840
g58
(dp1841
sg67
g1688
sg60
(lp1842
g53
(g74
g55
NtRp1843
(dp1844
g58
(dp1845
g78
g79
ssg67
g1839
sg60
(lp1846
g794
asbag53
(g74
g55
NtRp1847
(dp1848
g58
(dp1849
g85
g86
ssg67
g1839
sg60
(lp1850
S':'
asbag53
(g74
g55
NtRp1851
(dp1852
g58
(dp1853
sg67
g1839
sg60
(lp1854
g53
(g54
g55
NtRp1855
(dp1856
g58
(dp1857
g66
I4
ssg67
g1851
sg60
(lp1858
g96
asbasbasbag53
(g69
g55
NtRp1859
(dp1860
g58
(dp1861
sg67
g1688
sg60
(lp1862
g53
(g74
g55
NtRp1863
(dp1864
g58
(dp1865
g78
g79
ssg67
g1859
sg60
(lp1866
g815
asbag53
(g74
g55
NtRp1867
(dp1868
g58
(dp1869
g85
g86
ssg67
g1859
sg60
(lp1870
S':'
asbag53
(g74
g55
NtRp1871
(dp1872
g58
(dp1873
sg67
g1859
sg60
(lp1874
g53
(g54
g55
NtRp1875
(dp1876
g58
(dp1877
g66
I4
ssg67
g1871
sg60
(lp1878
g96
asbasbasbag53
(g69
g55
NtRp1879
(dp1880
g58
(dp1881
sg67
g1688
sg60
(lp1882
g53
(g74
g55
NtRp1883
(dp1884
g58
(dp1885
g78
g79
ssg67
g1879
sg60
(lp1886
g836
asbag53
(g74
g55
NtRp1887
(dp1888
g58
(dp1889
g85
g86
ssg67
g1879
sg60
(lp1890
S':'
asbag53
(g74
g55
NtRp1891
(dp1892
g58
(dp1893
sg67
g1879
sg60
(lp1894
g53
(g54
g55
NtRp1895
(dp1896
g58
(dp1897
g66
I4
ssg67
g1891
sg60
(lp1898
g53
(g62
g55
NtRp1899
(dp1900
g58
(dp1901
g66
I3
ssg67
Nsg60
(lp1902
g53
(g69
g55
NtRp1903
(dp1904
g58
(dp1905
sg67
g1899
sg60
(lp1906
g53
(g74
g55
NtRp1907
(dp1908
g58
(dp1909
sg67
g1903
sg60
(lp1910
g53
(g54
g55
NtRp1911
(dp1912
g58
(dp1913
g66
I3
ssg67
g1907
sg60
(lp1914
g865
asbasbasbag53
(g69
g55
NtRp1915
(dp1916
g58
(dp1917
sg67
g1899
sg60
(lp1918
g53
(g74
g55
NtRp1919
(dp1920
g58
(dp1921
sg67
g1915
sg60
(lp1922
g53
(g54
g55
NtRp1923
(dp1924
g58
(dp1925
g66
I3
ssg67
g1919
sg60
(lp1926
g878
asbasbasbag53
(g69
g55
NtRp1927
(dp1928
g58
(dp1929
sg67
g1899
sg60
(lp1930
g53
(g74
g55
NtRp1931
(dp1932
g58
(dp1933
sg67
g1927
sg60
(lp1934
g53
(g54
g55
NtRp1935
(dp1936
g58
(dp1937
g66
I3
ssg67
g1931
sg60
(lp1938
g891
asbasbasbag53
(g69
g55
NtRp1939
(dp1940
g58
(dp1941
sg67
g1899
sg60
(lp1942
g53
(g74
g55
NtRp1943
(dp1944
g58
(dp1945
sg67
g1939
sg60
(lp1946
g53
(g54
g55
NtRp1947
(dp1948
g58
(dp1949
g66
I3
ssg67
g1943
sg60
(lp1950
g904
asbasbasbag53
(g69
g55
NtRp1951
(dp1952
g58
(dp1953
sg67
g1899
sg60
(lp1954
g53
(g74
g55
NtRp1955
(dp1956
g58
(dp1957
sg67
g1951
sg60
(lp1958
g53
(g54
g55
NtRp1959
(dp1960
g58
(dp1961
g66
I3
ssg67
g1955
sg60
(lp1962
g917
asbasbasbasbasbasbasbag53
(g69
g55
NtRp1963
(dp1964
g58
(dp1965
sg67
g1688
sg60
(lp1966
g53
(g74
g55
NtRp1967
(dp1968
g58
(dp1969
g78
g79
ssg67
g1963
sg60
(lp1970
g1187
asbag53
(g74
g55
NtRp1971
(dp1972
g58
(dp1973
g85
g86
ssg67
g1963
sg60
(lp1974
S':'
asbag53
(g74
g55
NtRp1975
(dp1976
g58
(dp1977
sg67
g1963
sg60
(lp1978
g53
(g54
g55
NtRp1979
(dp1980
g58
(dp1981
g66
I4
ssg67
g1975
sg60
(lp1982
g53
(g62
g55
NtRp1983
(dp1984
g58
(dp1985
g66
I3
ssg67
Nsg60
(lp1986
g53
(g69
g55
NtRp1987
(dp1988
g58
(dp1989
sg67
g1983
sg60
(lp1990
g53
(g74
g55
NtRp1991
(dp1992
g58
(dp1993
sg67
g1987
sg60
(lp1994
g53
(g54
g55
NtRp1995
(dp1996
g58
(dp1997
g66
I3
ssg67
g1991
sg60
(lp1998
S'2'
asbasbasbag53
(g69
g55
NtRp1999
(dp2000
g58
(dp2001
sg67
g1983
sg60
(lp2002
g53
(g74
g55
NtRp2003
(dp2004
g58
(dp2005
sg67
g1999
sg60
(lp2006
g53
(g54
g55
NtRp2007
(dp2008
g58
(dp2009
g66
I3
ssg67
g2003
sg60
(lp2010
S'4'
asbasbasbag53
(g69
g55
NtRp2011
(dp2012
g58
(dp2013
sg67
g1983
sg60
(lp2014
g53
(g74
g55
NtRp2015
(dp2016
g58
(dp2017
sg67
g2011
sg60
(lp2018
g53
(g54
g55
NtRp2019
(dp2020
g58
(dp2021
g66
I3
ssg67
g2015
sg60
(lp2022
S'5'
asbasbasbag53
(g69
g55
NtRp2023
(dp2024
g58
(dp2025
sg67
g1983
sg60
(lp2026
g53
(g74
g55
NtRp2027
(dp2028
g58
(dp2029
sg67
g2023
sg60
(lp2030
g53
(g54
g55
NtRp2031
(dp2032
g58
(dp2033
g66
I3
ssg67
g2027
sg60
(lp2034
g1252
asbasbasbag53
(g69
g55
NtRp2035
(dp2036
g58
(dp2037
sg67
g1983
sg60
(lp2038
g53
(g74
g55
NtRp2039
(dp2040
g58
(dp2041
sg67
g2035
sg60
(lp2042
g53
(g54
g55
NtRp2043
(dp2044
g58
(dp2045
g66
I3
ssg67
g2039
sg60
(lp2046
S'datetime.datetime(2013, 3, 18, 22, 46, 22)'
p2047
asbasbasbasbasbasbasbasbasbasbasbag53
(g69
g55
NtRp2048
(dp2049
g58
(dp2050
sg67
g63
sg60
(lp2051
g53
(g74
g55
NtRp2052
(dp2053
g58
(dp2054
g78
g79
ssg67
g2048
sg60
(lp2055
S'is_https'
p2056
asbag53
(g74
g55
NtRp2057
(dp2058
g58
(dp2059
g85
g86
ssg67
g2048
sg60
(lp2060
S':'
asbag53
(g74
g55
NtRp2061
(dp2062
g58
(dp2063
sg67
g2048
sg60
(lp2064
g53
(g54
g55
NtRp2065
(dp2066
g58
(dp2067
g66
I5
ssg67
g2061
sg60
(lp2068
g96
asbasbasbag53
(g69
g55
NtRp2069
(dp2070
g58
(dp2071
sg67
g63
sg60
(lp2072
g53
(g74
g55
NtRp2073
(dp2074
g58
(dp2075
g78
g79
ssg67
g2069
sg60
(lp2076
S'is_local'
p2077
asbag53
(g74
g55
NtRp2078
(dp2079
g58
(dp2080
g85
g86
ssg67
g2069
sg60
(lp2081
S':'
asbag53
(g74
g55
NtRp2082
(dp2083
g58
(dp2084
sg67
g2069
sg60
(lp2085
g53
(g54
g55
NtRp2086
(dp2087
g58
(dp2088
g66
I5
ssg67
g2082
sg60
(lp2089
g1374
asbasbasbag53
(g69
g55
NtRp2090
(dp2091
g58
(dp2092
sg67
g63
sg60
(lp2093
g53
(g74
g55
NtRp2094
(dp2095
g58
(dp2096
g78
g79
ssg67
g2090
sg60
(lp2097
S'is_restful'
p2098
asbag53
(g74
g55
NtRp2099
(dp2100
g58
(dp2101
g85
g86
ssg67
g2090
sg60
(lp2102
S':'
asbag53
(g74
g55
NtRp2103
(dp2104
g58
(dp2105
sg67
g2090
sg60
(lp2106
g53
(g54
g55
NtRp2107
(dp2108
g58
(dp2109
g66
I5
ssg67
g2103
sg60
(lp2110
g96
asbasbasbag53
(g69
g55
NtRp2111
(dp2112
g58
(dp2113
sg67
g63
sg60
(lp2114
g53
(g74
g55
NtRp2115
(dp2116
g58
(dp2117
g78
g79
ssg67
g2111
sg60
(lp2118
S'now'
p2119
asbag53
(g74
g55
NtRp2120
(dp2121
g58
(dp2122
g85
g86
ssg67
g2111
sg60
(lp2123
S':'
asbag53
(g74
g55
NtRp2124
(dp2125
g58
(dp2126
sg67
g2111
sg60
(lp2127
g53
(g54
g55
NtRp2128
(dp2129
g58
(dp2130
g66
I5
ssg67
g2124
sg60
(lp2131
S'datetime.datetime(2013, 4, 29, 16, 18, 27, 367870)'
p2132
asbasbasbag53
(g69
g55
NtRp2133
(dp2134
g58
(dp2135
sg67
g63
sg60
(lp2136
g53
(g74
g55
NtRp2137
(dp2138
g58
(dp2139
g78
g79
ssg67
g2133
sg60
(lp2140
S'post_vars'
p2141
asbag53
(g74
g55
NtRp2142
(dp2143
g58
(dp2144
g85
g86
ssg67
g2133
sg60
(lp2145
S':'
asbag53
(g74
g55
NtRp2146
(dp2147
g58
(dp2148
sg67
g2133
sg60
(lp2149
g53
(g54
g55
NtRp2150
(dp2151
g58
(dp2152
g66
I5
ssg67
g2146
sg60
(lp2153
g53
(g62
g55
NtRp2154
(dp2155
g58
(dp2156
g66
I4
ssg67
Nsg60
(lp2157
sbasbasbasbag53
(g69
g55
NtRp2158
(dp2159
g58
(dp2160
sg67
g63
sg60
(lp2161
g53
(g74
g55
NtRp2162
(dp2163
g58
(dp2164
g78
g79
ssg67
g2158
sg60
(lp2165
S'raw_args'
p2166
asbag53
(g74
g55
NtRp2167
(dp2168
g58
(dp2169
g85
g86
ssg67
g2158
sg60
(lp2170
S':'
asbag53
(g74
g55
NtRp2171
(dp2172
g58
(dp2173
sg67
g2158
sg60
(lp2174
g53
(g54
g55
NtRp2175
(dp2176
g58
(dp2177
g66
I5
ssg67
g2171
sg60
(lp2178
S''
asbasbasbag53
(g69
g55
NtRp2179
(dp2180
g58
(dp2181
sg67
g63
sg60
(lp2182
g53
(g74
g55
NtRp2183
(dp2184
g58
(dp2185
g78
g79
ssg67
g2179
sg60
(lp2186
S'raw_extension'
p2187
asbag53
(g74
g55
NtRp2188
(dp2189
g58
(dp2190
g85
g86
ssg67
g2179
sg60
(lp2191
S':'
asbag53
(g74
g55
NtRp2192
(dp2193
g58
(dp2194
sg67
g2179
sg60
(lp2195
g53
(g54
g55
NtRp2196
(dp2197
g58
(dp2198
g66
I5
ssg67
g2192
sg60
(lp2199
S'None'
p2200
asbasbasbag53
(g69
g55
NtRp2201
(dp2202
g58
(dp2203
sg67
g63
sg60
(lp2204
g53
(g74
g55
NtRp2205
(dp2206
g58
(dp2207
g78
g79
ssg67
g2201
sg60
(lp2208
S'url'
p2209
asbag53
(g74
g55
NtRp2210
(dp2211
g58
(dp2212
g85
g86
ssg67
g2201
sg60
(lp2213
S':'
asbag53
(g74
g55
NtRp2214
(dp2215
g58
(dp2216
sg67
g2201
sg60
(lp2217
g53
(g54
g55
NtRp2218
(dp2219
g58
(dp2220
g66
I5
ssg67
g2214
sg60
(lp2221
g939
asbasbasbag53
(g69
g55
NtRp2222
(dp2223
g58
(dp2224
sg67
g63
sg60
(lp2225
g53
(g74
g55
NtRp2226
(dp2227
g58
(dp2228
g78
g79
ssg67
g2222
sg60
(lp2229
S'utcnow'
p2230
asbag53
(g74
g55
NtRp2231
(dp2232
g58
(dp2233
g85
g86
ssg67
g2222
sg60
(lp2234
S':'
asbag53
(g74
g55
NtRp2235
(dp2236
g58
(dp2237
sg67
g2222
sg60
(lp2238
g53
(g54
g55
NtRp2239
(dp2240
g58
(dp2241
g66
I5
ssg67
g2235
sg60
(lp2242
S'datetime.datetime(2013, 4, 29, 23, 18, 27, 367882)'
p2243
asbasbasbag53
(g69
g55
NtRp2244
(dp2245
g58
(dp2246
sg67
g63
sg60
(lp2247
g53
(g74
g55
NtRp2248
(dp2249
g58
(dp2250
g78
g79
ssg67
g2244
sg60
(lp2251
S'uuid'
p2252
asbag53
(g74
g55
NtRp2253
(dp2254
g58
(dp2255
g85
g86
ssg67
g2244
sg60
(lp2256
S':'
asbag53
(g74
g55
NtRp2257
(dp2258
g58
(dp2259
sg67
g2244
sg60
(lp2260
g53
(g54
g55
NtRp2261
(dp2262
g58
(dp2263
g66
I5
ssg67
g2257
sg60
(lp2264
S'MR/127.0.0.1.2013-04-29.16-18-27.5581d012-e809-4cfb-b61f-a67628c0c3eb'
p2265
asbasbasbag53
(g69
g55
NtRp2266
(dp2267
g58
(dp2268
sg67
g63
sg60
(lp2269
g53
(g74
g55
NtRp2270
(dp2271
g58
(dp2272
g78
g79
ssg67
g2266
sg60
(lp2273
S'vars'
p2274
asbag53
(g74
g55
NtRp2275
(dp2276
g58
(dp2277
g85
g86
ssg67
g2266
sg60
(lp2278
S':'
asbag53
(g74
g55
NtRp2279
(dp2280
g58
(dp2281
sg67
g2266
sg60
(lp2282
g53
(g54
g55
NtRp2283
(dp2284
g58
(dp2285
g66
I5
ssg67
g2279
sg60
(lp2286
g53
(g62
g55
NtRp2287
(dp2288
g58
(dp2289
g66
I4
ssg67
Nsg60
(lp2290
g53
(g69
g55
NtRp2291
(dp2292
g58
(dp2293
sg67
g2287
sg60
(lp2294
g53
(g74
g55
NtRp2295
(dp2296
g58
(dp2297
g78
g79
ssg67
g2291
sg60
(lp2298
g1566
asbag53
(g74
g55
NtRp2299
(dp2300
g58
(dp2301
g85
g86
ssg67
g2291
sg60
(lp2302
S':'
asbag53
(g74
g55
NtRp2303
(dp2304
g58
(dp2305
sg67
g2291
sg60
(lp2306
g53
(g54
g55
NtRp2307
(dp2308
g58
(dp2309
g66
I4
ssg67
g2303
sg60
(lp2310
S''
asbasbasbag53
(g69
g55
NtRp2311
(dp2312
g58
(dp2313
sg67
g2287
sg60
(lp2314
g53
(g74
g55
NtRp2315
(dp2316
g58
(dp2317
g78
g79
ssg67
g2311
sg60
(lp2318
g1587
asbag53
(g74
g55
NtRp2319
(dp2320
g58
(dp2321
g85
g86
ssg67
g2311
sg60
(lp2322
S':'
asbag53
(g74
g55
NtRp2323
(dp2324
g58
(dp2325
sg67
g2311
sg60
(lp2326
g53
(g54
g55
NtRp2327
(dp2328
g58
(dp2329
g66
I4
ssg67
g2323
sg60
(lp2330
g1600
asbasbasbag53
(g69
g55
NtRp2331
(dp2332
g58
(dp2333
sg67
g2287
sg60
(lp2334
g53
(g74
g55
NtRp2335
(dp2336
g58
(dp2337
g78
g79
ssg67
g2331
sg60
(lp2338
g1609
asbag53
(g74
g55
NtRp2339
(dp2340
g58
(dp2341
g85
g86
ssg67
g2331
sg60
(lp2342
S':'
asbag53
(g74
g55
NtRp2343
(dp2344
g58
(dp2345
sg67
g2331
sg60
(lp2346
g53
(g54
g55
NtRp2347
(dp2348
g58
(dp2349
g66
I4
ssg67
g2343
sg60
(lp2350
g1622
asbasbasbag53
(g69
g55
NtRp2351
(dp2352
g58
(dp2353
sg67
g2287
sg60
(lp2354
g53
(g74
g55
NtRp2355
(dp2356
g58
(dp2357
g78
g79
ssg67
g2351
sg60
(lp2358
g1631
asbag53
(g74
g55
NtRp2359
(dp2360
g58
(dp2361
g85
g86
ssg67
g2351
sg60
(lp2362
S':'
asbag53
(g74
g55
NtRp2363
(dp2364
g58
(dp2365
sg67
g2351
sg60
(lp2366
g53
(g54
g55
NtRp2367
(dp2368
g58
(dp2369
g66
I4
ssg67
g2363
sg60
(lp2370
g1644
asbasbasbag53
(g69
g55
NtRp2371
(dp2372
g58
(dp2373
sg67
g2287
sg60
(lp2374
g53
(g74
g55
NtRp2375
(dp2376
g58
(dp2377
g78
g79
ssg67
g2371
sg60
(lp2378
g1653
asbag53
(g74
g55
NtRp2379
(dp2380
g58
(dp2381
g85
g86
ssg67
g2371
sg60
(lp2382
S':'
asbag53
(g74
g55
NtRp2383
(dp2384
g58
(dp2385
sg67
g2371
sg60
(lp2386
g53
(g54
g55
NtRp2387
(dp2388
g58
(dp2389
g66
I4
ssg67
g2383
sg60
(lp2390
g1666
asbasbasbasbasbasbasbag53
(g69
g55
NtRp2391
(dp2392
g58
(dp2393
sg67
g63
sg60
(lp2394
g53
(g74
g55
NtRp2395
(dp2396
g58
(dp2397
g78
g79
ssg67
g2391
sg60
(lp2398
S'wsgi'
p2399
asbag53
(g74
g55
NtRp2400
(dp2401
g58
(dp2402
g85
g86
ssg67
g2391
sg60
(lp2403
S':'
asbag53
(g74
g55
NtRp2404
(dp2405
g58
(dp2406
sg67
g2391
sg60
(lp2407
g53
(g54
g55
NtRp2408
(dp2409
g58
(dp2410
g66
I5
ssg67
g2404
sg60
(lp2411
g53
(g62
g55
NtRp2412
(dp2413
g58
(dp2414
g66
I4
ssg67
Nsg60
(lp2415
g53
(g69
g55
NtRp2416
(dp2417
g58
(dp2418
sg67
g2412
sg60
(lp2419
g53
(g74
g55
NtRp2420
(dp2421
g58
(dp2422
g78
g79
ssg67
g2416
sg60
(lp2423
S'environ'
p2424
asbag53
(g74
g55
NtRp2425
(dp2426
g58
(dp2427
g85
g86
ssg67
g2416
sg60
(lp2428
S':'
asbag53
(g74
g55
NtRp2429
(dp2430
g58
(dp2431
sg67
g2416
sg60
(lp2432
g53
(g54
g55
NtRp2433
(dp2434
g58
(dp2435
g66
I4
ssg67
g2429
sg60
(lp2436
g53
(g62
g55
NtRp2437
(dp2438
g58
(dp2439
g66
I3
ssg67
Nsg60
(lp2440
g53
(g69
g55
NtRp2441
(dp2442
g58
(dp2443
sg67
g2437
sg60
(lp2444
g53
(g74
g55
NtRp2445
(dp2446
g58
(dp2447
g78
g79
ssg67
g2441
sg60
(lp2448
S'HTTP_ACCEPT'
p2449
asbag53
(g74
g55
NtRp2450
(dp2451
g58
(dp2452
g85
g86
ssg67
g2441
sg60
(lp2453
S':'
asbag53
(g74
g55
NtRp2454
(dp2455
g58
(dp2456
sg67
g2441
sg60
(lp2457
g53
(g54
g55
NtRp2458
(dp2459
g58
(dp2460
g66
I3
ssg67
g2454
sg60
(lp2461
g631
asbasbasbag53
(g69
g55
NtRp2462
(dp2463
g58
(dp2464
sg67
g2437
sg60
(lp2465
g53
(g74
g55
NtRp2466
(dp2467
g58
(dp2468
g78
g79
ssg67
g2462
sg60
(lp2469
S'HTTP_ACCEPT_CHARSET'
p2470
asbag53
(g74
g55
NtRp2471
(dp2472
g58
(dp2473
g85
g86
ssg67
g2462
sg60
(lp2474
S':'
asbag53
(g74
g55
NtRp2475
(dp2476
g58
(dp2477
sg67
g2462
sg60
(lp2478
g53
(g54
g55
NtRp2479
(dp2480
g58
(dp2481
g66
I3
ssg67
g2475
sg60
(lp2482
g653
asbasbasbag53
(g69
g55
NtRp2483
(dp2484
g58
(dp2485
sg67
g2437
sg60
(lp2486
g53
(g74
g55
NtRp2487
(dp2488
g58
(dp2489
g78
g79
ssg67
g2483
sg60
(lp2490
S'HTTP_ACCEPT_ENCODING'
p2491
asbag53
(g74
g55
NtRp2492
(dp2493
g58
(dp2494
g85
g86
ssg67
g2483
sg60
(lp2495
S':'
asbag53
(g74
g55
NtRp2496
(dp2497
g58
(dp2498
sg67
g2483
sg60
(lp2499
g53
(g54
g55
NtRp2500
(dp2501
g58
(dp2502
g66
I3
ssg67
g2496
sg60
(lp2503
g675
asbasbasbag53
(g69
g55
NtRp2504
(dp2505
g58
(dp2506
sg67
g2437
sg60
(lp2507
g53
(g74
g55
NtRp2508
(dp2509
g58
(dp2510
g78
g79
ssg67
g2504
sg60
(lp2511
S'HTTP_ACCEPT_LANGUAGE'
p2512
asbag53
(g74
g55
NtRp2513
(dp2514
g58
(dp2515
g85
g86
ssg67
g2504
sg60
(lp2516
S':'
asbag53
(g74
g55
NtRp2517
(dp2518
g58
(dp2519
sg67
g2504
sg60
(lp2520
g53
(g54
g55
NtRp2521
(dp2522
g58
(dp2523
g66
I3
ssg67
g2517
sg60
(lp2524
g697
asbasbasbag53
(g69
g55
NtRp2525
(dp2526
g58
(dp2527
sg67
g2437
sg60
(lp2528
g53
(g74
g55
NtRp2529
(dp2530
g58
(dp2531
g78
g79
ssg67
g2525
sg60
(lp2532
S'HTTP_CONNECTION'
p2533
asbag53
(g74
g55
NtRp2534
(dp2535
g58
(dp2536
g85
g86
ssg67
g2525
sg60
(lp2537
S':'
asbag53
(g74
g55
NtRp2538
(dp2539
g58
(dp2540
sg67
g2525
sg60
(lp2541
g53
(g54
g55
NtRp2542
(dp2543
g58
(dp2544
g66
I3
ssg67
g2538
sg60
(lp2545
g719
asbasbasbag53
(g69
g55
NtRp2546
(dp2547
g58
(dp2548
sg67
g2437
sg60
(lp2549
g53
(g74
g55
NtRp2550
(dp2551
g58
(dp2552
g78
g79
ssg67
g2546
sg60
(lp2553
S'HTTP_COOKIE'
p2554
asbag53
(g74
g55
NtRp2555
(dp2556
g58
(dp2557
g85
g86
ssg67
g2546
sg60
(lp2558
S':'
asbag53
(g74
g55
NtRp2559
(dp2560
g58
(dp2561
sg67
g2546
sg60
(lp2562
g53
(g54
g55
NtRp2563
(dp2564
g58
(dp2565
g66
I3
ssg67
g2559
sg60
(lp2566
g741
asbasbasbag53
(g69
g55
NtRp2567
(dp2568
g58
(dp2569
sg67
g2437
sg60
(lp2570
g53
(g74
g55
NtRp2571
(dp2572
g58
(dp2573
g78
g79
ssg67
g2567
sg60
(lp2574
S'HTTP_HOST'
p2575
asbag53
(g74
g55
NtRp2576
(dp2577
g58
(dp2578
g85
g86
ssg67
g2567
sg60
(lp2579
S':'
asbag53
(g74
g55
NtRp2580
(dp2581
g58
(dp2582
sg67
g2567
sg60
(lp2583
g53
(g54
g55
NtRp2584
(dp2585
g58
(dp2586
g66
I3
ssg67
g2580
sg60
(lp2587
g763
asbasbasbag53
(g69
g55
NtRp2588
(dp2589
g58
(dp2590
sg67
g2437
sg60
(lp2591
g53
(g74
g55
NtRp2592
(dp2593
g58
(dp2594
g78
g79
ssg67
g2588
sg60
(lp2595
S'HTTP_USER_AGENT'
p2596
asbag53
(g74
g55
NtRp2597
(dp2598
g58
(dp2599
g85
g86
ssg67
g2588
sg60
(lp2600
S':'
asbag53
(g74
g55
NtRp2601
(dp2602
g58
(dp2603
sg67
g2588
sg60
(lp2604
g53
(g54
g55
NtRp2605
(dp2606
g58
(dp2607
g66
I3
ssg67
g2601
sg60
(lp2608
g785
asbasbasbag53
(g69
g55
NtRp2609
(dp2610
g58
(dp2611
sg67
g2437
sg60
(lp2612
g53
(g74
g55
NtRp2613
(dp2614
g58
(dp2615
g78
g79
ssg67
g2609
sg60
(lp2616
S'PATH_INFO'
p2617
asbag53
(g74
g55
NtRp2618
(dp2619
g58
(dp2620
g85
g86
ssg67
g2609
sg60
(lp2621
S':'
asbag53
(g74
g55
NtRp2622
(dp2623
g58
(dp2624
sg67
g2609
sg60
(lp2625
g53
(g54
g55
NtRp2626
(dp2627
g58
(dp2628
g66
I3
ssg67
g2622
sg60
(lp2629
g939
asbasbasbag53
(g69
g55
NtRp2630
(dp2631
g58
(dp2632
sg67
g2437
sg60
(lp2633
g53
(g74
g55
NtRp2634
(dp2635
g58
(dp2636
g78
g79
ssg67
g2630
sg60
(lp2637
S'QUERY_STRING'
p2638
asbag53
(g74
g55
NtRp2639
(dp2640
g58
(dp2641
g85
g86
ssg67
g2630
sg60
(lp2642
S':'
asbag53
(g74
g55
NtRp2643
(dp2644
g58
(dp2645
sg67
g2630
sg60
(lp2646
g53
(g54
g55
NtRp2647
(dp2648
g58
(dp2649
g66
I3
ssg67
g2643
sg60
(lp2650
g961
asbasbasbag53
(g69
g55
NtRp2651
(dp2652
g58
(dp2653
sg67
g2437
sg60
(lp2654
g53
(g74
g55
NtRp2655
(dp2656
g58
(dp2657
g78
g79
ssg67
g2651
sg60
(lp2658
S'REMOTE_ADDR'
p2659
asbag53
(g74
g55
NtRp2660
(dp2661
g58
(dp2662
g85
g86
ssg67
g2651
sg60
(lp2663
S':'
asbag53
(g74
g55
NtRp2664
(dp2665
g58
(dp2666
sg67
g2651
sg60
(lp2667
g53
(g54
g55
NtRp2668
(dp2669
g58
(dp2670
g66
I3
ssg67
g2664
sg60
(lp2671
g208
asbasbasbag53
(g69
g55
NtRp2672
(dp2673
g58
(dp2674
sg67
g2437
sg60
(lp2675
g53
(g74
g55
NtRp2676
(dp2677
g58
(dp2678
g78
g79
ssg67
g2672
sg60
(lp2679
S'REMOTE_PORT'
p2680
asbag53
(g74
g55
NtRp2681
(dp2682
g58
(dp2683
g85
g86
ssg67
g2672
sg60
(lp2684
S':'
asbag53
(g74
g55
NtRp2685
(dp2686
g58
(dp2687
sg67
g2672
sg60
(lp2688
g53
(g54
g55
NtRp2689
(dp2690
g58
(dp2691
g66
I3
ssg67
g2685
sg60
(lp2692
g1004
asbasbasbag53
(g69
g55
NtRp2693
(dp2694
g58
(dp2695
sg67
g2437
sg60
(lp2696
g53
(g74
g55
NtRp2697
(dp2698
g58
(dp2699
g78
g79
ssg67
g2693
sg60
(lp2700
S'REQUEST_METHOD'
p2701
asbag53
(g74
g55
NtRp2702
(dp2703
g58
(dp2704
g85
g86
ssg67
g2693
sg60
(lp2705
S':'
asbag53
(g74
g55
NtRp2706
(dp2707
g58
(dp2708
sg67
g2693
sg60
(lp2709
g53
(g54
g55
NtRp2710
(dp2711
g58
(dp2712
g66
I3
ssg67
g2706
sg60
(lp2713
g1026
asbasbasbag53
(g69
g55
NtRp2714
(dp2715
g58
(dp2716
sg67
g2437
sg60
(lp2717
g53
(g74
g55
NtRp2718
(dp2719
g58
(dp2720
g78
g79
ssg67
g2714
sg60
(lp2721
S'REQUEST_URI'
p2722
asbag53
(g74
g55
NtRp2723
(dp2724
g58
(dp2725
g85
g86
ssg67
g2714
sg60
(lp2726
S':'
asbag53
(g74
g55
NtRp2727
(dp2728
g58
(dp2729
sg67
g2714
sg60
(lp2730
g53
(g54
g55
NtRp2731
(dp2732
g58
(dp2733
g66
I3
ssg67
g2727
sg60
(lp2734
g1048
asbasbasbag53
(g69
g55
NtRp2735
(dp2736
g58
(dp2737
sg67
g2437
sg60
(lp2738
g53
(g74
g55
NtRp2739
(dp2740
g58
(dp2741
g78
g79
ssg67
g2735
sg60
(lp2742
S'SCRIPT_NAME'
p2743
asbag53
(g74
g55
NtRp2744
(dp2745
g58
(dp2746
g85
g86
ssg67
g2735
sg60
(lp2747
S':'
asbag53
(g74
g55
NtRp2748
(dp2749
g58
(dp2750
sg67
g2735
sg60
(lp2751
g53
(g54
g55
NtRp2752
(dp2753
g58
(dp2754
g66
I3
ssg67
g2748
sg60
(lp2755
S''
asbasbasbag53
(g69
g55
NtRp2756
(dp2757
g58
(dp2758
sg67
g2437
sg60
(lp2759
g53
(g74
g55
NtRp2760
(dp2761
g58
(dp2762
g78
g79
ssg67
g2756
sg60
(lp2763
S'SERVER_NAME'
p2764
asbag53
(g74
g55
NtRp2765
(dp2766
g58
(dp2767
g85
g86
ssg67
g2756
sg60
(lp2768
S':'
asbag53
(g74
g55
NtRp2769
(dp2770
g58
(dp2771
sg67
g2756
sg60
(lp2772
g53
(g54
g55
NtRp2773
(dp2774
g58
(dp2775
g66
I3
ssg67
g2769
sg60
(lp2776
g1091
asbasbasbag53
(g69
g55
NtRp2777
(dp2778
g58
(dp2779
sg67
g2437
sg60
(lp2780
g53
(g74
g55
NtRp2781
(dp2782
g58
(dp2783
g78
g79
ssg67
g2777
sg60
(lp2784
S'SERVER_PORT'
p2785
asbag53
(g74
g55
NtRp2786
(dp2787
g58
(dp2788
g85
g86
ssg67
g2777
sg60
(lp2789
S':'
asbag53
(g74
g55
NtRp2790
(dp2791
g58
(dp2792
sg67
g2777
sg60
(lp2793
g53
(g54
g55
NtRp2794
(dp2795
g58
(dp2796
g66
I3
ssg67
g2790
sg60
(lp2797
g1113
asbasbasbag53
(g69
g55
NtRp2798
(dp2799
g58
(dp2800
sg67
g2437
sg60
(lp2801
g53
(g74
g55
NtRp2802
(dp2803
g58
(dp2804
g78
g79
ssg67
g2798
sg60
(lp2805
S'SERVER_PROTOCOL'
p2806
asbag53
(g74
g55
NtRp2807
(dp2808
g58
(dp2809
g85
g86
ssg67
g2798
sg60
(lp2810
S':'
asbag53
(g74
g55
NtRp2811
(dp2812
g58
(dp2813
sg67
g2798
sg60
(lp2814
g53
(g54
g55
NtRp2815
(dp2816
g58
(dp2817
g66
I3
ssg67
g2811
sg60
(lp2818
g1135
asbasbasbag53
(g69
g55
NtRp2819
(dp2820
g58
(dp2821
sg67
g2437
sg60
(lp2822
g53
(g74
g55
NtRp2823
(dp2824
g58
(dp2825
g78
g79
ssg67
g2819
sg60
(lp2826
S'SERVER_SOFTWARE'
p2827
asbag53
(g74
g55
NtRp2828
(dp2829
g58
(dp2830
g85
g86
ssg67
g2819
sg60
(lp2831
S':'
asbag53
(g74
g55
NtRp2832
(dp2833
g58
(dp2834
sg67
g2819
sg60
(lp2835
g53
(g54
g55
NtRp2836
(dp2837
g58
(dp2838
g66
I3
ssg67
g2832
sg60
(lp2839
g1157
asbasbasbag53
(g69
g55
NtRp2840
(dp2841
g58
(dp2842
sg67
g2437
sg60
(lp2843
g53
(g74
g55
NtRp2844
(dp2845
g58
(dp2846
g78
g79
ssg67
g2840
sg60
(lp2847
S'wsgi.errors'
p2848
asbag53
(g74
g55
NtRp2849
(dp2850
g58
(dp2851
g85
g86
ssg67
g2840
sg60
(lp2852
S':'
asbag53
(g74
g55
NtRp2853
(dp2854
g58
(dp2855
sg67
g2840
sg60
(lp2856
g53
(g54
g55
NtRp2857
(dp2858
g58
(dp2859
g66
I3
ssg67
g2853
sg60
(lp2860
S"<open file '<stderr>', mode 'w' at 0x660b0>"
p2861
asbasbasbag53
(g69
g55
NtRp2862
(dp2863
g58
(dp2864
sg67
g2437
sg60
(lp2865
g53
(g74
g55
NtRp2866
(dp2867
g58
(dp2868
g78
g79
ssg67
g2862
sg60
(lp2869
S'wsgi.file_wrapper'
p2870
asbag53
(g74
g55
NtRp2871
(dp2872
g58
(dp2873
g85
g86
ssg67
g2862
sg60
(lp2874
S':'
asbag53
(g74
g55
NtRp2875
(dp2876
g58
(dp2877
sg67
g2862
sg60
(lp2878
g53
(g54
g55
NtRp2879
(dp2880
g58
(dp2881
g66
I3
ssg67
g2875
sg60
(lp2882
S'<class wsgiref.util.FileWrapper at 0x456f060>'
p2883
asbasbasbag53
(g69
g55
NtRp2884
(dp2885
g58
(dp2886
sg67
g2437
sg60
(lp2887
g53
(g74
g55
NtRp2888
(dp2889
g58
(dp2890
g78
g79
ssg67
g2884
sg60
(lp2891
S'wsgi.input'
p2892
asbag53
(g74
g55
NtRp2893
(dp2894
g58
(dp2895
g85
g86
ssg67
g2884
sg60
(lp2896
S':'
asbag53
(g74
g55
NtRp2897
(dp2898
g58
(dp2899
sg67
g2884
sg60
(lp2900
g53
(g54
g55
NtRp2901
(dp2902
g58
(dp2903
g66
I3
ssg67
g2897
sg60
(lp2904
S'<cStringIO.StringO object at 0x7899200>'
p2905
asbasbasbag53
(g69
g55
NtRp2906
(dp2907
g58
(dp2908
sg67
g2437
sg60
(lp2909
g53
(g74
g55
NtRp2910
(dp2911
g58
(dp2912
g78
g79
ssg67
g2906
sg60
(lp2913
S'wsgi.multiprocess'
p2914
asbag53
(g74
g55
NtRp2915
(dp2916
g58
(dp2917
g85
g86
ssg67
g2906
sg60
(lp2918
S':'
asbag53
(g74
g55
NtRp2919
(dp2920
g58
(dp2921
sg67
g2906
sg60
(lp2922
g53
(g54
g55
NtRp2923
(dp2924
g58
(dp2925
g66
I3
ssg67
g2919
sg60
(lp2926
g96
asbasbasbag53
(g69
g55
NtRp2927
(dp2928
g58
(dp2929
sg67
g2437
sg60
(lp2930
g53
(g74
g55
NtRp2931
(dp2932
g58
(dp2933
g78
g79
ssg67
g2927
sg60
(lp2934
S'wsgi.multithread'
p2935
asbag53
(g74
g55
NtRp2936
(dp2937
g58
(dp2938
g85
g86
ssg67
g2927
sg60
(lp2939
S':'
asbag53
(g74
g55
NtRp2940
(dp2941
g58
(dp2942
sg67
g2927
sg60
(lp2943
g53
(g54
g55
NtRp2944
(dp2945
g58
(dp2946
g66
I3
ssg67
g2940
sg60
(lp2947
g1374
asbasbasbag53
(g69
g55
NtRp2948
(dp2949
g58
(dp2950
sg67
g2437
sg60
(lp2951
g53
(g74
g55
NtRp2952
(dp2953
g58
(dp2954
g78
g79
ssg67
g2948
sg60
(lp2955
S'wsgi.run_once'
p2956
asbag53
(g74
g55
NtRp2957
(dp2958
g58
(dp2959
g85
g86
ssg67
g2948
sg60
(lp2960
S':'
asbag53
(g74
g55
NtRp2961
(dp2962
g58
(dp2963
sg67
g2948
sg60
(lp2964
g53
(g54
g55
NtRp2965
(dp2966
g58
(dp2967
g66
I3
ssg67
g2961
sg60
(lp2968
g96
asbasbasbag53
(g69
g55
NtRp2969
(dp2970
g58
(dp2971
sg67
g2437
sg60
(lp2972
g53
(g74
g55
NtRp2973
(dp2974
g58
(dp2975
g78
g79
ssg67
g2969
sg60
(lp2976
S'wsgi.url_scheme'
p2977
asbag53
(g74
g55
NtRp2978
(dp2979
g58
(dp2980
g85
g86
ssg67
g2969
sg60
(lp2981
S':'
asbag53
(g74
g55
NtRp2982
(dp2983
g58
(dp2984
sg67
g2969
sg60
(lp2985
g53
(g54
g55
NtRp2986
(dp2987
g58
(dp2988
g66
I3
ssg67
g2982
sg60
(lp2989
g1417
asbasbasbag53
(g69
g55
NtRp2990
(dp2991
g58
(dp2992
sg67
g2437
sg60
(lp2993
g53
(g74
g55
NtRp2994
(dp2995
g58
(dp2996
g78
g79
ssg67
g2990
sg60
(lp2997
S'wsgi.version'
p2998
asbag53
(g74
g55
NtRp2999
(dp3000
g58
(dp3001
g85
g86
ssg67
g2990
sg60
(lp3002
S':'
asbag53
(g74
g55
NtRp3003
(dp3004
g58
(dp3005
sg67
g2990
sg60
(lp3006
g53
(g54
g55
NtRp3007
(dp3008
g58
(dp3009
g66
I3
ssg67
g3003
sg60
(lp3010
S'1'
asbasbasbasbasbasbasbasbasbasbasbasbasbsS'frames'
p3011
(lp3012
(dp3013
S'file'
p3014
S'/home/mdipierro/web2py/gluon/restricted.py'
p3015
sS'dump'
p3016
(dp3017
sS'lnum'
p3018
I212
sS'lines'
p3019
(dp3020
sS'call'
p3021
S"(code='# -*- coding: utf-8 -*-\\n# this file is released ...nse._vars=response._caller(mobile_user_register)\\n', environment={'A': <class 'gluon.html.A'>, 'Auth': <class 'gluon.tools.Auth'>, 'B': <class 'gluon.html.B'>, 'BEAUTIFY': <class 'gluon.html.BEAUTIFY'>, 'BODY': <class 'gluon.html.BODY'>, 'BR': <class 'gluon.html.BR'>, 'BUTTON': <class 'gluon.html.BUTTON'>, 'CAT': <class 'gluon.html.CAT'>, 'CENTER': <class 'gluon.html.CENTER'>, 'CLEANUP': <class 'gluon.validators.CLEANUP'>, ...}, layer='/Applications/web2py.app/Contents/Resources/applications/MR/controllers/default.py')"
p3022
sS'func'
p3023
S'restricted'
p3024
sa(dp3025
g3014
S'/Applications/web2py.app/Contents/Resources/applications/MR/controllers/default.py'
p3026
sg3016
(dp3027
sg3018
I93
sg3019
(dp3028
I82
S'    http://..../[app]/default/data/update/[table]/[id]'
p3029
sI83
S'    http://..../[app]/default/data/delete/[table]/[id]'
p3030
sI84
S'    http://..../[app]/default/data/select/[table]'
p3031
sI85
S'    http://..../[app]/default/data/search/[table]'
p3032
sI86
S'    but URLs must be signed, i.e. linked with'
p3033
sI87
S"      A('table',_href=URL('data/tables',user_signature=True))"
p3034
sI88
S'    or with the signed load operator'
p3035
sI89
S"      LOAD('default','data.load',args='tables',ajax=True,user_signature=True)"
p3036
sI90
S'    """'
p3037
sI91
S'    return dict(form=crud())'
p3038
ssg3021
S'()'
p3039
sg3023
S'<module>'
p3040
sa(dp3041
g3014
S'/home/mdipierro/web2py/gluon/globals.py'
p3042
sg3016
(dp3043
sg3018
I193
sg3019
(dp3044
sg3021
S'(f=<function mobile_user_register at 0x7828c30>)'
p3045
sg3023
S'<lambda>'
p3046
sa(dp3047
g3014
S'/Applications/web2py.app/Contents/Resources/applications/MR/controllers/default.py'
p3048
sg3016
(dp3049
sg3018
I62
sg3019
(dp3050
I64
S"        return {'status':'ERROR'}"
p3051
sI65
S''
sI66
S"    return {'status': 'success', 'result': result}"
p3052
sI57
S'    rows = db(db.mobile_user.email==email).select()'
p3053
sI58
S'    if len(rows) != 0:'
p3054
sI59
S"        return {'status': 'exist'}"
p3055
sI60
S''
sI61
S'    result = TT.md5_hash(password)'
p3056
sI62
S'    ret = db.mobile_user.validate_and_insert(email=email, password=password, first_name=firstname, last_name=lastname, md5=result, country=country)'
p3057
sI63
S'    if ret.errors:'
p3058
ssg3021
S'()'
p3059
sg3023
S'mobile_user_register'
p3060
sa(dp3061
g3014
S'/home/mdipierro/web2py/gluon/dal.py'
p3062
sg3016
(dp3063
sg3018
I8112
sg3019
(dp3064
sg3021
S"(self=<Table mobile_user (id,email,user_name,password,first_name,last_name,md5,country)>, **fields={'country': '', 'email': 'adsasdfasdff', 'first_name': 'asdf', 'last_name': 'asdf', 'md5': '05c12a287334386c94131ab8aa00d08a', 'password': 'adsf'})"
p3065
sg3023
S'validate_and_insert'
p3066
sa(dp3067
g3014
S'/home/mdipierro/web2py/gluon/dal.py'
p3068
sg3016
(dp3069
sg3018
I8095
sg3019
(dp3070
sg3021
S"(self=<Table mobile_user (id,email,user_name,password,first_name,last_name,md5,country)>, **fields={'country': None, 'email': 'adsasdfasdff', 'first_name': 'asdf', 'last_name': 'asdf', 'md5': '05c12a287334386c94131ab8aa00d08a', 'password': <gluon.validators.LazyCrypt object at 0x8aab7d0>, 'user_name': ''})"
p3071
sg3023
S'insert'
p3072
sa(dp3073
g3014
S'/home/mdipierro/web2py/gluon/dal.py'
p3074
sg3016
(dp3075
sg3018
I1176
sg3019
(dp3076
sg3021
S"(self=<gluon.dal.SQLiteAdapter object at 0x7899470>, table=<Table mobile_user (id,email,user_name,password,first_name,last_name,md5,country)>, fields=[(<gluon.dal.Field object at 0x8aab150>, 'asdf'), (<gluon.dal.Field object at 0x8aab210>, 'asdf'), (<gluon.dal.Field object at 0x8aab310>, None), (<gluon.dal.Field object at 0x8aab070>, <gluon.validators.LazyCrypt object at 0x8aab7d0>), (<gluon.dal.Field object at 0x8a7d5f0>, ''), (<gluon.dal.Field object at 0x8a7da30>, 'adsasdfasdff'), (<gluon.dal.Field object at 0x8aab270>, '05c12a287334386c94131ab8aa00d08a')])"
p3077
sg3023
g3072
sasS'pyver'
p3078
S'Python 2.5.1: /Applications/web2py.app/Contents/MacOS/python'
p3079
sS'session'
p3080
g53
(g54
g55
NtRp3081
(dp3082
g58
(dp3083
sg60
(lp3084
g53
(g62
g55
NtRp3085
(dp3086
g58
(dp3087
g66
I5
ssg67
Nsg60
(lp3088
sbasbsS'etype'
p3089
S"<class 'sqlite3.IntegrityError'>"
p3090
sS'date'
p3091
S'Mon Apr 29 16:18:27 2013'
p3092
sS'response'
p3093
g53
(g54
g55
NtRp3094
(dp3095
g58
(dp3096
sg60
(lp3097
g53
(g62
g55
NtRp3098
(dp3099
g58
(dp3100
g66
I5
ssg67
Nsg60
(lp3101
g53
(g69
g55
NtRp3102
(dp3103
g58
(dp3104
sg67
g3098
sg60
(lp3105
g53
(g74
g55
NtRp3106
(dp3107
g58
(dp3108
g78
g79
ssg67
g3102
sg60
(lp3109
g151
asbag53
(g74
g55
NtRp3110
(dp3111
g58
(dp3112
g85
g86
ssg67
g3102
sg60
(lp3113
S':'
asbag53
(g74
g55
NtRp3114
(dp3115
g58
(dp3116
sg67
g3102
sg60
(lp3117
g53
(g54
g55
NtRp3118
(dp3119
g58
(dp3120
g66
I5
ssg67
g3114
sg60
(lp3121
S'<cStringIO.StringO object at 0x78990c0>'
p3122
asbasbasbag53
(g69
g55
NtRp3123
(dp3124
g58
(dp3125
sg67
g3098
sg60
(lp3126
g53
(g74
g55
NtRp3127
(dp3128
g58
(dp3129
g78
g79
ssg67
g3123
sg60
(lp3130
g239
asbag53
(g74
g55
NtRp3131
(dp3132
g58
(dp3133
g85
g86
ssg67
g3123
sg60
(lp3134
S':'
asbag53
(g74
g55
NtRp3135
(dp3136
g58
(dp3137
sg67
g3123
sg60
(lp3138
g53
(g54
g55
NtRp3139
(dp3140
g58
(dp3141
g66
I5
ssg67
g3135
sg60
(lp3142
g53
(g62
g55
NtRp3143
(dp3144
g58
(dp3145
g66
I4
ssg67
Nsg60
(lp3146
g53
(g69
g55
NtRp3147
(dp3148
g58
(dp3149
sg67
g3143
sg60
(lp3150
g53
(g74
g55
NtRp3151
(dp3152
g58
(dp3153
g78
g79
ssg67
g3147
sg60
(lp3154
S'session_id_mr'
p3155
asbag53
(g74
g55
NtRp3156
(dp3157
g58
(dp3158
g85
g86
ssg67
g3147
sg60
(lp3159
S':'
asbag53
(g74
g55
NtRp3160
(dp3161
g58
(dp3162
sg67
g3147
sg60
(lp3163
g53
(g54
g55
NtRp3164
(dp3165
g58
(dp3166
g66
I4
ssg67
g3160
sg60
(lp3167
g277
ag53
(g62
g55
NtRp3168
(dp3169
g58
(dp3170
g66
I3
ssg67
Nsg60
(lp3171
g53
(g69
g55
NtRp3172
(dp3173
g58
(dp3174
sg67
g3168
sg60
(lp3175
g53
(g74
g55
NtRp3176
(dp3177
g58
(dp3178
g78
g79
ssg67
g3172
sg60
(lp3179
g290
asbag53
(g74
g55
NtRp3180
(dp3181
g58
(dp3182
g85
g86
ssg67
g3172
sg60
(lp3183
S':'
asbag53
(g74
g55
NtRp3184
(dp3185
g58
(dp3186
sg67
g3172
sg60
(lp3187
g53
(g54
g55
NtRp3188
(dp3189
g58
(dp3190
g66
I3
ssg67
g3184
sg60
(lp3191
S''
asbasbasbag53
(g69
g55
NtRp3192
(dp3193
g58
(dp3194
sg67
g3168
sg60
(lp3195
g53
(g74
g55
NtRp3196
(dp3197
g58
(dp3198
g78
g79
ssg67
g3192
sg60
(lp3199
g311
asbag53
(g74
g55
NtRp3200
(dp3201
g58
(dp3202
g85
g86
ssg67
g3192
sg60
(lp3203
S':'
asbag53
(g74
g55
NtRp3204
(dp3205
g58
(dp3206
sg67
g3192
sg60
(lp3207
g53
(g54
g55
NtRp3208
(dp3209
g58
(dp3210
g66
I3
ssg67
g3204
sg60
(lp3211
S''
asbasbasbag53
(g69
g55
NtRp3212
(dp3213
g58
(dp3214
sg67
g3168
sg60
(lp3215
g53
(g74
g55
NtRp3216
(dp3217
g58
(dp3218
g78
g79
ssg67
g3212
sg60
(lp3219
g332
asbag53
(g74
g55
NtRp3220
(dp3221
g58
(dp3222
g85
g86
ssg67
g3212
sg60
(lp3223
S':'
asbag53
(g74
g55
NtRp3224
(dp3225
g58
(dp3226
sg67
g3212
sg60
(lp3227
g53
(g54
g55
NtRp3228
(dp3229
g58
(dp3230
g66
I3
ssg67
g3224
sg60
(lp3231
S''
asbasbasbag53
(g69
g55
NtRp3232
(dp3233
g58
(dp3234
sg67
g3168
sg60
(lp3235
g53
(g74
g55
NtRp3236
(dp3237
g58
(dp3238
g78
g79
ssg67
g3232
sg60
(lp3239
g353
asbag53
(g74
g55
NtRp3240
(dp3241
g58
(dp3242
g85
g86
ssg67
g3232
sg60
(lp3243
S':'
asbag53
(g74
g55
NtRp3244
(dp3245
g58
(dp3246
sg67
g3232
sg60
(lp3247
g53
(g54
g55
NtRp3248
(dp3249
g58
(dp3250
g66
I3
ssg67
g3244
sg60
(lp3251
S''
asbasbasbag53
(g69
g55
NtRp3252
(dp3253
g58
(dp3254
sg67
g3168
sg60
(lp3255
g53
(g74
g55
NtRp3256
(dp3257
g58
(dp3258
g78
g79
ssg67
g3252
sg60
(lp3259
g374
asbag53
(g74
g55
NtRp3260
(dp3261
g58
(dp3262
g85
g86
ssg67
g3252
sg60
(lp3263
S':'
asbag53
(g74
g55
NtRp3264
(dp3265
g58
(dp3266
sg67
g3252
sg60
(lp3267
g53
(g54
g55
NtRp3268
(dp3269
g58
(dp3270
g66
I3
ssg67
g3264
sg60
(lp3271
S'/'
asbasbasbag53
(g69
g55
NtRp3272
(dp3273
g58
(dp3274
sg67
g3168
sg60
(lp3275
g53
(g74
g55
NtRp3276
(dp3277
g58
(dp3278
g78
g79
ssg67
g3272
sg60
(lp3279
g395
asbag53
(g74
g55
NtRp3280
(dp3281
g58
(dp3282
g85
g86
ssg67
g3272
sg60
(lp3283
S':'
asbag53
(g74
g55
NtRp3284
(dp3285
g58
(dp3286
sg67
g3272
sg60
(lp3287
g53
(g54
g55
NtRp3288
(dp3289
g58
(dp3290
g66
I3
ssg67
g3284
sg60
(lp3291
S''
asbasbasbag53
(g69
g55
NtRp3292
(dp3293
g58
(dp3294
sg67
g3168
sg60
(lp3295
g53
(g74
g55
NtRp3296
(dp3297
g58
(dp3298
g78
g79
ssg67
g3292
sg60
(lp3299
g416
asbag53
(g74
g55
NtRp3300
(dp3301
g58
(dp3302
g85
g86
ssg67
g3292
sg60
(lp3303
S':'
asbag53
(g74
g55
NtRp3304
(dp3305
g58
(dp3306
sg67
g3292
sg60
(lp3307
g53
(g54
g55
NtRp3308
(dp3309
g58
(dp3310
g66
I3
ssg67
g3304
sg60
(lp3311
S''
asbasbasbasbasbasbasbasbasbasbasbag53
(g69
g55
NtRp3312
(dp3313
g58
(dp3314
sg67
g3098
sg60
(lp3315
g53
(g74
g55
NtRp3316
(dp3317
g58
(dp3318
g78
g79
ssg67
g3312
sg60
(lp3319
S'delimiters'
p3320
asbag53
(g74
g55
NtRp3321
(dp3322
g58
(dp3323
g85
g86
ssg67
g3312
sg60
(lp3324
S':'
asbag53
(g74
g55
NtRp3325
(dp3326
g58
(dp3327
sg67
g3312
sg60
(lp3328
g53
(g54
g55
NtRp3329
(dp3330
g58
(dp3331
g66
I5
ssg67
g3325
sg60
(lp3332
g53
(g62
g55
NtRp3333
(dp3334
g58
(dp3335
g66
I4
ssg67
Nsg60
(lp3336
g53
(g69
g55
NtRp3337
(dp3338
g58
(dp3339
sg67
g3333
sg60
(lp3340
g53
(g74
g55
NtRp3341
(dp3342
g58
(dp3343
sg67
g3337
sg60
(lp3344
g53
(g54
g55
NtRp3345
(dp3346
g58
(dp3347
g66
I4
ssg67
g3341
sg60
(lp3348
S'{{'
p3349
asbasbasbag53
(g69
g55
NtRp3350
(dp3351
g58
(dp3352
sg67
g3333
sg60
(lp3353
g53
(g74
g55
NtRp3354
(dp3355
g58
(dp3356
sg67
g3350
sg60
(lp3357
g53
(g54
g55
NtRp3358
(dp3359
g58
(dp3360
g66
I4
ssg67
g3354
sg60
(lp3361
S'}}'
p3362
asbasbasbasbasbasbasbag53
(g69
g55
NtRp3363
(dp3364
g58
(dp3365
sg67
g3098
sg60
(lp3366
g53
(g74
g55
NtRp3367
(dp3368
g58
(dp3369
g78
g79
ssg67
g3363
sg60
(lp3370
S'files'
p3371
asbag53
(g74
g55
NtRp3372
(dp3373
g58
(dp3374
g85
g86
ssg67
g3363
sg60
(lp3375
S':'
asbag53
(g74
g55
NtRp3376
(dp3377
g58
(dp3378
sg67
g3363
sg60
(lp3379
g53
(g54
g55
NtRp3380
(dp3381
g58
(dp3382
g66
I5
ssg67
g3376
sg60
(lp3383
g53
(g62
g55
NtRp3384
(dp3385
g58
(dp3386
g66
I4
ssg67
Nsg60
(lp3387
sbasbasbasbag53
(g69
g55
NtRp3388
(dp3389
g58
(dp3390
sg67
g3098
sg60
(lp3391
g53
(g74
g55
NtRp3392
(dp3393
g58
(dp3394
g78
g79
ssg67
g3388
sg60
(lp3395
S'flash'
p3396
asbag53
(g74
g55
NtRp3397
(dp3398
g58
(dp3399
g85
g86
ssg67
g3388
sg60
(lp3400
S':'
asbag53
(g74
g55
NtRp3401
(dp3402
g58
(dp3403
sg67
g3388
sg60
(lp3404
g53
(g54
g55
NtRp3405
(dp3406
g58
(dp3407
g66
I5
ssg67
g3401
sg60
(lp3408
S''
asbasbasbag53
(g69
g55
NtRp3409
(dp3410
g58
(dp3411
sg67
g3098
sg60
(lp3412
g53
(g74
g55
NtRp3413
(dp3414
g58
(dp3415
g78
g79
ssg67
g3409
sg60
(lp3416
S'generic_patterns'
p3417
asbag53
(g74
g55
NtRp3418
(dp3419
g58
(dp3420
g85
g86
ssg67
g3409
sg60
(lp3421
S':'
asbag53
(g74
g55
NtRp3422
(dp3423
g58
(dp3424
sg67
g3409
sg60
(lp3425
g53
(g54
g55
NtRp3426
(dp3427
g58
(dp3428
g66
I5
ssg67
g3422
sg60
(lp3429
g53
(g62
g55
NtRp3430
(dp3431
g58
(dp3432
g66
I4
ssg67
Nsg60
(lp3433
g53
(g69
g55
NtRp3434
(dp3435
g58
(dp3436
sg67
g3430
sg60
(lp3437
g53
(g74
g55
NtRp3438
(dp3439
g58
(dp3440
sg67
g3434
sg60
(lp3441
g53
(g54
g55
NtRp3442
(dp3443
g58
(dp3444
g66
I4
ssg67
g3438
sg60
(lp3445
S'*'
asbasbasbasbasbasbasbag53
(g69
g55
NtRp3446
(dp3447
g58
(dp3448
sg67
g3098
sg60
(lp3449
g53
(g74
g55
NtRp3450
(dp3451
g58
(dp3452
g78
g79
ssg67
g3446
sg60
(lp3453
S'google_analytics_id'
p3454
asbag53
(g74
g55
NtRp3455
(dp3456
g58
(dp3457
g85
g86
ssg67
g3446
sg60
(lp3458
S':'
asbag53
(g74
g55
NtRp3459
(dp3460
g58
(dp3461
sg67
g3446
sg60
(lp3462
g53
(g54
g55
NtRp3463
(dp3464
g58
(dp3465
g66
I5
ssg67
g3459
sg60
(lp3466
S'None'
p3467
asbasbasbag53
(g69
g55
NtRp3468
(dp3469
g58
(dp3470
sg67
g3098
sg60
(lp3471
g53
(g74
g55
NtRp3472
(dp3473
g58
(dp3474
g78
g79
ssg67
g3468
sg60
(lp3475
S'headers'
p3476
asbag53
(g74
g55
NtRp3477
(dp3478
g58
(dp3479
g85
g86
ssg67
g3468
sg60
(lp3480
S':'
asbag53
(g74
g55
NtRp3481
(dp3482
g58
(dp3483
sg67
g3468
sg60
(lp3484
g53
(g54
g55
NtRp3485
(dp3486
g58
(dp3487
g66
I5
ssg67
g3481
sg60
(lp3488
g53
(g62
g55
NtRp3489
(dp3490
g58
(dp3491
g66
I4
ssg67
Nsg60
(lp3492
g53
(g69
g55
NtRp3493
(dp3494
g58
(dp3495
sg67
g3489
sg60
(lp3496
g53
(g74
g55
NtRp3497
(dp3498
g58
(dp3499
g78
g79
ssg67
g3493
sg60
(lp3500
S'X-Powered-By'
p3501
asbag53
(g74
g55
NtRp3502
(dp3503
g58
(dp3504
g85
g86
ssg67
g3493
sg60
(lp3505
S':'
asbag53
(g74
g55
NtRp3506
(dp3507
g58
(dp3508
sg67
g3493
sg60
(lp3509
g53
(g54
g55
NtRp3510
(dp3511
g58
(dp3512
g66
I4
ssg67
g3506
sg60
(lp3513
S'web2py'
p3514
asbasbasbasbasbasbasbag53
(g69
g55
NtRp3515
(dp3516
g58
(dp3517
sg67
g3098
sg60
(lp3518
g53
(g74
g55
NtRp3519
(dp3520
g58
(dp3521
g78
g79
ssg67
g3515
sg60
(lp3522
S'logo'
p3523
asbag53
(g74
g55
NtRp3524
(dp3525
g58
(dp3526
g85
g86
ssg67
g3515
sg60
(lp3527
S':'
asbag53
(g74
g55
NtRp3528
(dp3529
g58
(dp3530
sg67
g3515
sg60
(lp3531
g53
(g54
g55
NtRp3532
(dp3533
g58
(dp3534
g66
I5
ssg67
g3528
sg60
(lp3535
g53
(cgluon.html
A
p3536
g55
NtRp3537
(dp3538
g58
(dp3539
S'_class'
p3540
S'brand'
p3541
sS'_href'
p3542
S'http://www.web2py.com/'
p3543
ssg67
Nsg60
(lp3544
g53
(cgluon.html
B
p3545
g55
NtRp3546
(dp3547
g58
(dp3548
sg67
g3537
sg60
(lp3549
S'web'
p3550
ag53
(cgluon.html
SPAN
p3551
g55
NtRp3552
(dp3553
g58
(dp3554
sg67
g3546
sg60
(lp3555
I2
asbaS'py'
p3556
asbacgluon.html
XML_unpickle
p3557
(S's\r\x00\x00\x00&trade;&nbsp;'
tRp3558
asbasbasbasbag53
(g69
g55
NtRp3559
(dp3560
g58
(dp3561
sg67
g3098
sg60
(lp3562
g53
(g74
g55
NtRp3563
(dp3564
g58
(dp3565
g78
g79
ssg67
g3559
sg60
(lp3566
S'menu'
p3567
asbag53
(g74
g55
NtRp3568
(dp3569
g58
(dp3570
g85
g86
ssg67
g3559
sg60
(lp3571
S':'
asbag53
(g74
g55
NtRp3572
(dp3573
g58
(dp3574
sg67
g3559
sg60
(lp3575
g53
(g54
g55
NtRp3576
(dp3577
g58
(dp3578
g66
I5
ssg67
g3572
sg60
(lp3579
g53
(g62
g55
NtRp3580
(dp3581
g58
(dp3582
g66
I4
ssg67
Nsg60
(lp3583
g53
(g69
g55
NtRp3584
(dp3585
g58
(dp3586
sg67
g3580
sg60
(lp3587
g53
(g74
g55
NtRp3588
(dp3589
g58
(dp3590
sg67
g3584
sg60
(lp3591
g53
(g54
g55
NtRp3592
(dp3593
g58
(dp3594
g66
I4
ssg67
g3588
sg60
(lp3595
g53
(g62
g55
NtRp3596
(dp3597
g58
(dp3598
g66
I3
ssg67
Nsg60
(lp3599
g53
(g69
g55
NtRp3600
(dp3601
g58
(dp3602
sg67
g3596
sg60
(lp3603
g53
(g74
g55
NtRp3604
(dp3605
g58
(dp3606
sg67
g3600
sg60
(lp3607
g53
(g54
g55
NtRp3608
(dp3609
g58
(dp3610
g66
I3
ssg67
g3604
sg60
(lp3611
cgluon.languages
lazyT_unpickle
p3612
(S't\x04\x00\x00\x00Home'
tRp3613
asbasbasbag53
(g69
g55
NtRp3614
(dp3615
g58
(dp3616
sg67
g3596
sg60
(lp3617
g53
(g74
g55
NtRp3618
(dp3619
g58
(dp3620
sg67
g3614
sg60
(lp3621
g53
(g54
g55
NtRp3622
(dp3623
g58
(dp3624
g66
I3
ssg67
g3618
sg60
(lp3625
g96
asbasbasbag53
(g69
g55
NtRp3626
(dp3627
g58
(dp3628
sg67
g3596
sg60
(lp3629
g53
(g74
g55
NtRp3630
(dp3631
g58
(dp3632
sg67
g3626
sg60
(lp3633
g53
(g54
g55
NtRp3634
(dp3635
g58
(dp3636
g66
I3
ssg67
g3630
sg60
(lp3637
S'/MR/default/index'
p3638
asbasbasbag53
(g69
g55
NtRp3639
(dp3640
g58
(dp3641
sg67
g3596
sg60
(lp3642
g53
(g74
g55
NtRp3643
(dp3644
g58
(dp3645
sg67
g3639
sg60
(lp3646
g53
(g54
g55
NtRp3647
(dp3648
g58
(dp3649
g66
I3
ssg67
g3643
sg60
(lp3650
g53
(g62
g55
NtRp3651
(dp3652
g58
(dp3653
g66
I2
ssg67
Nsg60
(lp3654
sbasbasbasbasbasbasbasbag53
(g69
g55
NtRp3655
(dp3656
g58
(dp3657
sg67
g3580
sg60
(lp3658
g53
(g74
g55
NtRp3659
(dp3660
g58
(dp3661
sg67
g3655
sg60
(lp3662
g53
(g54
g55
NtRp3663
(dp3664
g58
(dp3665
g66
I4
ssg67
g3659
sg60
(lp3666
g53
(g62
g55
NtRp3667
(dp3668
g58
(dp3669
g66
I3
ssg67
Nsg60
(lp3670
g53
(g69
g55
NtRp3671
(dp3672
g58
(dp3673
sg67
g3667
sg60
(lp3674
g53
(g74
g55
NtRp3675
(dp3676
g58
(dp3677
sg67
g3671
sg60
(lp3678
g53
(g54
g55
NtRp3679
(dp3680
g58
(dp3681
g66
I3
ssg67
g3675
sg60
(lp3682
g53
(g3551
g55
NtRp3683
(dp3684
g58
(dp3685
g3540
S'highlighted'
p3686
ssg67
Nsg60
(lp3687
g3514
asbasbasbasbag53
(g69
g55
NtRp3688
(dp3689
g58
(dp3690
sg67
g3667
sg60
(lp3691
g53
(g74
g55
NtRp3692
(dp3693
g58
(dp3694
sg67
g3688
sg60
(lp3695
g53
(g54
g55
NtRp3696
(dp3697
g58
(dp3698
g66
I3
ssg67
g3692
sg60
(lp3699
g96
asbasbasbag53
(g69
g55
NtRp3700
(dp3701
g58
(dp3702
sg67
g3667
sg60
(lp3703
g53
(g74
g55
NtRp3704
(dp3705
g58
(dp3706
sg67
g3700
sg60
(lp3707
g53
(g54
g55
NtRp3708
(dp3709
g58
(dp3710
g66
I3
ssg67
g3704
sg60
(lp3711
S'http://web2py.com'
p3712
asbasbasbag53
(g69
g55
NtRp3713
(dp3714
g58
(dp3715
sg67
g3667
sg60
(lp3716
g53
(g74
g55
NtRp3717
(dp3718
g58
(dp3719
sg67
g3713
sg60
(lp3720
g53
(g54
g55
NtRp3721
(dp3722
g58
(dp3723
g66
I3
ssg67
g3717
sg60
(lp3724
g53
(g62
g55
NtRp3725
(dp3726
g58
(dp3727
g66
I2
ssg67
Nsg60
(lp3728
g53
(g69
g55
NtRp3729
(dp3730
g58
(dp3731
sg67
g3725
sg60
(lp3732
g53
(g74
g55
NtRp3733
(dp3734
g58
(dp3735
sg67
g3729
sg60
(lp3736
g53
(g54
g55
NtRp3737
(dp3738
g58
(dp3739
g66
I2
ssg67
g3733
sg60
(lp3740
g53
(g62
g55
NtRp3741
(dp3742
g58
(dp3743
g66
I1
ssg67
Nsg60
(lp3744
g53
(g69
g55
NtRp3745
(dp3746
g58
(dp3747
sg67
g3741
sg60
(lp3748
g53
(g74
g55
NtRp3749
(dp3750
g58
(dp3751
sg67
g3745
sg60
(lp3752
g53
(g54
g55
NtRp3753
(dp3754
g58
(dp3755
g66
I1
ssg67
g3749
sg60
(lp3756
g3612
(S's\x08\x00\x00\x00My Sites'
tRp3757
asbasbasbag53
(g69
g55
NtRp3758
(dp3759
g58
(dp3760
sg67
g3741
sg60
(lp3761
g53
(g74
g55
NtRp3762
(dp3763
g58
(dp3764
sg67
g3758
sg60
(lp3765
g53
(g54
g55
NtRp3766
(dp3767
g58
(dp3768
g66
I1
ssg67
g3762
sg60
(lp3769
I00
asbasbasbag53
(g69
g55
NtRp3770
(dp3771
g58
(dp3772
sg67
g3741
sg60
(lp3773
g53
(g74
g55
NtRp3774
(dp3775
g58
(dp3776
sg67
g3770
sg60
(lp3777
g53
(g54
g55
NtRp3778
(dp3779
g58
(dp3780
g66
I1
ssg67
g3774
sg60
(lp3781
S'/admin/default/site'
p3782
asbasbasbasbasbasbasbag53
(g69
g55
NtRp3783
(dp3784
g58
(dp3785
sg67
g3725
sg60
(lp3786
g53
(g74
g55
NtRp3787
(dp3788
g58
(dp3789
sg67
g3783
sg60
(lp3790
g53
(g54
g55
NtRp3791
(dp3792
g58
(dp3793
g66
I2
ssg67
g3787
sg60
(lp3794
g53
(g62
g55
NtRp3795
(dp3796
g58
(dp3797
g66
I1
ssg67
Nsg60
(lp3798
g53
(g69
g55
NtRp3799
(dp3800
g58
(dp3801
sg67
g3795
sg60
(lp3802
g53
(g74
g55
NtRp3803
(dp3804
g58
(dp3805
sg67
g3799
sg60
(lp3806
g53
(g54
g55
NtRp3807
(dp3808
g58
(dp3809
g66
I1
ssg67
g3803
sg60
(lp3810
g3612
(S's\x08\x00\x00\x00This App'
tRp3811
asbasbasbag53
(g69
g55
NtRp3812
(dp3813
g58
(dp3814
sg67
g3795
sg60
(lp3815
g53
(g74
g55
NtRp3816
(dp3817
g58
(dp3818
sg67
g3812
sg60
(lp3819
g53
(g54
g55
NtRp3820
(dp3821
g58
(dp3822
g66
I1
ssg67
g3816
sg60
(lp3823
I00
asbasbasbag53
(g69
g55
NtRp3824
(dp3825
g58
(dp3826
sg67
g3795
sg60
(lp3827
g53
(g74
g55
NtRp3828
(dp3829
g58
(dp3830
sg67
g3824
sg60
(lp3831
g53
(g54
g55
NtRp3832
(dp3833
g58
(dp3834
g66
I1
ssg67
g3828
sg60
(lp3835
S'/admin/default/design/MR'
p3836
asbasbasbag53
(g69
g55
NtRp3837
(dp3838
g58
(dp3839
sg67
g3795
sg60
(lp3840
g53
(g74
g55
NtRp3841
(dp3842
g58
(dp3843
sg67
g3837
sg60
(lp3844
g53
(g54
g55
NtRp3845
(dp3846
g58
(dp3847
g66
I1
ssg67
g3841
sg60
(lp3848
(lp3849
(g3612
(S's\x06\x00\x00\x00\xe6\x8e\xa7\xe4\xbb\xb6'
tRp3850
I00
S'/admin/default/edit/MR/controllers/default.py'
tp3851
a(g3612
(S's\x06\x00\x00\x00\xe8\xa6\x96\xe5\x9c\x96'
tRp3852
I00
S'/admin/default/edit/MR/views/default/mobile_user_register.html'
tp3853
a(g3612
(S's\x0c\x00\x00\x00\xe7\xb6\xb2\xe9\xa0\x81\xe9\x85\x8d\xe7\xbd\xae'
tRp3854
I00
S'/admin/default/edit/MR/views/layout.html'
tp3855
a(g3612
(S's\x0f\x00\x00\x00\xe7\xb6\xb2\xe9\xa0\x81\xe9\xa2\xa8\xe6\xa0\xbc\xe6\xaa\x94'
tRp3856
I00
S'/admin/default/edit/MR/static/css/web2py.css'
tp3857
a(g3612
(S's\x0f\x00\x00\x00\xe8\xb3\x87\xe6\x96\x99\xe5\xba\xab\xe6\xa8\xa1\xe7\xb5\x84'
tRp3858
I00
S'/admin/default/edit/MR/models/db.py'
tp3859
a(g3612
(S's\x12\x00\x00\x00\xe9\x81\xb8\xe5\x96\xae\xe6\xa8\xa1\xe7\xb5\x84(menu)'
tRp3860
I00
S'/admin/default/edit/MR/models/menu.py'
tp3861
a(g3612
(S's\t\x00\x00\x00\xe8\xb3\x87\xe6\x96\x99\xe5\xba\xab'
tRp3862
I00
S'/MR/appadmin/index'
tp3863
a(g3612
(S't\x06\x00\x00\x00Errors'
tRp3864
I00
S'/admin/default/errors/MR'
tp3865
a(g3612
(S's\x06\x00\x00\x00\xe9\x97\x9c\xe6\x96\xbc'
tRp3866
I00
S'/admin/default/about/MR'
tp3867
aasbasbasbasbasbasbasbag53
(g69
g55
NtRp3868
(dp3869
g58
(dp3870
sg67
g3725
sg60
(lp3871
g53
(g74
g55
NtRp3872
(dp3873
g58
(dp3874
sg67
g3868
sg60
(lp3875
g53
(g54
g55
NtRp3876
(dp3877
g58
(dp3878
g66
I2
ssg67
g3872
sg60
(lp3879
g53
(g62
g55
NtRp3880
(dp3881
g58
(dp3882
g66
I1
ssg67
Nsg60
(lp3883
g53
(g69
g55
NtRp3884
(dp3885
g58
(dp3886
sg67
g3880
sg60
(lp3887
g53
(g74
g55
NtRp3888
(dp3889
g58
(dp3890
sg67
g3884
sg60
(lp3891
g53
(g54
g55
NtRp3892
(dp3893
g58
(dp3894
g66
I1
ssg67
g3888
sg60
(lp3895
S'web2py.com'
p3896
asbasbasbag53
(g69
g55
NtRp3897
(dp3898
g58
(dp3899
sg67
g3880
sg60
(lp3900
g53
(g74
g55
NtRp3901
(dp3902
g58
(dp3903
sg67
g3897
sg60
(lp3904
g53
(g54
g55
NtRp3905
(dp3906
g58
(dp3907
g66
I1
ssg67
g3901
sg60
(lp3908
I00
asbasbasbag53
(g69
g55
NtRp3909
(dp3910
g58
(dp3911
sg67
g3880
sg60
(lp3912
g53
(g74
g55
NtRp3913
(dp3914
g58
(dp3915
sg67
g3909
sg60
(lp3916
g53
(g54
g55
NtRp3917
(dp3918
g58
(dp3919
g66
I1
ssg67
g3913
sg60
(lp3920
S'http://www.web2py.com'
p3921
asbasbasbag53
(g69
g55
NtRp3922
(dp3923
g58
(dp3924
sg67
g3880
sg60
(lp3925
g53
(g74
g55
NtRp3926
(dp3927
g58
(dp3928
sg67
g3922
sg60
(lp3929
g53
(g54
g55
NtRp3930
(dp3931
g58
(dp3932
g66
I1
ssg67
g3926
sg60
(lp3933
(lp3934
(g3612
(S't\x08\x00\x00\x00Download'
tRp3935
I00
S'http://www.web2py.com/examples/default/download'
p3936
tp3937
a(g3612
(S't\x07\x00\x00\x00Support'
tRp3938
I00
S'http://www.web2py.com/examples/default/support'
p3939
tp3940
a(g3612
(S't\x04\x00\x00\x00Demo'
tRp3941
I00
S'http://web2py.com/demo_admin'
p3942
tp3943
a(g3612
(S's\x0e\x00\x00\x00Quick Examples'
tRp3944
I00
S'http://web2py.com/examples/default/examples'
p3945
tp3946
a(g3612
(S't\x03\x00\x00\x00FAQ'
tRp3947
I00
S'http://web2py.com/AlterEgo'
p3948
tp3949
a(g3612
(S't\x06\x00\x00\x00Videos'
tRp3950
I00
S'http://www.web2py.com/examples/default/videos/'
p3951
tp3952
a(g3612
(S's\x11\x00\x00\x00Free Applications'
tRp3953
I00
S'http://web2py.com/appliances'
p3954
tp3955
a(g3612
(S't\x07\x00\x00\x00Plugins'
tRp3956
I00
S'http://web2py.com/plugins'
p3957
tp3958
a(g3612
(S't\x07\x00\x00\x00Layouts'
tRp3959
I00
S'http://web2py.com/layouts'
p3960
tp3961
a(g3612
(S't\x07\x00\x00\x00Recipes'
tRp3962
I00
S'http://web2pyslices.com/'
p3963
tp3964
a(g3612
(S't\x08\x00\x00\x00Semantic'
tRp3965
I00
S'http://web2py.com/semantic'
p3966
tp3967
aasbasbasbasbasbasbasbag53
(g69
g55
NtRp3968
(dp3969
g58
(dp3970
sg67
g3725
sg60
(lp3971
g53
(g74
g55
NtRp3972
(dp3973
g58
(dp3974
sg67
g3968
sg60
(lp3975
g53
(g54
g55
NtRp3976
(dp3977
g58
(dp3978
g66
I2
ssg67
g3972
sg60
(lp3979
g53
(g62
g55
NtRp3980
(dp3981
g58
(dp3982
g66
I1
ssg67
Nsg60
(lp3983
g53
(g69
g55
NtRp3984
(dp3985
g58
(dp3986
sg67
g3980
sg60
(lp3987
g53
(g74
g55
NtRp3988
(dp3989
g58
(dp3990
sg67
g3984
sg60
(lp3991
g53
(g54
g55
NtRp3992
(dp3993
g58
(dp3994
g66
I1
ssg67
g3988
sg60
(lp3995
g3612
(S't\r\x00\x00\x00Documentation'
tRp3996
asbasbasbag53
(g69
g55
NtRp3997
(dp3998
g58
(dp3999
sg67
g3980
sg60
(lp4000
g53
(g74
g55
NtRp4001
(dp4002
g58
(dp4003
sg67
g3997
sg60
(lp4004
g53
(g54
g55
NtRp4005
(dp4006
g58
(dp4007
g66
I1
ssg67
g4001
sg60
(lp4008
I00
asbasbasbag53
(g69
g55
NtRp4009
(dp4010
g58
(dp4011
sg67
g3980
sg60
(lp4012
g53
(g74
g55
NtRp4013
(dp4014
g58
(dp4015
sg67
g4009
sg60
(lp4016
g53
(g54
g55
NtRp4017
(dp4018
g58
(dp4019
g66
I1
ssg67
g4013
sg60
(lp4020
S'http://www.web2py.com/book'
p4021
asbasbasbag53
(g69
g55
NtRp4022
(dp4023
g58
(dp4024
sg67
g3980
sg60
(lp4025
g53
(g74
g55
NtRp4026
(dp4027
g58
(dp4028
sg67
g4022
sg60
(lp4029
g53
(g54
g55
NtRp4030
(dp4031
g58
(dp4032
g66
I1
ssg67
g4026
sg60
(lp4033
(lp4034
(g3612
(S't\x07\x00\x00\x00Preface'
tRp4035
I00
S'http://www.web2py.com/book/default/chapter/00'
p4036
tp4037
a(g3612
(S't\x0c\x00\x00\x00Introduction'
tRp4038
I00
S'http://www.web2py.com/book/default/chapter/01'
p4039
tp4040
a(g3612
(S't\x06\x00\x00\x00Python'
tRp4041
I00
S'http://www.web2py.com/book/default/chapter/02'
p4042
tp4043
a(g3612
(S't\x08\x00\x00\x00Overview'
tRp4044
I00
S'http://www.web2py.com/book/default/chapter/03'
p4045
tp4046
a(g3612
(S's\x08\x00\x00\x00The Core'
tRp4047
I00
S'http://www.web2py.com/book/default/chapter/04'
p4048
tp4049
a(g3612
(S's\t\x00\x00\x00The Views'
tRp4050
I00
S'http://www.web2py.com/book/default/chapter/05'
p4051
tp4052
a(g3612
(S's\t\x00\x00\x00\xe8\xb3\x87\xe6\x96\x99\xe5\xba\xab'
tRp4053
I00
S'http://www.web2py.com/book/default/chapter/06'
p4054
tp4055
a(g3612
(S's\x14\x00\x00\x00Forms and Validators'
tRp4056
I00
S'http://www.web2py.com/book/default/chapter/07'
p4057
tp4058
a(g3612
(S's\r\x00\x00\x00Email and SMS'
tRp4059
I00
S'http://www.web2py.com/book/default/chapter/08'
p4060
tp4061
a(g3612
(S's\x0e\x00\x00\x00Access Control'
tRp4062
I00
S'http://www.web2py.com/book/default/chapter/09'
p4063
tp4064
a(g3612
(S't\x08\x00\x00\x00Services'
tRp4065
I00
S'http://www.web2py.com/book/default/chapter/10'
p4066
tp4067
a(g3612
(S's\x0c\x00\x00\x00Ajax Recipes'
tRp4068
I00
S'http://www.web2py.com/book/default/chapter/11'
p4069
tp4070
a(g3612
(S's\x16\x00\x00\x00Components and Plugins'
tRp4071
I00
S'http://www.web2py.com/book/default/chapter/12'
p4072
tp4073
a(g3612
(S's\x12\x00\x00\x00Deployment Recipes'
tRp4074
I00
S'http://www.web2py.com/book/default/chapter/13'
p4075
tp4076
a(g3612
(S's\r\x00\x00\x00Other Recipes'
tRp4077
I00
S'http://www.web2py.com/book/default/chapter/14'
p4078
tp4079
a(g3612
(S's\r\x00\x00\x00Buy this book'
tRp4080
I00
S'http://stores.lulu.com/web2py'
p4081
tp4082
aasbasbasbasbasbasbasbag53
(g69
g55
NtRp4083
(dp4084
g58
(dp4085
sg67
g3725
sg60
(lp4086
g53
(g74
g55
NtRp4087
(dp4088
g58
(dp4089
sg67
g4083
sg60
(lp4090
g53
(g54
g55
NtRp4091
(dp4092
g58
(dp4093
g66
I2
ssg67
g4087
sg60
(lp4094
g53
(g62
g55
NtRp4095
(dp4096
g58
(dp4097
g66
I1
ssg67
Nsg60
(lp4098
g53
(g69
g55
NtRp4099
(dp4100
g58
(dp4101
sg67
g4095
sg60
(lp4102
g53
(g74
g55
NtRp4103
(dp4104
g58
(dp4105
sg67
g4099
sg60
(lp4106
g53
(g54
g55
NtRp4107
(dp4108
g58
(dp4109
g66
I1
ssg67
g4103
sg60
(lp4110
g3612
(S't\t\x00\x00\x00Community'
tRp4111
asbasbasbag53
(g69
g55
NtRp4112
(dp4113
g58
(dp4114
sg67
g4095
sg60
(lp4115
g53
(g74
g55
NtRp4116
(dp4117
g58
(dp4118
sg67
g4112
sg60
(lp4119
g53
(g54
g55
NtRp4120
(dp4121
g58
(dp4122
g66
I1
ssg67
g4116
sg60
(lp4123
I00
asbasbasbag53
(g69
g55
NtRp4124
(dp4125
g58
(dp4126
sg67
g4095
sg60
(lp4127
g53
(g74
g55
NtRp4128
(dp4129
g58
(dp4130
sg67
g4124
sg60
(lp4131
g53
(g54
g55
NtRp4132
(dp4133
g58
(dp4134
g66
I1
ssg67
g4128
sg60
(lp4135
Nasbasbasbag53
(g69
g55
NtRp4136
(dp4137
g58
(dp4138
sg67
g4095
sg60
(lp4139
g53
(g74
g55
NtRp4140
(dp4141
g58
(dp4142
sg67
g4136
sg60
(lp4143
g53
(g54
g55
NtRp4144
(dp4145
g58
(dp4146
g66
I1
ssg67
g4140
sg60
(lp4147
(lp4148
(g3612
(S't\x06\x00\x00\x00Groups'
tRp4149
I00
S'http://www.web2py.com/examples/default/usergroups'
p4150
tp4151
a(g3612
(S't\x07\x00\x00\x00Twitter'
tRp4152
I00
S'http://twitter.com/web2py'
p4153
tp4154
a(g3612
(S's\t\x00\x00\x00Live Chat'
tRp4155
I00
S'http://webchat.freenode.net/?channels=web2py'
p4156
tp4157
aasbasbasbasbasbasbasbag53
(g69
g55
NtRp4158
(dp4159
g58
(dp4160
sg67
g3725
sg60
(lp4161
g53
(g74
g55
NtRp4162
(dp4163
g58
(dp4164
sg67
g4158
sg60
(lp4165
g53
(g54
g55
NtRp4166
(dp4167
g58
(dp4168
g66
I2
ssg67
g4162
sg60
(lp4169
g53
(g62
g55
NtRp4170
(dp4171
g58
(dp4172
g66
I1
ssg67
Nsg60
(lp4173
g53
(g69
g55
NtRp4174
(dp4175
g58
(dp4176
sg67
g4170
sg60
(lp4177
g53
(g74
g55
NtRp4178
(dp4179
g58
(dp4180
sg67
g4174
sg60
(lp4181
g53
(g54
g55
NtRp4182
(dp4183
g58
(dp4184
g66
I1
ssg67
g4178
sg60
(lp4185
g3612
(S't\x07\x00\x00\x00Plugins'
tRp4186
asbasbasbag53
(g69
g55
NtRp4187
(dp4188
g58
(dp4189
sg67
g4170
sg60
(lp4190
g53
(g74
g55
NtRp4191
(dp4192
g58
(dp4193
sg67
g4187
sg60
(lp4194
g53
(g54
g55
NtRp4195
(dp4196
g58
(dp4197
g66
I1
ssg67
g4191
sg60
(lp4198
I00
asbasbasbag53
(g69
g55
NtRp4199
(dp4200
g58
(dp4201
sg67
g4170
sg60
(lp4202
g53
(g74
g55
NtRp4203
(dp4204
g58
(dp4205
sg67
g4199
sg60
(lp4206
g53
(g54
g55
NtRp4207
(dp4208
g58
(dp4209
g66
I1
ssg67
g4203
sg60
(lp4210
Nasbasbasbag53
(g69
g55
NtRp4211
(dp4212
g58
(dp4213
sg67
g4170
sg60
(lp4214
g53
(g74
g55
NtRp4215
(dp4216
g58
(dp4217
sg67
g4211
sg60
(lp4218
g53
(g54
g55
NtRp4219
(dp4220
g58
(dp4221
g66
I1
ssg67
g4215
sg60
(lp4222
(lp4223
(S'plugin_wiki'
p4224
I00
S'http://web2py.com/examples/default/download'
p4225
tp4226
a(g3612
(S's\r\x00\x00\x00Other Plugins'
tRp4227
I00
g3957
tp4228
a(g3612
(S's\x0e\x00\x00\x00Layout Plugins'
tRp4229
I00
g3960
tp4230
aasbasbasbasbasbasbasbasbasbasbasbasbasbasbasbasbasbasbasbag53
(g69
g55
NtRp4231
(dp4232
g58
(dp4233
sg67
g3098
sg60
(lp4234
g53
(g74
g55
NtRp4235
(dp4236
g58
(dp4237
g78
g79
ssg67
g4231
sg60
(lp4238
S'meta'
p4239
asbag53
(g74
g55
NtRp4240
(dp4241
g58
(dp4242
g85
g86
ssg67
g4231
sg60
(lp4243
S':'
asbag53
(g74
g55
NtRp4244
(dp4245
g58
(dp4246
sg67
g4231
sg60
(lp4247
g53
(g54
g55
NtRp4248
(dp4249
g58
(dp4250
g66
I5
ssg67
g4244
sg60
(lp4251
g53
(g62
g55
NtRp4252
(dp4253
g58
(dp4254
g66
I4
ssg67
Nsg60
(lp4255
g53
(g69
g55
NtRp4256
(dp4257
g58
(dp4258
sg67
g4252
sg60
(lp4259
g53
(g74
g55
NtRp4260
(dp4261
g58
(dp4262
g78
g79
ssg67
g4256
sg60
(lp4263
S'author'
p4264
asbag53
(g74
g55
NtRp4265
(dp4266
g58
(dp4267
g85
g86
ssg67
g4256
sg60
(lp4268
S':'
asbag53
(g74
g55
NtRp4269
(dp4270
g58
(dp4271
sg67
g4256
sg60
(lp4272
g53
(g54
g55
NtRp4273
(dp4274
g58
(dp4275
g66
I4
ssg67
g4269
sg60
(lp4276
S'Your Name <you@example.com>'
p4277
asbasbasbag53
(g69
g55
NtRp4278
(dp4279
g58
(dp4280
sg67
g4252
sg60
(lp4281
g53
(g74
g55
NtRp4282
(dp4283
g58
(dp4284
g78
g79
ssg67
g4278
sg60
(lp4285
S'description'
p4286
asbag53
(g74
g55
NtRp4287
(dp4288
g58
(dp4289
g85
g86
ssg67
g4278
sg60
(lp4290
S':'
asbag53
(g74
g55
NtRp4291
(dp4292
g58
(dp4293
sg67
g4278
sg60
(lp4294
g53
(g54
g55
NtRp4295
(dp4296
g58
(dp4297
g66
I4
ssg67
g4291
sg60
(lp4298
S'a cool new app'
p4299
asbasbasbag53
(g69
g55
NtRp4300
(dp4301
g58
(dp4302
sg67
g4252
sg60
(lp4303
g53
(g74
g55
NtRp4304
(dp4305
g58
(dp4306
g78
g79
ssg67
g4300
sg60
(lp4307
S'generator'
p4308
asbag53
(g74
g55
NtRp4309
(dp4310
g58
(dp4311
g85
g86
ssg67
g4300
sg60
(lp4312
S':'
asbag53
(g74
g55
NtRp4313
(dp4314
g58
(dp4315
sg67
g4300
sg60
(lp4316
g53
(g54
g55
NtRp4317
(dp4318
g58
(dp4319
g66
I4
ssg67
g4313
sg60
(lp4320
S'Web2py Web Framework'
p4321
asbasbasbag53
(g69
g55
NtRp4322
(dp4323
g58
(dp4324
sg67
g4252
sg60
(lp4325
g53
(g74
g55
NtRp4326
(dp4327
g58
(dp4328
g78
g79
ssg67
g4322
sg60
(lp4329
S'keywords'
p4330
asbag53
(g74
g55
NtRp4331
(dp4332
g58
(dp4333
g85
g86
ssg67
g4322
sg60
(lp4334
S':'
asbag53
(g74
g55
NtRp4335
(dp4336
g58
(dp4337
sg67
g4322
sg60
(lp4338
g53
(g54
g55
NtRp4339
(dp4340
g58
(dp4341
g66
I4
ssg67
g4335
sg60
(lp4342
S'web2py, python, framework'
p4343
asbasbasbasbasbasbasbag53
(g69
g55
NtRp4344
(dp4345
g58
(dp4346
sg67
g3098
sg60
(lp4347
g53
(g74
g55
NtRp4348
(dp4349
g58
(dp4350
g78
g79
ssg67
g4344
sg60
(lp4351
S'models_to_run'
p4352
asbag53
(g74
g55
NtRp4353
(dp4354
g58
(dp4355
g85
g86
ssg67
g4344
sg60
(lp4356
S':'
asbag53
(g74
g55
NtRp4357
(dp4358
g58
(dp4359
sg67
g4344
sg60
(lp4360
g53
(g54
g55
NtRp4361
(dp4362
g58
(dp4363
g66
I5
ssg67
g4357
sg60
(lp4364
g53
(g62
g55
NtRp4365
(dp4366
g58
(dp4367
g66
I4
ssg67
Nsg60
(lp4368
g53
(g69
g55
NtRp4369
(dp4370
g58
(dp4371
sg67
g4365
sg60
(lp4372
g53
(g74
g55
NtRp4373
(dp4374
g58
(dp4375
sg67
g4369
sg60
(lp4376
g53
(g54
g55
NtRp4377
(dp4378
g58
(dp4379
g66
I4
ssg67
g4373
sg60
(lp4380
S'^\\w+\\.py$'
p4381
asbasbasbag53
(g69
g55
NtRp4382
(dp4383
g58
(dp4384
sg67
g4365
sg60
(lp4385
g53
(g74
g55
NtRp4386
(dp4387
g58
(dp4388
sg67
g4382
sg60
(lp4389
g53
(g54
g55
NtRp4390
(dp4391
g58
(dp4392
g66
I4
ssg67
g4386
sg60
(lp4393
S'^default/\\w+\\.py$'
p4394
asbasbasbag53
(g69
g55
NtRp4395
(dp4396
g58
(dp4397
sg67
g4365
sg60
(lp4398
g53
(g74
g55
NtRp4399
(dp4400
g58
(dp4401
sg67
g4395
sg60
(lp4402
g53
(g54
g55
NtRp4403
(dp4404
g58
(dp4405
g66
I4
ssg67
g4399
sg60
(lp4406
S'^default/mobile_user_register/\\w+\\.py$'
p4407
asbasbasbasbasbasbasbag53
(g69
g55
NtRp4408
(dp4409
g58
(dp4410
sg67
g3098
sg60
(lp4411
g53
(g74
g55
NtRp4412
(dp4413
g58
(dp4414
g78
g79
ssg67
g4408
sg60
(lp4415
S'postprocessing'
p4416
asbag53
(g74
g55
NtRp4417
(dp4418
g58
(dp4419
g85
g86
ssg67
g4408
sg60
(lp4420
S':'
asbag53
(g74
g55
NtRp4421
(dp4422
g58
(dp4423
sg67
g4408
sg60
(lp4424
g53
(g54
g55
NtRp4425
(dp4426
g58
(dp4427
g66
I5
ssg67
g4421
sg60
(lp4428
g53
(g62
g55
NtRp4429
(dp4430
g58
(dp4431
g66
I4
ssg67
Nsg60
(lp4432
sbasbasbasbag53
(g69
g55
NtRp4433
(dp4434
g58
(dp4435
sg67
g3098
sg60
(lp4436
g53
(g74
g55
NtRp4437
(dp4438
g58
(dp4439
g78
g79
ssg67
g4433
sg60
(lp4440
S'session_cookie_expires'
p4441
asbag53
(g74
g55
NtRp4442
(dp4443
g58
(dp4444
g85
g86
ssg67
g4433
sg60
(lp4445
S':'
asbag53
(g74
g55
NtRp4446
(dp4447
g58
(dp4448
sg67
g4433
sg60
(lp4449
g53
(g54
g55
NtRp4450
(dp4451
g58
(dp4452
g66
I5
ssg67
g4446
sg60
(lp4453
S'None'
p4454
asbasbasbag53
(g69
g55
NtRp4455
(dp4456
g58
(dp4457
sg67
g3098
sg60
(lp4458
g53
(g74
g55
NtRp4459
(dp4460
g58
(dp4461
g78
g79
ssg67
g4455
sg60
(lp4462
S'session_data_name'
p4463
asbag53
(g74
g55
NtRp4464
(dp4465
g58
(dp4466
g85
g86
ssg67
g4455
sg60
(lp4467
S':'
asbag53
(g74
g55
NtRp4468
(dp4469
g58
(dp4470
sg67
g4455
sg60
(lp4471
g53
(g54
g55
NtRp4472
(dp4473
g58
(dp4474
g66
I5
ssg67
g4468
sg60
(lp4475
S'session_data_mr'
p4476
asbasbasbag53
(g69
g55
NtRp4477
(dp4478
g58
(dp4479
sg67
g3098
sg60
(lp4480
g53
(g74
g55
NtRp4481
(dp4482
g58
(dp4483
g78
g79
ssg67
g4477
sg60
(lp4484
S'session_file'
p4485
asbag53
(g74
g55
NtRp4486
(dp4487
g58
(dp4488
g85
g86
ssg67
g4477
sg60
(lp4489
S':'
asbag53
(g74
g55
NtRp4490
(dp4491
g58
(dp4492
sg67
g4477
sg60
(lp4493
g53
(g54
g55
NtRp4494
(dp4495
g58
(dp4496
g66
I5
ssg67
g4490
sg60
(lp4497
S'None'
p4498
asbasbasbag53
(g69
g55
NtRp4499
(dp4500
g58
(dp4501
sg67
g3098
sg60
(lp4502
g53
(g74
g55
NtRp4503
(dp4504
g58
(dp4505
g78
g79
ssg67
g4499
sg60
(lp4506
S'session_filename'
p4507
asbag53
(g74
g55
NtRp4508
(dp4509
g58
(dp4510
g85
g86
ssg67
g4499
sg60
(lp4511
S':'
asbag53
(g74
g55
NtRp4512
(dp4513
g58
(dp4514
sg67
g4499
sg60
(lp4515
g53
(g54
g55
NtRp4516
(dp4517
g58
(dp4518
g66
I5
ssg67
g4512
sg60
(lp4519
S'/Applications/web2py.app/Contents/Resources/applications/MR/sessions/127.0.0.1-01c54a64-3e63-47a8-a67b-a7e1fee963a1'
p4520
asbasbasbag53
(g69
g55
NtRp4521
(dp4522
g58
(dp4523
sg67
g3098
sg60
(lp4524
g53
(g74
g55
NtRp4525
(dp4526
g58
(dp4527
g78
g79
ssg67
g4521
sg60
(lp4528
S'session_id'
p4529
asbag53
(g74
g55
NtRp4530
(dp4531
g58
(dp4532
g85
g86
ssg67
g4521
sg60
(lp4533
S':'
asbag53
(g74
g55
NtRp4534
(dp4535
g58
(dp4536
sg67
g4521
sg60
(lp4537
g53
(g54
g55
NtRp4538
(dp4539
g58
(dp4540
g66
I5
ssg67
g4534
sg60
(lp4541
g277
asbasbasbag53
(g69
g55
NtRp4542
(dp4543
g58
(dp4544
sg67
g3098
sg60
(lp4545
g53
(g74
g55
NtRp4546
(dp4547
g58
(dp4548
g78
g79
ssg67
g4542
sg60
(lp4549
S'session_id_name'
p4550
asbag53
(g74
g55
NtRp4551
(dp4552
g58
(dp4553
g85
g86
ssg67
g4542
sg60
(lp4554
S':'
asbag53
(g74
g55
NtRp4555
(dp4556
g58
(dp4557
sg67
g4542
sg60
(lp4558
g53
(g54
g55
NtRp4559
(dp4560
g58
(dp4561
g66
I5
ssg67
g4555
sg60
(lp4562
g3155
asbasbasbag53
(g69
g55
NtRp4563
(dp4564
g58
(dp4565
sg67
g3098
sg60
(lp4566
g53
(g74
g55
NtRp4567
(dp4568
g58
(dp4569
g78
g79
ssg67
g4563
sg60
(lp4570
S'session_new'
p4571
asbag53
(g74
g55
NtRp4572
(dp4573
g58
(dp4574
g85
g86
ssg67
g4563
sg60
(lp4575
S':'
asbag53
(g74
g55
NtRp4576
(dp4577
g58
(dp4578
sg67
g4563
sg60
(lp4579
g53
(g54
g55
NtRp4580
(dp4581
g58
(dp4582
g66
I5
ssg67
g4576
sg60
(lp4583
g96
asbasbasbag53
(g69
g55
NtRp4584
(dp4585
g58
(dp4586
sg67
g3098
sg60
(lp4587
g53
(g74
g55
NtRp4588
(dp4589
g58
(dp4590
g78
g79
ssg67
g4584
sg60
(lp4591
S'session_storage_type'
p4592
asbag53
(g74
g55
NtRp4593
(dp4594
g58
(dp4595
g85
g86
ssg67
g4584
sg60
(lp4596
S':'
asbag53
(g74
g55
NtRp4597
(dp4598
g58
(dp4599
sg67
g4584
sg60
(lp4600
g53
(g54
g55
NtRp4601
(dp4602
g58
(dp4603
g66
I5
ssg67
g4597
sg60
(lp4604
g3014
asbasbasbag53
(g69
g55
NtRp4605
(dp4606
g58
(dp4607
sg67
g3098
sg60
(lp4608
g53
(g74
g55
NtRp4609
(dp4610
g58
(dp4611
g78
g79
ssg67
g4605
sg60
(lp4612
S'status'
p4613
asbag53
(g74
g55
NtRp4614
(dp4615
g58
(dp4616
g85
g86
ssg67
g4605
sg60
(lp4617
S':'
asbag53
(g74
g55
NtRp4618
(dp4619
g58
(dp4620
sg67
g4605
sg60
(lp4621
g53
(g54
g55
NtRp4622
(dp4623
g58
(dp4624
g66
I5
ssg67
g4618
sg60
(lp4625
S'200'
p4626
asbasbasbag53
(g69
g55
NtRp4627
(dp4628
g58
(dp4629
sg67
g3098
sg60
(lp4630
g53
(g74
g55
NtRp4631
(dp4632
g58
(dp4633
g78
g79
ssg67
g4627
sg60
(lp4634
S'subtitle'
p4635
asbag53
(g74
g55
NtRp4636
(dp4637
g58
(dp4638
g85
g86
ssg67
g4627
sg60
(lp4639
S':'
asbag53
(g74
g55
NtRp4640
(dp4641
g58
(dp4642
sg67
g4627
sg60
(lp4643
g53
(g54
g55
NtRp4644
(dp4645
g58
(dp4646
g66
I5
ssg67
g4640
sg60
(lp4647
g3612
(S's\r\x00\x00\x00\xe8\xab\x8b\xe8\xaa\xbf\xe6\x95\xb4\xe6\x88\x91!'
tRp4648
asbasbasbag53
(g69
g55
NtRp4649
(dp4650
g58
(dp4651
sg67
g3098
sg60
(lp4652
g53
(g74
g55
NtRp4653
(dp4654
g58
(dp4655
g78
g79
ssg67
g4649
sg60
(lp4656
S'title'
p4657
asbag53
(g74
g55
NtRp4658
(dp4659
g58
(dp4660
g85
g86
ssg67
g4649
sg60
(lp4661
S':'
asbag53
(g74
g55
NtRp4662
(dp4663
g58
(dp4664
sg67
g4649
sg60
(lp4665
g53
(g54
g55
NtRp4666
(dp4667
g58
(dp4668
g66
I5
ssg67
g4662
sg60
(lp4669
S'Mr'
p4670
asbasbasbag53
(g69
g55
NtRp4671
(dp4672
g58
(dp4673
sg67
g3098
sg60
(lp4674
g53
(g74
g55
NtRp4675
(dp4676
g58
(dp4677
g78
g79
ssg67
g4671
sg60
(lp4678
S'view'
p4679
asbag53
(g74
g55
NtRp4680
(dp4681
g58
(dp4682
g85
g86
ssg67
g4671
sg60
(lp4683
S':'
asbag53
(g74
g55
NtRp4684
(dp4685
g58
(dp4686
sg67
g4671
sg60
(lp4687
g53
(g54
g55
NtRp4688
(dp4689
g58
(dp4690
g66
I5
ssg67
g4684
sg60
(lp4691
S'default/mobile_user_register.html'
p4692
asbasbasbasbasbsS'locals'
p4693
(dp4694
S'query'
p4695
S'"INSERT INTO mobile_user(first_name,last_name,cou...dsasdfasdff\',\'05c12a287334386c94131ab8aa00d08a\');"'
p4696
sS'self'
p4697
S'<gluon.dal.SQLiteAdapter object at 0x7899470>'
p4698
sS'e'
S"IntegrityError('column user_name is not unique',)"
p4699
sS'fields'
p4700
S"[(<gluon.dal.Field object at 0x8aab150>, 'asdf'), (<gluon.dal.Field object at 0x8aab210>, 'asdf'), (<gluon.dal.Field object at 0x8aab310>, None), (<gluon.dal.Field object at 0x8aab070>, <gluon.validators.LazyCrypt object at 0x8aab7d0>), (<gluon.dal.Field object at 0x8a7d5f0>, ''), (<gluon.dal.Field object at 0x8a7da30>, 'adsasdfasdff'), (<gluon.dal.Field object at 0x8aab270>, '05c12a287334386c94131ab8aa00d08a')]"
p4701
sS'table'
p4702
S'<Table mobile_user (id,email,user_name,password,first_name,last_name,md5,country)>'
p4703
sssS'traceback'
p4704
S'Traceback (most recent call last):\n  File "/home/mdipierro/web2py/gluon/restricted.py", line 212, in restricted\n  File "/Applications/web2py.app/Contents/Resources/applications/MR/controllers/default.py", line 93, in <module>\n  File "/home/mdipierro/web2py/gluon/globals.py", line 193, in <lambda>\n  File "/Applications/web2py.app/Contents/Resources/applications/MR/controllers/default.py", line 62, in mobile_user_register\n  File "/home/mdipierro/web2py/gluon/dal.py", line 8112, in validate_and_insert\n  File "/home/mdipierro/web2py/gluon/dal.py", line 8095, in insert\n  File "/home/mdipierro/web2py/gluon/dal.py", line 1176, in insert\nIntegrityError: column user_name is not unique\n'
p4705
s.