(dp1
S'output'
p2
S"<type 'exceptions.NameError'> name 'length' is not defined"
p3
sS'layer'
p4
S'/Applications/web2py.app/Contents/Resources/applications/MR/models/mobile_user.py'
p5
sS'code'
p6
S"# coding: utf8\ndb.define_table('patient',\n    Field('email', length=128,label=T('Email'), default='', unique=True),\n    #Field('user_name', length=128, label=T('User name'), default='', unique=True, \n    #    requires=IS_NOT_IN_DB(db, 'auth_user.user_name')\n    #),\n    Field('password', 'password', readable=False, label=T('Password'),\n        requires=CRYPT()\n    ),\n    Field('first_name', length=128, label=T('First name'), default='',\n        requires=(IS_NOT_EMPTY(error_message=auth.messages.is_empty),\n        IS_NOT_IN_DB(db, 'auth_user.first_name'))\n    ),\n    Field('middle_name', length-128, label=T('Middle name'), default=''),\n    Field('last_name', length=128, label=T('Last name'), default='',\n        requires=(IS_NOT_EMPTY(error_message=auth.messages.is_empty),\n        IS_NOT_IN_DB(db, 'auth_user.last_name'))\n    ),\n    Field('md5', length=128, default='', writable=False, readable=False),\n    Field('country', 'string', length=15, label=T('Country'),\n        requires=IS_NULL_OR(IS_IN_SET('US','CHINA'))\n    ),\n)\n\n\ndb.define_table('doctor',\n    Field('email', length=128,label=T('Email'), default='', unique=True),\n    #Field('user_name', length=128, label=T('User name'), default='', unique=True, \n    #    requires=IS_NOT_IN_DB(db, 'auth_user.user_name')\n    #),\n    Field('password', 'password', readable=False, label=T('Password'),\n        requires=CRYPT()\n    ),\n    Field('first_name', length=128, label=T('First name'), default='',\n        requires=(IS_NOT_EMPTY(error_message=auth.messages.is_empty),\n        IS_NOT_IN_DB(db, 'auth_user.first_name'))\n    ),\n    Field('middle_name', length-128, label=T('Middle name'), default=''),\n    Field('last_name', length=128, label=T('Last name'), default='',\n        requires=(IS_NOT_EMPTY(error_message=auth.messages.is_empty),\n        IS_NOT_IN_DB(db, 'auth_user.last_name'))\n    ),\n    Field('md5', length=128, default='', writable=False, readable=False),\n    Field('country', 'string', length=15, label=T('Country'),\n        requires=IS_NULL_OR(IS_IN_SET('US','CHINA'))\n    ),\n)\n"
p7
sS'snapshot'
p8
(dp9
S'exception'
p10
(dp11
S'__hash__'
p12
S"<method-wrapper '__hash__' of exceptions.NameError object at 0x8baa4b8>"
p13
sS'__setattr__'
p14
S"<method-wrapper '__setattr__' of exceptions.NameError object at 0x8baa4b8>"
p15
sS'__reduce_ex__'
p16
S'<built-in method __reduce_ex__ of exceptions.NameError object at 0x8baa4b8>'
p17
sS'__getslice__'
p18
S"<method-wrapper '__getslice__' of exceptions.NameError object at 0x8baa4b8>"
p19
sS'__getitem__'
p20
S"<method-wrapper '__getitem__' of exceptions.NameError object at 0x8baa4b8>"
p21
sS'__setstate__'
p22
S'<built-in method __setstate__ of exceptions.NameError object at 0x8baa4b8>'
p23
sS'__reduce__'
p24
S'<built-in method __reduce__ of exceptions.NameError object at 0x8baa4b8>'
p25
sS'__str__'
p26
S"<method-wrapper '__str__' of exceptions.NameError object at 0x8baa4b8>"
p27
sS'args'
p28
S'("name \'length\' is not defined",)'
p29
sS'__getattribute__'
p30
S"<method-wrapper '__getattribute__' of exceptions.NameError object at 0x8baa4b8>"
p31
sS'__class__'
p32
S"<type 'exceptions.NameError'>"
p33
sS'__delattr__'
p34
S"<method-wrapper '__delattr__' of exceptions.NameError object at 0x8baa4b8>"
p35
sS'__repr__'
p36
S"<method-wrapper '__repr__' of exceptions.NameError object at 0x8baa4b8>"
p37
sS'__dict__'
p38
S'{}'
p39
sS'__doc__'
p40
S"'Name not found globally.'"
p41
sS'__init__'
p42
S"<method-wrapper '__init__' of exceptions.NameError object at 0x8baa4b8>"
p43
sS'__new__'
p44
S'<built-in method __new__ of type object at 0x5f9640>'
p45
ssS'evalue'
p46
S"name 'length' is not defined"
p47
sS'request'
p48
ccopy_reg
_reconstructor
p49
(cgluon.html
BEAUTIFY
p50
c__builtin__
object
p51
NtRp52
(dp53
S'attributes'
p54
(dp55
sS'components'
p56
(lp57
g49
(cgluon.html
TABLE
p58
g51
NtRp59
(dp60
g54
(dp61
S'level'
p62
I5
ssS'parent'
p63
Nsg56
(lp64
g49
(cgluon.html
TR
p65
g51
NtRp66
(dp67
g54
(dp68
sg63
g59
sg56
(lp69
g49
(cgluon.html
TD
p70
g51
NtRp71
(dp72
g54
(dp73
S'_style'
p74
S'font-weight:bold;vertical-align:top'
p75
ssg63
g66
sg56
(lp76
S'ajax'
p77
asbag49
(g70
g51
NtRp78
(dp79
g54
(dp80
S'_valign'
p81
S'top'
p82
ssg63
g66
sg56
(lp83
S':'
asbag49
(g70
g51
NtRp84
(dp85
g54
(dp86
sg63
g66
sg56
(lp87
g49
(g50
g51
NtRp88
(dp89
g54
(dp90
g62
I5
ssg63
g84
sg56
(lp91
S'False'
p92
asbasbasbag49
(g65
g51
NtRp93
(dp94
g54
(dp95
sg63
g59
sg56
(lp96
g49
(g70
g51
NtRp97
(dp98
g54
(dp99
g74
g75
ssg63
g93
sg56
(lp100
S'application'
p101
asbag49
(g70
g51
NtRp102
(dp103
g54
(dp104
g81
g82
ssg63
g93
sg56
(lp105
S':'
asbag49
(g70
g51
NtRp106
(dp107
g54
(dp108
sg63
g93
sg56
(lp109
g49
(g50
g51
NtRp110
(dp111
g54
(dp112
g62
I5
ssg63
g106
sg56
(lp113
S'MR'
p114
asbasbasbag49
(g65
g51
NtRp115
(dp116
g54
(dp117
sg63
g59
sg56
(lp118
g49
(g70
g51
NtRp119
(dp120
g54
(dp121
g74
g75
ssg63
g115
sg56
(lp122
g28
asbag49
(g70
g51
NtRp123
(dp124
g54
(dp125
g81
g82
ssg63
g115
sg56
(lp126
S':'
asbag49
(g70
g51
NtRp127
(dp128
g54
(dp129
sg63
g115
sg56
(lp130
g49
(g50
g51
NtRp131
(dp132
g54
(dp133
g62
I5
ssg63
g127
sg56
(lp134
g49
(g58
g51
NtRp135
(dp136
g54
(dp137
g62
I4
ssg63
Nsg56
(lp138
sbasbasbasbag49
(g65
g51
NtRp139
(dp140
g54
(dp141
sg63
g59
sg56
(lp142
g49
(g70
g51
NtRp143
(dp144
g54
(dp145
g74
g75
ssg63
g139
sg56
(lp146
S'body'
p147
asbag49
(g70
g51
NtRp148
(dp149
g54
(dp150
g81
g82
ssg63
g139
sg56
(lp151
S':'
asbag49
(g70
g51
NtRp152
(dp153
g54
(dp154
sg63
g139
sg56
(lp155
g49
(g50
g51
NtRp156
(dp157
g54
(dp158
g62
I5
ssg63
g152
sg56
(lp159
S'<cStringIO.StringO object at 0x7e0caa0>'
p160
asbasbasbag49
(g65
g51
NtRp161
(dp162
g54
(dp163
sg63
g59
sg56
(lp164
g49
(g70
g51
NtRp165
(dp166
g54
(dp167
g74
g75
ssg63
g161
sg56
(lp168
S'cid'
p169
asbag49
(g70
g51
NtRp170
(dp171
g54
(dp172
g81
g82
ssg63
g161
sg56
(lp173
S':'
asbag49
(g70
g51
NtRp174
(dp175
g54
(dp176
sg63
g161
sg56
(lp177
g49
(g50
g51
NtRp178
(dp179
g54
(dp180
g62
I5
ssg63
g174
sg56
(lp181
S'None'
p182
asbasbasbag49
(g65
g51
NtRp183
(dp184
g54
(dp185
sg63
g59
sg56
(lp186
g49
(g70
g51
NtRp187
(dp188
g54
(dp189
g74
g75
ssg63
g183
sg56
(lp190
S'client'
p191
asbag49
(g70
g51
NtRp192
(dp193
g54
(dp194
g81
g82
ssg63
g183
sg56
(lp195
S':'
asbag49
(g70
g51
NtRp196
(dp197
g54
(dp198
sg63
g183
sg56
(lp199
g49
(g50
g51
NtRp200
(dp201
g54
(dp202
g62
I5
ssg63
g196
sg56
(lp203
S'127.0.0.1'
p204
asbasbasbag49
(g65
g51
NtRp205
(dp206
g54
(dp207
sg63
g59
sg56
(lp208
g49
(g70
g51
NtRp209
(dp210
g54
(dp211
g74
g75
ssg63
g205
sg56
(lp212
S'controller'
p213
asbag49
(g70
g51
NtRp214
(dp215
g54
(dp216
g81
g82
ssg63
g205
sg56
(lp217
S':'
asbag49
(g70
g51
NtRp218
(dp219
g54
(dp220
sg63
g205
sg56
(lp221
g49
(g50
g51
NtRp222
(dp223
g54
(dp224
g62
I5
ssg63
g218
sg56
(lp225
S'appadmin'
p226
asbasbasbag49
(g65
g51
NtRp227
(dp228
g54
(dp229
sg63
g59
sg56
(lp230
g49
(g70
g51
NtRp231
(dp232
g54
(dp233
g74
g75
ssg63
g227
sg56
(lp234
S'cookies'
p235
asbag49
(g70
g51
NtRp236
(dp237
g54
(dp238
g81
g82
ssg63
g227
sg56
(lp239
S':'
asbag49
(g70
g51
NtRp240
(dp241
g54
(dp242
sg63
g227
sg56
(lp243
g49
(g50
g51
NtRp244
(dp245
g54
(dp246
g62
I5
ssg63
g240
sg56
(lp247
g49
(g58
g51
NtRp248
(dp249
g54
(dp250
g62
I4
ssg63
Nsg56
(lp251
g49
(g65
g51
NtRp252
(dp253
g54
(dp254
sg63
g248
sg56
(lp255
g49
(g70
g51
NtRp256
(dp257
g54
(dp258
g74
g75
ssg63
g252
sg56
(lp259
S'session_id_admin'
p260
asbag49
(g70
g51
NtRp261
(dp262
g54
(dp263
g81
g82
ssg63
g252
sg56
(lp264
S':'
asbag49
(g70
g51
NtRp265
(dp266
g54
(dp267
sg63
g252
sg56
(lp268
g49
(g50
g51
NtRp269
(dp270
g54
(dp271
g62
I4
ssg63
g265
sg56
(lp272
S'127.0.0.1-571b3d08-1b04-4205-803c-964130795403'
p273
ag49
(g58
g51
NtRp274
(dp275
g54
(dp276
g62
I3
ssg63
Nsg56
(lp277
g49
(g65
g51
NtRp278
(dp279
g54
(dp280
sg63
g274
sg56
(lp281
g49
(g70
g51
NtRp282
(dp283
g54
(dp284
g74
g75
ssg63
g278
sg56
(lp285
S'comment'
p286
asbag49
(g70
g51
NtRp287
(dp288
g54
(dp289
g81
g82
ssg63
g278
sg56
(lp290
S':'
asbag49
(g70
g51
NtRp291
(dp292
g54
(dp293
sg63
g278
sg56
(lp294
g49
(g50
g51
NtRp295
(dp296
g54
(dp297
g62
I3
ssg63
g291
sg56
(lp298
S''
asbasbasbag49
(g65
g51
NtRp299
(dp300
g54
(dp301
sg63
g274
sg56
(lp302
g49
(g70
g51
NtRp303
(dp304
g54
(dp305
g74
g75
ssg63
g299
sg56
(lp306
S'domain'
p307
asbag49
(g70
g51
NtRp308
(dp309
g54
(dp310
g81
g82
ssg63
g299
sg56
(lp311
S':'
asbag49
(g70
g51
NtRp312
(dp313
g54
(dp314
sg63
g299
sg56
(lp315
g49
(g50
g51
NtRp316
(dp317
g54
(dp318
g62
I3
ssg63
g312
sg56
(lp319
S''
asbasbasbag49
(g65
g51
NtRp320
(dp321
g54
(dp322
sg63
g274
sg56
(lp323
g49
(g70
g51
NtRp324
(dp325
g54
(dp326
g74
g75
ssg63
g320
sg56
(lp327
S'expires'
p328
asbag49
(g70
g51
NtRp329
(dp330
g54
(dp331
g81
g82
ssg63
g320
sg56
(lp332
S':'
asbag49
(g70
g51
NtRp333
(dp334
g54
(dp335
sg63
g320
sg56
(lp336
g49
(g50
g51
NtRp337
(dp338
g54
(dp339
g62
I3
ssg63
g333
sg56
(lp340
S''
asbasbasbag49
(g65
g51
NtRp341
(dp342
g54
(dp343
sg63
g274
sg56
(lp344
g49
(g70
g51
NtRp345
(dp346
g54
(dp347
g74
g75
ssg63
g341
sg56
(lp348
S'max-age'
p349
asbag49
(g70
g51
NtRp350
(dp351
g54
(dp352
g81
g82
ssg63
g341
sg56
(lp353
S':'
asbag49
(g70
g51
NtRp354
(dp355
g54
(dp356
sg63
g341
sg56
(lp357
g49
(g50
g51
NtRp358
(dp359
g54
(dp360
g62
I3
ssg63
g354
sg56
(lp361
S''
asbasbasbag49
(g65
g51
NtRp362
(dp363
g54
(dp364
sg63
g274
sg56
(lp365
g49
(g70
g51
NtRp366
(dp367
g54
(dp368
g74
g75
ssg63
g362
sg56
(lp369
S'path'
p370
asbag49
(g70
g51
NtRp371
(dp372
g54
(dp373
g81
g82
ssg63
g362
sg56
(lp374
S':'
asbag49
(g70
g51
NtRp375
(dp376
g54
(dp377
sg63
g362
sg56
(lp378
g49
(g50
g51
NtRp379
(dp380
g54
(dp381
g62
I3
ssg63
g375
sg56
(lp382
S''
asbasbasbag49
(g65
g51
NtRp383
(dp384
g54
(dp385
sg63
g274
sg56
(lp386
g49
(g70
g51
NtRp387
(dp388
g54
(dp389
g74
g75
ssg63
g383
sg56
(lp390
S'secure'
p391
asbag49
(g70
g51
NtRp392
(dp393
g54
(dp394
g81
g82
ssg63
g383
sg56
(lp395
S':'
asbag49
(g70
g51
NtRp396
(dp397
g54
(dp398
sg63
g383
sg56
(lp399
g49
(g50
g51
NtRp400
(dp401
g54
(dp402
g62
I3
ssg63
g396
sg56
(lp403
S''
asbasbasbag49
(g65
g51
NtRp404
(dp405
g54
(dp406
sg63
g274
sg56
(lp407
g49
(g70
g51
NtRp408
(dp409
g54
(dp410
g74
g75
ssg63
g404
sg56
(lp411
S'version'
p412
asbag49
(g70
g51
NtRp413
(dp414
g54
(dp415
g81
g82
ssg63
g404
sg56
(lp416
S':'
asbag49
(g70
g51
NtRp417
(dp418
g54
(dp419
sg63
g404
sg56
(lp420
g49
(g50
g51
NtRp421
(dp422
g54
(dp423
g62
I3
ssg63
g417
sg56
(lp424
S''
asbasbasbasbasbasbasbag49
(g65
g51
NtRp425
(dp426
g54
(dp427
sg63
g248
sg56
(lp428
g49
(g70
g51
NtRp429
(dp430
g54
(dp431
g74
g75
ssg63
g425
sg56
(lp432
S'session_id_mr'
p433
asbag49
(g70
g51
NtRp434
(dp435
g54
(dp436
g81
g82
ssg63
g425
sg56
(lp437
S':'
asbag49
(g70
g51
NtRp438
(dp439
g54
(dp440
sg63
g425
sg56
(lp441
g49
(g50
g51
NtRp442
(dp443
g54
(dp444
g62
I4
ssg63
g438
sg56
(lp445
S'127.0.0.1-93356ae9-d6eb-42c1-bf89-8f42dc924ebb'
p446
ag49
(g58
g51
NtRp447
(dp448
g54
(dp449
g62
I3
ssg63
Nsg56
(lp450
g49
(g65
g51
NtRp451
(dp452
g54
(dp453
sg63
g447
sg56
(lp454
g49
(g70
g51
NtRp455
(dp456
g54
(dp457
g74
g75
ssg63
g451
sg56
(lp458
g286
asbag49
(g70
g51
NtRp459
(dp460
g54
(dp461
g81
g82
ssg63
g451
sg56
(lp462
S':'
asbag49
(g70
g51
NtRp463
(dp464
g54
(dp465
sg63
g451
sg56
(lp466
g49
(g50
g51
NtRp467
(dp468
g54
(dp469
g62
I3
ssg63
g463
sg56
(lp470
S''
asbasbasbag49
(g65
g51
NtRp471
(dp472
g54
(dp473
sg63
g447
sg56
(lp474
g49
(g70
g51
NtRp475
(dp476
g54
(dp477
g74
g75
ssg63
g471
sg56
(lp478
g307
asbag49
(g70
g51
NtRp479
(dp480
g54
(dp481
g81
g82
ssg63
g471
sg56
(lp482
S':'
asbag49
(g70
g51
NtRp483
(dp484
g54
(dp485
sg63
g471
sg56
(lp486
g49
(g50
g51
NtRp487
(dp488
g54
(dp489
g62
I3
ssg63
g483
sg56
(lp490
S''
asbasbasbag49
(g65
g51
NtRp491
(dp492
g54
(dp493
sg63
g447
sg56
(lp494
g49
(g70
g51
NtRp495
(dp496
g54
(dp497
g74
g75
ssg63
g491
sg56
(lp498
g328
asbag49
(g70
g51
NtRp499
(dp500
g54
(dp501
g81
g82
ssg63
g491
sg56
(lp502
S':'
asbag49
(g70
g51
NtRp503
(dp504
g54
(dp505
sg63
g491
sg56
(lp506
g49
(g50
g51
NtRp507
(dp508
g54
(dp509
g62
I3
ssg63
g503
sg56
(lp510
S''
asbasbasbag49
(g65
g51
NtRp511
(dp512
g54
(dp513
sg63
g447
sg56
(lp514
g49
(g70
g51
NtRp515
(dp516
g54
(dp517
g74
g75
ssg63
g511
sg56
(lp518
g349
asbag49
(g70
g51
NtRp519
(dp520
g54
(dp521
g81
g82
ssg63
g511
sg56
(lp522
S':'
asbag49
(g70
g51
NtRp523
(dp524
g54
(dp525
sg63
g511
sg56
(lp526
g49
(g50
g51
NtRp527
(dp528
g54
(dp529
g62
I3
ssg63
g523
sg56
(lp530
S''
asbasbasbag49
(g65
g51
NtRp531
(dp532
g54
(dp533
sg63
g447
sg56
(lp534
g49
(g70
g51
NtRp535
(dp536
g54
(dp537
g74
g75
ssg63
g531
sg56
(lp538
g370
asbag49
(g70
g51
NtRp539
(dp540
g54
(dp541
g81
g82
ssg63
g531
sg56
(lp542
S':'
asbag49
(g70
g51
NtRp543
(dp544
g54
(dp545
sg63
g531
sg56
(lp546
g49
(g50
g51
NtRp547
(dp548
g54
(dp549
g62
I3
ssg63
g543
sg56
(lp550
S''
asbasbasbag49
(g65
g51
NtRp551
(dp552
g54
(dp553
sg63
g447
sg56
(lp554
g49
(g70
g51
NtRp555
(dp556
g54
(dp557
g74
g75
ssg63
g551
sg56
(lp558
g391
asbag49
(g70
g51
NtRp559
(dp560
g54
(dp561
g81
g82
ssg63
g551
sg56
(lp562
S':'
asbag49
(g70
g51
NtRp563
(dp564
g54
(dp565
sg63
g551
sg56
(lp566
g49
(g50
g51
NtRp567
(dp568
g54
(dp569
g62
I3
ssg63
g563
sg56
(lp570
S''
asbasbasbag49
(g65
g51
NtRp571
(dp572
g54
(dp573
sg63
g447
sg56
(lp574
g49
(g70
g51
NtRp575
(dp576
g54
(dp577
g74
g75
ssg63
g571
sg56
(lp578
g412
asbag49
(g70
g51
NtRp579
(dp580
g54
(dp581
g81
g82
ssg63
g571
sg56
(lp582
S':'
asbag49
(g70
g51
NtRp583
(dp584
g54
(dp585
sg63
g571
sg56
(lp586
g49
(g50
g51
NtRp587
(dp588
g54
(dp589
g62
I3
ssg63
g583
sg56
(lp590
S''
asbasbasbasbasbasbasbag49
(g65
g51
NtRp591
(dp592
g54
(dp593
sg63
g248
sg56
(lp594
g49
(g70
g51
NtRp595
(dp596
g54
(dp597
g74
g75
ssg63
g591
sg56
(lp598
S'session_id_welcome'
p599
asbag49
(g70
g51
NtRp600
(dp601
g54
(dp602
g81
g82
ssg63
g591
sg56
(lp603
S':'
asbag49
(g70
g51
NtRp604
(dp605
g54
(dp606
sg63
g591
sg56
(lp607
g49
(g50
g51
NtRp608
(dp609
g54
(dp610
g62
I4
ssg63
g604
sg56
(lp611
S'127.0.0.1-689c372b-4c09-4573-a459-6c50cc578d9b'
p612
ag49
(g58
g51
NtRp613
(dp614
g54
(dp615
g62
I3
ssg63
Nsg56
(lp616
g49
(g65
g51
NtRp617
(dp618
g54
(dp619
sg63
g613
sg56
(lp620
g49
(g70
g51
NtRp621
(dp622
g54
(dp623
g74
g75
ssg63
g617
sg56
(lp624
g286
asbag49
(g70
g51
NtRp625
(dp626
g54
(dp627
g81
g82
ssg63
g617
sg56
(lp628
S':'
asbag49
(g70
g51
NtRp629
(dp630
g54
(dp631
sg63
g617
sg56
(lp632
g49
(g50
g51
NtRp633
(dp634
g54
(dp635
g62
I3
ssg63
g629
sg56
(lp636
S''
asbasbasbag49
(g65
g51
NtRp637
(dp638
g54
(dp639
sg63
g613
sg56
(lp640
g49
(g70
g51
NtRp641
(dp642
g54
(dp643
g74
g75
ssg63
g637
sg56
(lp644
g307
asbag49
(g70
g51
NtRp645
(dp646
g54
(dp647
g81
g82
ssg63
g637
sg56
(lp648
S':'
asbag49
(g70
g51
NtRp649
(dp650
g54
(dp651
sg63
g637
sg56
(lp652
g49
(g50
g51
NtRp653
(dp654
g54
(dp655
g62
I3
ssg63
g649
sg56
(lp656
S''
asbasbasbag49
(g65
g51
NtRp657
(dp658
g54
(dp659
sg63
g613
sg56
(lp660
g49
(g70
g51
NtRp661
(dp662
g54
(dp663
g74
g75
ssg63
g657
sg56
(lp664
g328
asbag49
(g70
g51
NtRp665
(dp666
g54
(dp667
g81
g82
ssg63
g657
sg56
(lp668
S':'
asbag49
(g70
g51
NtRp669
(dp670
g54
(dp671
sg63
g657
sg56
(lp672
g49
(g50
g51
NtRp673
(dp674
g54
(dp675
g62
I3
ssg63
g669
sg56
(lp676
S''
asbasbasbag49
(g65
g51
NtRp677
(dp678
g54
(dp679
sg63
g613
sg56
(lp680
g49
(g70
g51
NtRp681
(dp682
g54
(dp683
g74
g75
ssg63
g677
sg56
(lp684
g349
asbag49
(g70
g51
NtRp685
(dp686
g54
(dp687
g81
g82
ssg63
g677
sg56
(lp688
S':'
asbag49
(g70
g51
NtRp689
(dp690
g54
(dp691
sg63
g677
sg56
(lp692
g49
(g50
g51
NtRp693
(dp694
g54
(dp695
g62
I3
ssg63
g689
sg56
(lp696
S''
asbasbasbag49
(g65
g51
NtRp697
(dp698
g54
(dp699
sg63
g613
sg56
(lp700
g49
(g70
g51
NtRp701
(dp702
g54
(dp703
g74
g75
ssg63
g697
sg56
(lp704
g370
asbag49
(g70
g51
NtRp705
(dp706
g54
(dp707
g81
g82
ssg63
g697
sg56
(lp708
S':'
asbag49
(g70
g51
NtRp709
(dp710
g54
(dp711
sg63
g697
sg56
(lp712
g49
(g50
g51
NtRp713
(dp714
g54
(dp715
g62
I3
ssg63
g709
sg56
(lp716
S''
asbasbasbag49
(g65
g51
NtRp717
(dp718
g54
(dp719
sg63
g613
sg56
(lp720
g49
(g70
g51
NtRp721
(dp722
g54
(dp723
g74
g75
ssg63
g717
sg56
(lp724
g391
asbag49
(g70
g51
NtRp725
(dp726
g54
(dp727
g81
g82
ssg63
g717
sg56
(lp728
S':'
asbag49
(g70
g51
NtRp729
(dp730
g54
(dp731
sg63
g717
sg56
(lp732
g49
(g50
g51
NtRp733
(dp734
g54
(dp735
g62
I3
ssg63
g729
sg56
(lp736
S''
asbasbasbag49
(g65
g51
NtRp737
(dp738
g54
(dp739
sg63
g613
sg56
(lp740
g49
(g70
g51
NtRp741
(dp742
g54
(dp743
g74
g75
ssg63
g737
sg56
(lp744
g412
asbag49
(g70
g51
NtRp745
(dp746
g54
(dp747
g81
g82
ssg63
g737
sg56
(lp748
S':'
asbag49
(g70
g51
NtRp749
(dp750
g54
(dp751
sg63
g737
sg56
(lp752
g49
(g50
g51
NtRp753
(dp754
g54
(dp755
g62
I3
ssg63
g749
sg56
(lp756
S''
asbasbasbasbasbasbasbasbasbasbasbag49
(g65
g51
NtRp757
(dp758
g54
(dp759
sg63
g59
sg56
(lp760
g49
(g70
g51
NtRp761
(dp762
g54
(dp763
g74
g75
ssg63
g757
sg56
(lp764
S'env'
p765
asbag49
(g70
g51
NtRp766
(dp767
g54
(dp768
g81
g82
ssg63
g757
sg56
(lp769
S':'
asbag49
(g70
g51
NtRp770
(dp771
g54
(dp772
sg63
g757
sg56
(lp773
g49
(g50
g51
NtRp774
(dp775
g54
(dp776
g62
I5
ssg63
g770
sg56
(lp777
g49
(g58
g51
NtRp778
(dp779
g54
(dp780
g62
I4
ssg63
Nsg56
(lp781
g49
(g65
g51
NtRp782
(dp783
g54
(dp784
sg63
g778
sg56
(lp785
g49
(g70
g51
NtRp786
(dp787
g54
(dp788
g74
g75
ssg63
g782
sg56
(lp789
S'app_folders'
p790
asbag49
(g70
g51
NtRp791
(dp792
g54
(dp793
g81
g82
ssg63
g782
sg56
(lp794
S':'
asbag49
(g70
g51
NtRp795
(dp796
g54
(dp797
sg63
g782
sg56
(lp798
g49
(g50
g51
NtRp799
(dp800
g54
(dp801
g62
I4
ssg63
g795
sg56
(lp802
S"set(['/Applications/web2py.app/Contents/Resources/applications/admin/', '/Applications/web2py.app/Contents/Resources/applications/welcome/', '/Applications/web2py.app/Contents/Resources/applications/MR/'])"
p803
asbasbasbag49
(g65
g51
NtRp804
(dp805
g54
(dp806
sg63
g778
sg56
(lp807
g49
(g70
g51
NtRp808
(dp809
g54
(dp810
g74
g75
ssg63
g804
sg56
(lp811
S'applications_parent'
p812
asbag49
(g70
g51
NtRp813
(dp814
g54
(dp815
g81
g82
ssg63
g804
sg56
(lp816
S':'
asbag49
(g70
g51
NtRp817
(dp818
g54
(dp819
sg63
g804
sg56
(lp820
g49
(g50
g51
NtRp821
(dp822
g54
(dp823
g62
I4
ssg63
g817
sg56
(lp824
S'/Applications/web2py.app/Contents/Resources'
p825
asbasbasbag49
(g65
g51
NtRp826
(dp827
g54
(dp828
sg63
g778
sg56
(lp829
g49
(g70
g51
NtRp830
(dp831
g54
(dp832
g74
g75
ssg63
g826
sg56
(lp833
S'cmd_args'
p834
asbag49
(g70
g51
NtRp835
(dp836
g54
(dp837
g81
g82
ssg63
g826
sg56
(lp838
S':'
asbag49
(g70
g51
NtRp839
(dp840
g54
(dp841
sg63
g826
sg56
(lp842
g49
(g50
g51
NtRp843
(dp844
g54
(dp845
g62
I4
ssg63
g839
sg56
(lp846
g49
(g58
g51
NtRp847
(dp848
g54
(dp849
g62
I3
ssg63
Nsg56
(lp850
sbasbasbasbag49
(g65
g51
NtRp851
(dp852
g54
(dp853
sg63
g778
sg56
(lp854
g49
(g70
g51
NtRp855
(dp856
g54
(dp857
g74
g75
ssg63
g851
sg56
(lp858
S'cmd_options'
p859
asbag49
(g70
g51
NtRp860
(dp861
g54
(dp862
g81
g82
ssg63
g851
sg56
(lp863
S':'
asbag49
(g70
g51
NtRp864
(dp865
g54
(dp866
sg63
g851
sg56
(lp867
g49
(g50
g51
NtRp868
(dp869
g54
(dp870
g62
I4
ssg63
g864
sg56
(lp871
S"<Values at 0x4596f58: {'verbose': False, 'ip': '127.0.0.1', 'with_scheduler': False, 'ips': [], 'shutdown_timeout': 5, 'taskbar': False, 'port': 8000, 'maxthreads': None, 'softcron': False, 'server_name': 'Liu-SiyematoMacBook-Pro.local', 'bpython': False, 'nogui': False, 'pid_filename': 'httpserver.pid', 'extcron': False, 'runcron': False, 'run_system_tests': False, 'test': None, 'folder': '/Applications/web2py.app/Contents/Resources', 'config': '', 'import_models': False, 'winservice': '', 'shell': None, 'run': '', 'log_filename': 'httpserver.log', 'debuglevel': 30, 'args': [''], 'socket_timeout': 5, 'ssl_ca_certificate': None, 'scheduler': None, 'profiler_filename': None, 'ssl_private_key': '', 'scheduler_groups': None, 'password': '<ask>', 'request_queue_size': 5, 'ssl_certificate': '', 'cronjob': False, 'numthreads': None, 'quiet': False, 'interfaces': None, 'minthreads': None, 'timeout': 10, 'plain': False, 'nobanner': False}>"
p872
asbasbasbag49
(g65
g51
NtRp873
(dp874
g54
(dp875
sg63
g778
sg56
(lp876
g49
(g70
g51
NtRp877
(dp878
g54
(dp879
g74
g75
ssg63
g873
sg56
(lp880
S'db_sessions'
p881
asbag49
(g70
g51
NtRp882
(dp883
g54
(dp884
g81
g82
ssg63
g873
sg56
(lp885
S':'
asbag49
(g70
g51
NtRp886
(dp887
g54
(dp888
sg63
g873
sg56
(lp889
g49
(g50
g51
NtRp890
(dp891
g54
(dp892
g62
I4
ssg63
g886
sg56
(lp893
S'set([])'
p894
asbasbasbag49
(g65
g51
NtRp895
(dp896
g54
(dp897
sg63
g778
sg56
(lp898
g49
(g70
g51
NtRp899
(dp900
g54
(dp901
g74
g75
ssg63
g895
sg56
(lp902
S'debugging'
p903
asbag49
(g70
g51
NtRp904
(dp905
g54
(dp906
g81
g82
ssg63
g895
sg56
(lp907
S':'
asbag49
(g70
g51
NtRp908
(dp909
g54
(dp910
sg63
g895
sg56
(lp911
g49
(g50
g51
NtRp912
(dp913
g54
(dp914
g62
I4
ssg63
g908
sg56
(lp915
S'True'
p916
asbasbasbag49
(g65
g51
NtRp917
(dp918
g54
(dp919
sg63
g778
sg56
(lp920
g49
(g70
g51
NtRp921
(dp922
g54
(dp923
g74
g75
ssg63
g917
sg56
(lp924
S'gluon_parent'
p925
asbag49
(g70
g51
NtRp926
(dp927
g54
(dp928
g81
g82
ssg63
g917
sg56
(lp929
S':'
asbag49
(g70
g51
NtRp930
(dp931
g54
(dp932
sg63
g917
sg56
(lp933
g49
(g50
g51
NtRp934
(dp935
g54
(dp936
g62
I4
ssg63
g930
sg56
(lp937
S'/Applications/web2py.app/Contents/Resources'
p938
asbasbasbag49
(g65
g51
NtRp939
(dp940
g54
(dp941
sg63
g778
sg56
(lp942
g49
(g70
g51
NtRp943
(dp944
g54
(dp945
g74
g75
ssg63
g939
sg56
(lp946
S'http_accept'
p947
asbag49
(g70
g51
NtRp948
(dp949
g54
(dp950
g81
g82
ssg63
g939
sg56
(lp951
S':'
asbag49
(g70
g51
NtRp952
(dp953
g54
(dp954
sg63
g939
sg56
(lp955
g49
(g50
g51
NtRp956
(dp957
g54
(dp958
g62
I4
ssg63
g952
sg56
(lp959
S'text/html,application/xhtml+xml,application/xml;q=0.9,*/*;q=0.8'
p960
asbasbasbag49
(g65
g51
NtRp961
(dp962
g54
(dp963
sg63
g778
sg56
(lp964
g49
(g70
g51
NtRp965
(dp966
g54
(dp967
g74
g75
ssg63
g961
sg56
(lp968
S'http_accept_charset'
p969
asbag49
(g70
g51
NtRp970
(dp971
g54
(dp972
g81
g82
ssg63
g961
sg56
(lp973
S':'
asbag49
(g70
g51
NtRp974
(dp975
g54
(dp976
sg63
g961
sg56
(lp977
g49
(g50
g51
NtRp978
(dp979
g54
(dp980
g62
I4
ssg63
g974
sg56
(lp981
S'GBK,utf-8;q=0.7,*;q=0.3'
p982
asbasbasbag49
(g65
g51
NtRp983
(dp984
g54
(dp985
sg63
g778
sg56
(lp986
g49
(g70
g51
NtRp987
(dp988
g54
(dp989
g74
g75
ssg63
g983
sg56
(lp990
S'http_accept_encoding'
p991
asbag49
(g70
g51
NtRp992
(dp993
g54
(dp994
g81
g82
ssg63
g983
sg56
(lp995
S':'
asbag49
(g70
g51
NtRp996
(dp997
g54
(dp998
sg63
g983
sg56
(lp999
g49
(g50
g51
NtRp1000
(dp1001
g54
(dp1002
g62
I4
ssg63
g996
sg56
(lp1003
S'gzip,deflate,sdch'
p1004
asbasbasbag49
(g65
g51
NtRp1005
(dp1006
g54
(dp1007
sg63
g778
sg56
(lp1008
g49
(g70
g51
NtRp1009
(dp1010
g54
(dp1011
g74
g75
ssg63
g1005
sg56
(lp1012
S'http_accept_language'
p1013
asbag49
(g70
g51
NtRp1014
(dp1015
g54
(dp1016
g81
g82
ssg63
g1005
sg56
(lp1017
S':'
asbag49
(g70
g51
NtRp1018
(dp1019
g54
(dp1020
sg63
g1005
sg56
(lp1021
g49
(g50
g51
NtRp1022
(dp1023
g54
(dp1024
g62
I4
ssg63
g1018
sg56
(lp1025
S'zh-CN,zh;q=0.8'
p1026
asbasbasbag49
(g65
g51
NtRp1027
(dp1028
g54
(dp1029
sg63
g778
sg56
(lp1030
g49
(g70
g51
NtRp1031
(dp1032
g54
(dp1033
g74
g75
ssg63
g1027
sg56
(lp1034
S'http_connection'
p1035
asbag49
(g70
g51
NtRp1036
(dp1037
g54
(dp1038
g81
g82
ssg63
g1027
sg56
(lp1039
S':'
asbag49
(g70
g51
NtRp1040
(dp1041
g54
(dp1042
sg63
g1027
sg56
(lp1043
g49
(g50
g51
NtRp1044
(dp1045
g54
(dp1046
g62
I4
ssg63
g1040
sg56
(lp1047
S'keep-alive'
p1048
asbasbasbag49
(g65
g51
NtRp1049
(dp1050
g54
(dp1051
sg63
g778
sg56
(lp1052
g49
(g70
g51
NtRp1053
(dp1054
g54
(dp1055
g74
g75
ssg63
g1049
sg56
(lp1056
S'http_cookie'
p1057
asbag49
(g70
g51
NtRp1058
(dp1059
g54
(dp1060
g81
g82
ssg63
g1049
sg56
(lp1061
S':'
asbag49
(g70
g51
NtRp1062
(dp1063
g54
(dp1064
sg63
g1049
sg56
(lp1065
g49
(g50
g51
NtRp1066
(dp1067
g54
(dp1068
g62
I4
ssg63
g1062
sg56
(lp1069
S'session_id_welcome=127.0.0.1-689c372b-4c09-4573-a459-6c50cc578d9b; session_id_mr=127.0.0.1-93356ae9-d6eb-42c1-bf89-8f42dc924ebb; session_id_admin=127.0.0.1-571b3d08-1b04-4205-803c-964130795403'
p1070
asbasbasbag49
(g65
g51
NtRp1071
(dp1072
g54
(dp1073
sg63
g778
sg56
(lp1074
g49
(g70
g51
NtRp1075
(dp1076
g54
(dp1077
g74
g75
ssg63
g1071
sg56
(lp1078
S'http_host'
p1079
asbag49
(g70
g51
NtRp1080
(dp1081
g54
(dp1082
g81
g82
ssg63
g1071
sg56
(lp1083
S':'
asbag49
(g70
g51
NtRp1084
(dp1085
g54
(dp1086
sg63
g1071
sg56
(lp1087
g49
(g50
g51
NtRp1088
(dp1089
g54
(dp1090
g62
I4
ssg63
g1084
sg56
(lp1091
S'127.0.0.1:8000'
p1092
asbasbasbag49
(g65
g51
NtRp1093
(dp1094
g54
(dp1095
sg63
g778
sg56
(lp1096
g49
(g70
g51
NtRp1097
(dp1098
g54
(dp1099
g74
g75
ssg63
g1093
sg56
(lp1100
S'http_referer'
p1101
asbag49
(g70
g51
NtRp1102
(dp1103
g54
(dp1104
g81
g82
ssg63
g1093
sg56
(lp1105
S':'
asbag49
(g70
g51
NtRp1106
(dp1107
g54
(dp1108
sg63
g1093
sg56
(lp1109
g49
(g50
g51
NtRp1110
(dp1111
g54
(dp1112
g62
I4
ssg63
g1106
sg56
(lp1113
S'http://127.0.0.1:8000/admin/default/design/MR'
p1114
asbasbasbag49
(g65
g51
NtRp1115
(dp1116
g54
(dp1117
sg63
g778
sg56
(lp1118
g49
(g70
g51
NtRp1119
(dp1120
g54
(dp1121
g74
g75
ssg63
g1115
sg56
(lp1122
S'http_user_agent'
p1123
asbag49
(g70
g51
NtRp1124
(dp1125
g54
(dp1126
g81
g82
ssg63
g1115
sg56
(lp1127
S':'
asbag49
(g70
g51
NtRp1128
(dp1129
g54
(dp1130
sg63
g1115
sg56
(lp1131
g49
(g50
g51
NtRp1132
(dp1133
g54
(dp1134
g62
I4
ssg63
g1128
sg56
(lp1135
S'Mozilla/5.0 (Macintosh; Intel Mac OS X 10_8_3) AppleWebKit/537.31 (KHTML, like Gecko) Chrome/26.0.1410.65 Safari/537.31'
p1136
asbasbasbag49
(g65
g51
NtRp1137
(dp1138
g54
(dp1139
sg63
g778
sg56
(lp1140
g49
(g70
g51
NtRp1141
(dp1142
g54
(dp1143
g74
g75
ssg63
g1137
sg56
(lp1144
S'is_jython'
p1145
asbag49
(g70
g51
NtRp1146
(dp1147
g54
(dp1148
g81
g82
ssg63
g1137
sg56
(lp1149
S':'
asbag49
(g70
g51
NtRp1150
(dp1151
g54
(dp1152
sg63
g1137
sg56
(lp1153
g49
(g50
g51
NtRp1154
(dp1155
g54
(dp1156
g62
I4
ssg63
g1150
sg56
(lp1157
g92
asbasbasbag49
(g65
g51
NtRp1158
(dp1159
g54
(dp1160
sg63
g778
sg56
(lp1161
g49
(g70
g51
NtRp1162
(dp1163
g54
(dp1164
g74
g75
ssg63
g1158
sg56
(lp1165
S'is_pypy'
p1166
asbag49
(g70
g51
NtRp1167
(dp1168
g54
(dp1169
g81
g82
ssg63
g1158
sg56
(lp1170
S':'
asbag49
(g70
g51
NtRp1171
(dp1172
g54
(dp1173
sg63
g1158
sg56
(lp1174
g49
(g50
g51
NtRp1175
(dp1176
g54
(dp1177
g62
I4
ssg63
g1171
sg56
(lp1178
g92
asbasbasbag49
(g65
g51
NtRp1179
(dp1180
g54
(dp1181
sg63
g778
sg56
(lp1182
g49
(g70
g51
NtRp1183
(dp1184
g54
(dp1185
g74
g75
ssg63
g1179
sg56
(lp1186
S'local_hosts'
p1187
asbag49
(g70
g51
NtRp1188
(dp1189
g54
(dp1190
g81
g82
ssg63
g1179
sg56
(lp1191
S':'
asbag49
(g70
g51
NtRp1192
(dp1193
g54
(dp1194
sg63
g1179
sg56
(lp1195
g49
(g50
g51
NtRp1196
(dp1197
g54
(dp1198
g62
I4
ssg63
g1192
sg56
(lp1199
g49
(g58
g51
NtRp1200
(dp1201
g54
(dp1202
g62
I3
ssg63
Nsg56
(lp1203
g49
(g65
g51
NtRp1204
(dp1205
g54
(dp1206
sg63
g1200
sg56
(lp1207
g49
(g70
g51
NtRp1208
(dp1209
g54
(dp1210
sg63
g1204
sg56
(lp1211
g49
(g50
g51
NtRp1212
(dp1213
g54
(dp1214
g62
I3
ssg63
g1208
sg56
(lp1215
S'Liu-SiyematoMacBook-Pro.local'
p1216
asbasbasbag49
(g65
g51
NtRp1217
(dp1218
g54
(dp1219
sg63
g1200
sg56
(lp1220
g49
(g70
g51
NtRp1221
(dp1222
g54
(dp1223
sg63
g1217
sg56
(lp1224
g49
(g50
g51
NtRp1225
(dp1226
g54
(dp1227
g62
I3
ssg63
g1221
sg56
(lp1228
S'::1'
p1229
asbasbasbag49
(g65
g51
NtRp1230
(dp1231
g54
(dp1232
sg63
g1200
sg56
(lp1233
g49
(g70
g51
NtRp1234
(dp1235
g54
(dp1236
sg63
g1230
sg56
(lp1237
g49
(g50
g51
NtRp1238
(dp1239
g54
(dp1240
g62
I3
ssg63
g1234
sg56
(lp1241
S'1.0.0.0.0.0.0.0.0.0.0.0.0.0.0.0.0.0.0.0.0.0.0.0.0.0.0.0.0.0.0.0.ip6.arpa'
p1242
asbasbasbag49
(g65
g51
NtRp1243
(dp1244
g54
(dp1245
sg63
g1200
sg56
(lp1246
g49
(g70
g51
NtRp1247
(dp1248
g54
(dp1249
sg63
g1243
sg56
(lp1250
g49
(g50
g51
NtRp1251
(dp1252
g54
(dp1253
g62
I3
ssg63
g1247
sg56
(lp1254
S'::ffff:127.0.0.1'
p1255
asbasbasbag49
(g65
g51
NtRp1256
(dp1257
g54
(dp1258
sg63
g1200
sg56
(lp1259
g49
(g70
g51
NtRp1260
(dp1261
g54
(dp1262
sg63
g1256
sg56
(lp1263
g49
(g50
g51
NtRp1264
(dp1265
g54
(dp1266
g62
I3
ssg63
g1260
sg56
(lp1267
S'127.0.0.1'
p1268
asbasbasbasbasbasbasbag49
(g65
g51
NtRp1269
(dp1270
g54
(dp1271
sg63
g778
sg56
(lp1272
g49
(g70
g51
NtRp1273
(dp1274
g54
(dp1275
g74
g75
ssg63
g1269
sg56
(lp1276
S'path_info'
p1277
asbag49
(g70
g51
NtRp1278
(dp1279
g54
(dp1280
g81
g82
ssg63
g1269
sg56
(lp1281
S':'
asbag49
(g70
g51
NtRp1282
(dp1283
g54
(dp1284
sg63
g1269
sg56
(lp1285
g49
(g50
g51
NtRp1286
(dp1287
g54
(dp1288
g62
I4
ssg63
g1282
sg56
(lp1289
S'/MR/appadmin/index'
p1290
asbasbasbag49
(g65
g51
NtRp1291
(dp1292
g54
(dp1293
sg63
g778
sg56
(lp1294
g49
(g70
g51
NtRp1295
(dp1296
g54
(dp1297
g74
g75
ssg63
g1291
sg56
(lp1298
S'query_string'
p1299
asbag49
(g70
g51
NtRp1300
(dp1301
g54
(dp1302
g81
g82
ssg63
g1291
sg56
(lp1303
S':'
asbag49
(g70
g51
NtRp1304
(dp1305
g54
(dp1306
sg63
g1291
sg56
(lp1307
g49
(g50
g51
NtRp1308
(dp1309
g54
(dp1310
g62
I4
ssg63
g1304
sg56
(lp1311
S''
asbasbasbag49
(g65
g51
NtRp1312
(dp1313
g54
(dp1314
sg63
g778
sg56
(lp1315
g49
(g70
g51
NtRp1316
(dp1317
g54
(dp1318
g74
g75
ssg63
g1312
sg56
(lp1319
S'remote_addr'
p1320
asbag49
(g70
g51
NtRp1321
(dp1322
g54
(dp1323
g81
g82
ssg63
g1312
sg56
(lp1324
S':'
asbag49
(g70
g51
NtRp1325
(dp1326
g54
(dp1327
sg63
g1312
sg56
(lp1328
g49
(g50
g51
NtRp1329
(dp1330
g54
(dp1331
g62
I4
ssg63
g1325
sg56
(lp1332
g204
asbasbasbag49
(g65
g51
NtRp1333
(dp1334
g54
(dp1335
sg63
g778
sg56
(lp1336
g49
(g70
g51
NtRp1337
(dp1338
g54
(dp1339
g74
g75
ssg63
g1333
sg56
(lp1340
S'remote_port'
p1341
asbag49
(g70
g51
NtRp1342
(dp1343
g54
(dp1344
g81
g82
ssg63
g1333
sg56
(lp1345
S':'
asbag49
(g70
g51
NtRp1346
(dp1347
g54
(dp1348
sg63
g1333
sg56
(lp1349
g49
(g50
g51
NtRp1350
(dp1351
g54
(dp1352
g62
I4
ssg63
g1346
sg56
(lp1353
S'62591'
p1354
asbasbasbag49
(g65
g51
NtRp1355
(dp1356
g54
(dp1357
sg63
g778
sg56
(lp1358
g49
(g70
g51
NtRp1359
(dp1360
g54
(dp1361
g74
g75
ssg63
g1355
sg56
(lp1362
S'request_method'
p1363
asbag49
(g70
g51
NtRp1364
(dp1365
g54
(dp1366
g81
g82
ssg63
g1355
sg56
(lp1367
S':'
asbag49
(g70
g51
NtRp1368
(dp1369
g54
(dp1370
sg63
g1355
sg56
(lp1371
g49
(g50
g51
NtRp1372
(dp1373
g54
(dp1374
g62
I4
ssg63
g1368
sg56
(lp1375
S'GET'
p1376
asbasbasbag49
(g65
g51
NtRp1377
(dp1378
g54
(dp1379
sg63
g778
sg56
(lp1380
g49
(g70
g51
NtRp1381
(dp1382
g54
(dp1383
g74
g75
ssg63
g1377
sg56
(lp1384
S'request_uri'
p1385
asbag49
(g70
g51
NtRp1386
(dp1387
g54
(dp1388
g81
g82
ssg63
g1377
sg56
(lp1389
S':'
asbag49
(g70
g51
NtRp1390
(dp1391
g54
(dp1392
sg63
g1377
sg56
(lp1393
g49
(g50
g51
NtRp1394
(dp1395
g54
(dp1396
g62
I4
ssg63
g1390
sg56
(lp1397
g1290
asbasbasbag49
(g65
g51
NtRp1398
(dp1399
g54
(dp1400
sg63
g778
sg56
(lp1401
g49
(g70
g51
NtRp1402
(dp1403
g54
(dp1404
g74
g75
ssg63
g1398
sg56
(lp1405
S'script_name'
p1406
asbag49
(g70
g51
NtRp1407
(dp1408
g54
(dp1409
g81
g82
ssg63
g1398
sg56
(lp1410
S':'
asbag49
(g70
g51
NtRp1411
(dp1412
g54
(dp1413
sg63
g1398
sg56
(lp1414
g49
(g50
g51
NtRp1415
(dp1416
g54
(dp1417
g62
I4
ssg63
g1411
sg56
(lp1418
S''
asbasbasbag49
(g65
g51
NtRp1419
(dp1420
g54
(dp1421
sg63
g778
sg56
(lp1422
g49
(g70
g51
NtRp1423
(dp1424
g54
(dp1425
g74
g75
ssg63
g1419
sg56
(lp1426
S'server_name'
p1427
asbag49
(g70
g51
NtRp1428
(dp1429
g54
(dp1430
g81
g82
ssg63
g1419
sg56
(lp1431
S':'
asbag49
(g70
g51
NtRp1432
(dp1433
g54
(dp1434
sg63
g1419
sg56
(lp1435
g49
(g50
g51
NtRp1436
(dp1437
g54
(dp1438
g62
I4
ssg63
g1432
sg56
(lp1439
S'Liu-SiyematoMacBook-Pro.local'
p1440
asbasbasbag49
(g65
g51
NtRp1441
(dp1442
g54
(dp1443
sg63
g778
sg56
(lp1444
g49
(g70
g51
NtRp1445
(dp1446
g54
(dp1447
g74
g75
ssg63
g1441
sg56
(lp1448
S'server_port'
p1449
asbag49
(g70
g51
NtRp1450
(dp1451
g54
(dp1452
g81
g82
ssg63
g1441
sg56
(lp1453
S':'
asbag49
(g70
g51
NtRp1454
(dp1455
g54
(dp1456
sg63
g1441
sg56
(lp1457
g49
(g50
g51
NtRp1458
(dp1459
g54
(dp1460
g62
I4
ssg63
g1454
sg56
(lp1461
S'8000'
p1462
asbasbasbag49
(g65
g51
NtRp1463
(dp1464
g54
(dp1465
sg63
g778
sg56
(lp1466
g49
(g70
g51
NtRp1467
(dp1468
g54
(dp1469
g74
g75
ssg63
g1463
sg56
(lp1470
S'server_protocol'
p1471
asbag49
(g70
g51
NtRp1472
(dp1473
g54
(dp1474
g81
g82
ssg63
g1463
sg56
(lp1475
S':'
asbag49
(g70
g51
NtRp1476
(dp1477
g54
(dp1478
sg63
g1463
sg56
(lp1479
g49
(g50
g51
NtRp1480
(dp1481
g54
(dp1482
g62
I4
ssg63
g1476
sg56
(lp1483
S'HTTP/1.1'
p1484
asbasbasbag49
(g65
g51
NtRp1485
(dp1486
g54
(dp1487
sg63
g778
sg56
(lp1488
g49
(g70
g51
NtRp1489
(dp1490
g54
(dp1491
g74
g75
ssg63
g1485
sg56
(lp1492
S'server_software'
p1493
asbag49
(g70
g51
NtRp1494
(dp1495
g54
(dp1496
g81
g82
ssg63
g1485
sg56
(lp1497
S':'
asbag49
(g70
g51
NtRp1498
(dp1499
g54
(dp1500
sg63
g1485
sg56
(lp1501
g49
(g50
g51
NtRp1502
(dp1503
g54
(dp1504
g62
I4
ssg63
g1498
sg56
(lp1505
S'Rocket 1.2.6'
p1506
asbasbasbag49
(g65
g51
NtRp1507
(dp1508
g54
(dp1509
sg63
g778
sg56
(lp1510
g49
(g70
g51
NtRp1511
(dp1512
g54
(dp1513
g74
g75
ssg63
g1507
sg56
(lp1514
S'web2py_path'
p1515
asbag49
(g70
g51
NtRp1516
(dp1517
g54
(dp1518
g81
g82
ssg63
g1507
sg56
(lp1519
S':'
asbag49
(g70
g51
NtRp1520
(dp1521
g54
(dp1522
sg63
g1507
sg56
(lp1523
g49
(g50
g51
NtRp1524
(dp1525
g54
(dp1526
g62
I4
ssg63
g1520
sg56
(lp1527
g825
asbasbasbag49
(g65
g51
NtRp1528
(dp1529
g54
(dp1530
sg63
g778
sg56
(lp1531
g49
(g70
g51
NtRp1532
(dp1533
g54
(dp1534
g74
g75
ssg63
g1528
sg56
(lp1535
S'web2py_version'
p1536
asbag49
(g70
g51
NtRp1537
(dp1538
g54
(dp1539
g81
g82
ssg63
g1528
sg56
(lp1540
S':'
asbag49
(g70
g51
NtRp1541
(dp1542
g54
(dp1543
sg63
g1528
sg56
(lp1544
g49
(g50
g51
NtRp1545
(dp1546
g54
(dp1547
g62
I4
ssg63
g1541
sg56
(lp1548
g49
(g58
g51
NtRp1549
(dp1550
g54
(dp1551
g62
I3
ssg63
Nsg56
(lp1552
g49
(g65
g51
NtRp1553
(dp1554
g54
(dp1555
sg63
g1549
sg56
(lp1556
g49
(g70
g51
NtRp1557
(dp1558
g54
(dp1559
sg63
g1553
sg56
(lp1560
g49
(g50
g51
NtRp1561
(dp1562
g54
(dp1563
g62
I3
ssg63
g1557
sg56
(lp1564
S'2'
asbasbasbag49
(g65
g51
NtRp1565
(dp1566
g54
(dp1567
sg63
g1549
sg56
(lp1568
g49
(g70
g51
NtRp1569
(dp1570
g54
(dp1571
sg63
g1565
sg56
(lp1572
g49
(g50
g51
NtRp1573
(dp1574
g54
(dp1575
g62
I3
ssg63
g1569
sg56
(lp1576
S'4'
asbasbasbag49
(g65
g51
NtRp1577
(dp1578
g54
(dp1579
sg63
g1549
sg56
(lp1580
g49
(g70
g51
NtRp1581
(dp1582
g54
(dp1583
sg63
g1577
sg56
(lp1584
g49
(g50
g51
NtRp1585
(dp1586
g54
(dp1587
g62
I3
ssg63
g1581
sg56
(lp1588
S'5'
asbasbasbag49
(g65
g51
NtRp1589
(dp1590
g54
(dp1591
sg63
g1549
sg56
(lp1592
g49
(g70
g51
NtRp1593
(dp1594
g54
(dp1595
sg63
g1589
sg56
(lp1596
g49
(g50
g51
NtRp1597
(dp1598
g54
(dp1599
g62
I3
ssg63
g1593
sg56
(lp1600
S'stable'
p1601
asbasbasbag49
(g65
g51
NtRp1602
(dp1603
g54
(dp1604
sg63
g1549
sg56
(lp1605
g49
(g70
g51
NtRp1606
(dp1607
g54
(dp1608
sg63
g1602
sg56
(lp1609
g49
(g50
g51
NtRp1610
(dp1611
g54
(dp1612
g62
I3
ssg63
g1606
sg56
(lp1613
S'datetime.datetime(2013, 3, 18, 22, 46, 22)'
p1614
asbasbasbasbasbasbasbag49
(g65
g51
NtRp1615
(dp1616
g54
(dp1617
sg63
g778
sg56
(lp1618
g49
(g70
g51
NtRp1619
(dp1620
g54
(dp1621
g74
g75
ssg63
g1615
sg56
(lp1622
S'wsgi_errors'
p1623
asbag49
(g70
g51
NtRp1624
(dp1625
g54
(dp1626
g81
g82
ssg63
g1615
sg56
(lp1627
S':'
asbag49
(g70
g51
NtRp1628
(dp1629
g54
(dp1630
sg63
g1615
sg56
(lp1631
g49
(g50
g51
NtRp1632
(dp1633
g54
(dp1634
g62
I4
ssg63
g1628
sg56
(lp1635
S"<open file '<stderr>', mode 'w' at 0x660b0>"
p1636
asbasbasbag49
(g65
g51
NtRp1637
(dp1638
g54
(dp1639
sg63
g778
sg56
(lp1640
g49
(g70
g51
NtRp1641
(dp1642
g54
(dp1643
g74
g75
ssg63
g1637
sg56
(lp1644
S'wsgi_file_wrapper'
p1645
asbag49
(g70
g51
NtRp1646
(dp1647
g54
(dp1648
g81
g82
ssg63
g1637
sg56
(lp1649
S':'
asbag49
(g70
g51
NtRp1650
(dp1651
g54
(dp1652
sg63
g1637
sg56
(lp1653
g49
(g50
g51
NtRp1654
(dp1655
g54
(dp1656
g62
I4
ssg63
g1650
sg56
(lp1657
S'<class wsgiref.util.FileWrapper at 0x456e060>'
p1658
asbasbasbag49
(g65
g51
NtRp1659
(dp1660
g54
(dp1661
sg63
g778
sg56
(lp1662
g49
(g70
g51
NtRp1663
(dp1664
g54
(dp1665
g74
g75
ssg63
g1659
sg56
(lp1666
S'wsgi_input'
p1667
asbag49
(g70
g51
NtRp1668
(dp1669
g54
(dp1670
g81
g82
ssg63
g1659
sg56
(lp1671
S':'
asbag49
(g70
g51
NtRp1672
(dp1673
g54
(dp1674
sg63
g1659
sg56
(lp1675
g49
(g50
g51
NtRp1676
(dp1677
g54
(dp1678
g62
I4
ssg63
g1672
sg56
(lp1679
S'<socket._fileobject object at 0x8c6c1b0>'
p1680
asbasbasbag49
(g65
g51
NtRp1681
(dp1682
g54
(dp1683
sg63
g778
sg56
(lp1684
g49
(g70
g51
NtRp1685
(dp1686
g54
(dp1687
g74
g75
ssg63
g1681
sg56
(lp1688
S'wsgi_multiprocess'
p1689
asbag49
(g70
g51
NtRp1690
(dp1691
g54
(dp1692
g81
g82
ssg63
g1681
sg56
(lp1693
S':'
asbag49
(g70
g51
NtRp1694
(dp1695
g54
(dp1696
sg63
g1681
sg56
(lp1697
g49
(g50
g51
NtRp1698
(dp1699
g54
(dp1700
g62
I4
ssg63
g1694
sg56
(lp1701
g92
asbasbasbag49
(g65
g51
NtRp1702
(dp1703
g54
(dp1704
sg63
g778
sg56
(lp1705
g49
(g70
g51
NtRp1706
(dp1707
g54
(dp1708
g74
g75
ssg63
g1702
sg56
(lp1709
S'wsgi_multithread'
p1710
asbag49
(g70
g51
NtRp1711
(dp1712
g54
(dp1713
g81
g82
ssg63
g1702
sg56
(lp1714
S':'
asbag49
(g70
g51
NtRp1715
(dp1716
g54
(dp1717
sg63
g1702
sg56
(lp1718
g49
(g50
g51
NtRp1719
(dp1720
g54
(dp1721
g62
I4
ssg63
g1715
sg56
(lp1722
g916
asbasbasbag49
(g65
g51
NtRp1723
(dp1724
g54
(dp1725
sg63
g778
sg56
(lp1726
g49
(g70
g51
NtRp1727
(dp1728
g54
(dp1729
g74
g75
ssg63
g1723
sg56
(lp1730
S'wsgi_run_once'
p1731
asbag49
(g70
g51
NtRp1732
(dp1733
g54
(dp1734
g81
g82
ssg63
g1723
sg56
(lp1735
S':'
asbag49
(g70
g51
NtRp1736
(dp1737
g54
(dp1738
sg63
g1723
sg56
(lp1739
g49
(g50
g51
NtRp1740
(dp1741
g54
(dp1742
g62
I4
ssg63
g1736
sg56
(lp1743
g92
asbasbasbag49
(g65
g51
NtRp1744
(dp1745
g54
(dp1746
sg63
g778
sg56
(lp1747
g49
(g70
g51
NtRp1748
(dp1749
g54
(dp1750
g74
g75
ssg63
g1744
sg56
(lp1751
S'wsgi_url_scheme'
p1752
asbag49
(g70
g51
NtRp1753
(dp1754
g54
(dp1755
g81
g82
ssg63
g1744
sg56
(lp1756
S':'
asbag49
(g70
g51
NtRp1757
(dp1758
g54
(dp1759
sg63
g1744
sg56
(lp1760
g49
(g50
g51
NtRp1761
(dp1762
g54
(dp1763
g62
I4
ssg63
g1757
sg56
(lp1764
S'http'
p1765
asbasbasbag49
(g65
g51
NtRp1766
(dp1767
g54
(dp1768
sg63
g778
sg56
(lp1769
g49
(g70
g51
NtRp1770
(dp1771
g54
(dp1772
g74
g75
ssg63
g1766
sg56
(lp1773
S'wsgi_version'
p1774
asbag49
(g70
g51
NtRp1775
(dp1776
g54
(dp1777
g81
g82
ssg63
g1766
sg56
(lp1778
S':'
asbag49
(g70
g51
NtRp1779
(dp1780
g54
(dp1781
sg63
g1766
sg56
(lp1782
g49
(g50
g51
NtRp1783
(dp1784
g54
(dp1785
g62
I4
ssg63
g1779
sg56
(lp1786
g49
(g58
g51
NtRp1787
(dp1788
g54
(dp1789
g62
I3
ssg63
Nsg56
(lp1790
g49
(g65
g51
NtRp1791
(dp1792
g54
(dp1793
sg63
g1787
sg56
(lp1794
g49
(g70
g51
NtRp1795
(dp1796
g54
(dp1797
sg63
g1791
sg56
(lp1798
g49
(g50
g51
NtRp1799
(dp1800
g54
(dp1801
g62
I3
ssg63
g1795
sg56
(lp1802
S'1'
asbasbasbag49
(g65
g51
NtRp1803
(dp1804
g54
(dp1805
sg63
g1787
sg56
(lp1806
g49
(g70
g51
NtRp1807
(dp1808
g54
(dp1809
sg63
g1803
sg56
(lp1810
g49
(g50
g51
NtRp1811
(dp1812
g54
(dp1813
g62
I3
ssg63
g1807
sg56
(lp1814
S'0'
asbasbasbasbasbasbasbasbasbasbasbag49
(g65
g51
NtRp1815
(dp1816
g54
(dp1817
sg63
g59
sg56
(lp1818
g49
(g70
g51
NtRp1819
(dp1820
g54
(dp1821
g74
g75
ssg63
g1815
sg56
(lp1822
S'extension'
p1823
asbag49
(g70
g51
NtRp1824
(dp1825
g54
(dp1826
g81
g82
ssg63
g1815
sg56
(lp1827
S':'
asbag49
(g70
g51
NtRp1828
(dp1829
g54
(dp1830
sg63
g1815
sg56
(lp1831
g49
(g50
g51
NtRp1832
(dp1833
g54
(dp1834
g62
I5
ssg63
g1828
sg56
(lp1835
S'html'
p1836
asbasbasbag49
(g65
g51
NtRp1837
(dp1838
g54
(dp1839
sg63
g59
sg56
(lp1840
g49
(g70
g51
NtRp1841
(dp1842
g54
(dp1843
g74
g75
ssg63
g1837
sg56
(lp1844
S'folder'
p1845
asbag49
(g70
g51
NtRp1846
(dp1847
g54
(dp1848
g81
g82
ssg63
g1837
sg56
(lp1849
S':'
asbag49
(g70
g51
NtRp1850
(dp1851
g54
(dp1852
sg63
g1837
sg56
(lp1853
g49
(g50
g51
NtRp1854
(dp1855
g54
(dp1856
g62
I5
ssg63
g1850
sg56
(lp1857
S'/Applications/web2py.app/Contents/Resources/applications/MR/'
p1858
asbasbasbag49
(g65
g51
NtRp1859
(dp1860
g54
(dp1861
sg63
g59
sg56
(lp1862
g49
(g70
g51
NtRp1863
(dp1864
g54
(dp1865
g74
g75
ssg63
g1859
sg56
(lp1866
S'function'
p1867
asbag49
(g70
g51
NtRp1868
(dp1869
g54
(dp1870
g81
g82
ssg63
g1859
sg56
(lp1871
S':'
asbag49
(g70
g51
NtRp1872
(dp1873
g54
(dp1874
sg63
g1859
sg56
(lp1875
g49
(g50
g51
NtRp1876
(dp1877
g54
(dp1878
g62
I5
ssg63
g1872
sg56
(lp1879
S'index'
p1880
asbasbasbag49
(g65
g51
NtRp1881
(dp1882
g54
(dp1883
sg63
g59
sg56
(lp1884
g49
(g70
g51
NtRp1885
(dp1886
g54
(dp1887
g74
g75
ssg63
g1881
sg56
(lp1888
S'get_vars'
p1889
asbag49
(g70
g51
NtRp1890
(dp1891
g54
(dp1892
g81
g82
ssg63
g1881
sg56
(lp1893
S':'
asbag49
(g70
g51
NtRp1894
(dp1895
g54
(dp1896
sg63
g1881
sg56
(lp1897
g49
(g50
g51
NtRp1898
(dp1899
g54
(dp1900
g62
I5
ssg63
g1894
sg56
(lp1901
g49
(g58
g51
NtRp1902
(dp1903
g54
(dp1904
g62
I4
ssg63
Nsg56
(lp1905
sbasbasbasbag49
(g65
g51
NtRp1906
(dp1907
g54
(dp1908
sg63
g59
sg56
(lp1909
g49
(g70
g51
NtRp1910
(dp1911
g54
(dp1912
g74
g75
ssg63
g1906
sg56
(lp1913
S'global_settings'
p1914
asbag49
(g70
g51
NtRp1915
(dp1916
g54
(dp1917
g81
g82
ssg63
g1906
sg56
(lp1918
S':'
asbag49
(g70
g51
NtRp1919
(dp1920
g54
(dp1921
sg63
g1906
sg56
(lp1922
g49
(g50
g51
NtRp1923
(dp1924
g54
(dp1925
g62
I5
ssg63
g1919
sg56
(lp1926
g49
(g58
g51
NtRp1927
(dp1928
g54
(dp1929
g62
I4
ssg63
Nsg56
(lp1930
g49
(g65
g51
NtRp1931
(dp1932
g54
(dp1933
sg63
g1927
sg56
(lp1934
g49
(g70
g51
NtRp1935
(dp1936
g54
(dp1937
g74
g75
ssg63
g1931
sg56
(lp1938
g790
asbag49
(g70
g51
NtRp1939
(dp1940
g54
(dp1941
g81
g82
ssg63
g1931
sg56
(lp1942
S':'
asbag49
(g70
g51
NtRp1943
(dp1944
g54
(dp1945
sg63
g1931
sg56
(lp1946
g49
(g50
g51
NtRp1947
(dp1948
g54
(dp1949
g62
I4
ssg63
g1943
sg56
(lp1950
S"set(['/Applications/web2py.app/Contents/Resources/applications/admin/', '/Applications/web2py.app/Contents/Resources/applications/welcome/', '/Applications/web2py.app/Contents/Resources/applications/MR/'])"
p1951
asbasbasbag49
(g65
g51
NtRp1952
(dp1953
g54
(dp1954
sg63
g1927
sg56
(lp1955
g49
(g70
g51
NtRp1956
(dp1957
g54
(dp1958
g74
g75
ssg63
g1952
sg56
(lp1959
g812
asbag49
(g70
g51
NtRp1960
(dp1961
g54
(dp1962
g81
g82
ssg63
g1952
sg56
(lp1963
S':'
asbag49
(g70
g51
NtRp1964
(dp1965
g54
(dp1966
sg63
g1952
sg56
(lp1967
g49
(g50
g51
NtRp1968
(dp1969
g54
(dp1970
g62
I4
ssg63
g1964
sg56
(lp1971
g825
asbasbasbag49
(g65
g51
NtRp1972
(dp1973
g54
(dp1974
sg63
g1927
sg56
(lp1975
g49
(g70
g51
NtRp1976
(dp1977
g54
(dp1978
g74
g75
ssg63
g1972
sg56
(lp1979
g834
asbag49
(g70
g51
NtRp1980
(dp1981
g54
(dp1982
g81
g82
ssg63
g1972
sg56
(lp1983
S':'
asbag49
(g70
g51
NtRp1984
(dp1985
g54
(dp1986
sg63
g1972
sg56
(lp1987
g49
(g50
g51
NtRp1988
(dp1989
g54
(dp1990
g62
I4
ssg63
g1984
sg56
(lp1991
g49
(g58
g51
NtRp1992
(dp1993
g54
(dp1994
g62
I3
ssg63
Nsg56
(lp1995
sbasbasbasbag49
(g65
g51
NtRp1996
(dp1997
g54
(dp1998
sg63
g1927
sg56
(lp1999
g49
(g70
g51
NtRp2000
(dp2001
g54
(dp2002
g74
g75
ssg63
g1996
sg56
(lp2003
g859
asbag49
(g70
g51
NtRp2004
(dp2005
g54
(dp2006
g81
g82
ssg63
g1996
sg56
(lp2007
S':'
asbag49
(g70
g51
NtRp2008
(dp2009
g54
(dp2010
sg63
g1996
sg56
(lp2011
g49
(g50
g51
NtRp2012
(dp2013
g54
(dp2014
g62
I4
ssg63
g2008
sg56
(lp2015
S"<Values at 0x4596f58: {'verbose': False, 'ip': '127.0.0.1', 'with_scheduler': False, 'ips': [], 'shutdown_timeout': 5, 'taskbar': False, 'port': 8000, 'maxthreads': None, 'softcron': False, 'server_name': 'Liu-SiyematoMacBook-Pro.local', 'bpython': False, 'nogui': False, 'pid_filename': 'httpserver.pid', 'extcron': False, 'runcron': False, 'run_system_tests': False, 'test': None, 'folder': '/Applications/web2py.app/Contents/Resources', 'config': '', 'import_models': False, 'winservice': '', 'shell': None, 'run': '', 'log_filename': 'httpserver.log', 'debuglevel': 30, 'args': [''], 'socket_timeout': 5, 'ssl_ca_certificate': None, 'scheduler': None, 'profiler_filename': None, 'ssl_private_key': '', 'scheduler_groups': None, 'password': '<ask>', 'request_queue_size': 5, 'ssl_certificate': '', 'cronjob': False, 'numthreads': None, 'quiet': False, 'interfaces': None, 'minthreads': None, 'timeout': 10, 'plain': False, 'nobanner': False}>"
p2016
asbasbasbag49
(g65
g51
NtRp2017
(dp2018
g54
(dp2019
sg63
g1927
sg56
(lp2020
g49
(g70
g51
NtRp2021
(dp2022
g54
(dp2023
g74
g75
ssg63
g2017
sg56
(lp2024
g881
asbag49
(g70
g51
NtRp2025
(dp2026
g54
(dp2027
g81
g82
ssg63
g2017
sg56
(lp2028
S':'
asbag49
(g70
g51
NtRp2029
(dp2030
g54
(dp2031
sg63
g2017
sg56
(lp2032
g49
(g50
g51
NtRp2033
(dp2034
g54
(dp2035
g62
I4
ssg63
g2029
sg56
(lp2036
S'set([])'
p2037
asbasbasbag49
(g65
g51
NtRp2038
(dp2039
g54
(dp2040
sg63
g1927
sg56
(lp2041
g49
(g70
g51
NtRp2042
(dp2043
g54
(dp2044
g74
g75
ssg63
g2038
sg56
(lp2045
g903
asbag49
(g70
g51
NtRp2046
(dp2047
g54
(dp2048
g81
g82
ssg63
g2038
sg56
(lp2049
S':'
asbag49
(g70
g51
NtRp2050
(dp2051
g54
(dp2052
sg63
g2038
sg56
(lp2053
g49
(g50
g51
NtRp2054
(dp2055
g54
(dp2056
g62
I4
ssg63
g2050
sg56
(lp2057
g916
asbasbasbag49
(g65
g51
NtRp2058
(dp2059
g54
(dp2060
sg63
g1927
sg56
(lp2061
g49
(g70
g51
NtRp2062
(dp2063
g54
(dp2064
g74
g75
ssg63
g2058
sg56
(lp2065
g925
asbag49
(g70
g51
NtRp2066
(dp2067
g54
(dp2068
g81
g82
ssg63
g2058
sg56
(lp2069
S':'
asbag49
(g70
g51
NtRp2070
(dp2071
g54
(dp2072
sg63
g2058
sg56
(lp2073
g49
(g50
g51
NtRp2074
(dp2075
g54
(dp2076
g62
I4
ssg63
g2070
sg56
(lp2077
g938
asbasbasbag49
(g65
g51
NtRp2078
(dp2079
g54
(dp2080
sg63
g1927
sg56
(lp2081
g49
(g70
g51
NtRp2082
(dp2083
g54
(dp2084
g74
g75
ssg63
g2078
sg56
(lp2085
g1145
asbag49
(g70
g51
NtRp2086
(dp2087
g54
(dp2088
g81
g82
ssg63
g2078
sg56
(lp2089
S':'
asbag49
(g70
g51
NtRp2090
(dp2091
g54
(dp2092
sg63
g2078
sg56
(lp2093
g49
(g50
g51
NtRp2094
(dp2095
g54
(dp2096
g62
I4
ssg63
g2090
sg56
(lp2097
g92
asbasbasbag49
(g65
g51
NtRp2098
(dp2099
g54
(dp2100
sg63
g1927
sg56
(lp2101
g49
(g70
g51
NtRp2102
(dp2103
g54
(dp2104
g74
g75
ssg63
g2098
sg56
(lp2105
g1166
asbag49
(g70
g51
NtRp2106
(dp2107
g54
(dp2108
g81
g82
ssg63
g2098
sg56
(lp2109
S':'
asbag49
(g70
g51
NtRp2110
(dp2111
g54
(dp2112
sg63
g2098
sg56
(lp2113
g49
(g50
g51
NtRp2114
(dp2115
g54
(dp2116
g62
I4
ssg63
g2110
sg56
(lp2117
g92
asbasbasbag49
(g65
g51
NtRp2118
(dp2119
g54
(dp2120
sg63
g1927
sg56
(lp2121
g49
(g70
g51
NtRp2122
(dp2123
g54
(dp2124
g74
g75
ssg63
g2118
sg56
(lp2125
g1187
asbag49
(g70
g51
NtRp2126
(dp2127
g54
(dp2128
g81
g82
ssg63
g2118
sg56
(lp2129
S':'
asbag49
(g70
g51
NtRp2130
(dp2131
g54
(dp2132
sg63
g2118
sg56
(lp2133
g49
(g50
g51
NtRp2134
(dp2135
g54
(dp2136
g62
I4
ssg63
g2130
sg56
(lp2137
g49
(g58
g51
NtRp2138
(dp2139
g54
(dp2140
g62
I3
ssg63
Nsg56
(lp2141
g49
(g65
g51
NtRp2142
(dp2143
g54
(dp2144
sg63
g2138
sg56
(lp2145
g49
(g70
g51
NtRp2146
(dp2147
g54
(dp2148
sg63
g2142
sg56
(lp2149
g49
(g50
g51
NtRp2150
(dp2151
g54
(dp2152
g62
I3
ssg63
g2146
sg56
(lp2153
g1216
asbasbasbag49
(g65
g51
NtRp2154
(dp2155
g54
(dp2156
sg63
g2138
sg56
(lp2157
g49
(g70
g51
NtRp2158
(dp2159
g54
(dp2160
sg63
g2154
sg56
(lp2161
g49
(g50
g51
NtRp2162
(dp2163
g54
(dp2164
g62
I3
ssg63
g2158
sg56
(lp2165
g1229
asbasbasbag49
(g65
g51
NtRp2166
(dp2167
g54
(dp2168
sg63
g2138
sg56
(lp2169
g49
(g70
g51
NtRp2170
(dp2171
g54
(dp2172
sg63
g2166
sg56
(lp2173
g49
(g50
g51
NtRp2174
(dp2175
g54
(dp2176
g62
I3
ssg63
g2170
sg56
(lp2177
g1242
asbasbasbag49
(g65
g51
NtRp2178
(dp2179
g54
(dp2180
sg63
g2138
sg56
(lp2181
g49
(g70
g51
NtRp2182
(dp2183
g54
(dp2184
sg63
g2178
sg56
(lp2185
g49
(g50
g51
NtRp2186
(dp2187
g54
(dp2188
g62
I3
ssg63
g2182
sg56
(lp2189
g1255
asbasbasbag49
(g65
g51
NtRp2190
(dp2191
g54
(dp2192
sg63
g2138
sg56
(lp2193
g49
(g70
g51
NtRp2194
(dp2195
g54
(dp2196
sg63
g2190
sg56
(lp2197
g49
(g50
g51
NtRp2198
(dp2199
g54
(dp2200
g62
I3
ssg63
g2194
sg56
(lp2201
g1268
asbasbasbasbasbasbasbag49
(g65
g51
NtRp2202
(dp2203
g54
(dp2204
sg63
g1927
sg56
(lp2205
g49
(g70
g51
NtRp2206
(dp2207
g54
(dp2208
g74
g75
ssg63
g2202
sg56
(lp2209
g1536
asbag49
(g70
g51
NtRp2210
(dp2211
g54
(dp2212
g81
g82
ssg63
g2202
sg56
(lp2213
S':'
asbag49
(g70
g51
NtRp2214
(dp2215
g54
(dp2216
sg63
g2202
sg56
(lp2217
g49
(g50
g51
NtRp2218
(dp2219
g54
(dp2220
g62
I4
ssg63
g2214
sg56
(lp2221
g49
(g58
g51
NtRp2222
(dp2223
g54
(dp2224
g62
I3
ssg63
Nsg56
(lp2225
g49
(g65
g51
NtRp2226
(dp2227
g54
(dp2228
sg63
g2222
sg56
(lp2229
g49
(g70
g51
NtRp2230
(dp2231
g54
(dp2232
sg63
g2226
sg56
(lp2233
g49
(g50
g51
NtRp2234
(dp2235
g54
(dp2236
g62
I3
ssg63
g2230
sg56
(lp2237
S'2'
asbasbasbag49
(g65
g51
NtRp2238
(dp2239
g54
(dp2240
sg63
g2222
sg56
(lp2241
g49
(g70
g51
NtRp2242
(dp2243
g54
(dp2244
sg63
g2238
sg56
(lp2245
g49
(g50
g51
NtRp2246
(dp2247
g54
(dp2248
g62
I3
ssg63
g2242
sg56
(lp2249
S'4'
asbasbasbag49
(g65
g51
NtRp2250
(dp2251
g54
(dp2252
sg63
g2222
sg56
(lp2253
g49
(g70
g51
NtRp2254
(dp2255
g54
(dp2256
sg63
g2250
sg56
(lp2257
g49
(g50
g51
NtRp2258
(dp2259
g54
(dp2260
g62
I3
ssg63
g2254
sg56
(lp2261
S'5'
asbasbasbag49
(g65
g51
NtRp2262
(dp2263
g54
(dp2264
sg63
g2222
sg56
(lp2265
g49
(g70
g51
NtRp2266
(dp2267
g54
(dp2268
sg63
g2262
sg56
(lp2269
g49
(g50
g51
NtRp2270
(dp2271
g54
(dp2272
g62
I3
ssg63
g2266
sg56
(lp2273
g1601
asbasbasbag49
(g65
g51
NtRp2274
(dp2275
g54
(dp2276
sg63
g2222
sg56
(lp2277
g49
(g70
g51
NtRp2278
(dp2279
g54
(dp2280
sg63
g2274
sg56
(lp2281
g49
(g50
g51
NtRp2282
(dp2283
g54
(dp2284
g62
I3
ssg63
g2278
sg56
(lp2285
S'datetime.datetime(2013, 3, 18, 22, 46, 22)'
p2286
asbasbasbasbasbasbasbasbasbasbasbag49
(g65
g51
NtRp2287
(dp2288
g54
(dp2289
sg63
g59
sg56
(lp2290
g49
(g70
g51
NtRp2291
(dp2292
g54
(dp2293
g74
g75
ssg63
g2287
sg56
(lp2294
S'is_https'
p2295
asbag49
(g70
g51
NtRp2296
(dp2297
g54
(dp2298
g81
g82
ssg63
g2287
sg56
(lp2299
S':'
asbag49
(g70
g51
NtRp2300
(dp2301
g54
(dp2302
sg63
g2287
sg56
(lp2303
g49
(g50
g51
NtRp2304
(dp2305
g54
(dp2306
g62
I5
ssg63
g2300
sg56
(lp2307
g92
asbasbasbag49
(g65
g51
NtRp2308
(dp2309
g54
(dp2310
sg63
g59
sg56
(lp2311
g49
(g70
g51
NtRp2312
(dp2313
g54
(dp2314
g74
g75
ssg63
g2308
sg56
(lp2315
S'is_local'
p2316
asbag49
(g70
g51
NtRp2317
(dp2318
g54
(dp2319
g81
g82
ssg63
g2308
sg56
(lp2320
S':'
asbag49
(g70
g51
NtRp2321
(dp2322
g54
(dp2323
sg63
g2308
sg56
(lp2324
g49
(g50
g51
NtRp2325
(dp2326
g54
(dp2327
g62
I5
ssg63
g2321
sg56
(lp2328
g916
asbasbasbag49
(g65
g51
NtRp2329
(dp2330
g54
(dp2331
sg63
g59
sg56
(lp2332
g49
(g70
g51
NtRp2333
(dp2334
g54
(dp2335
g74
g75
ssg63
g2329
sg56
(lp2336
S'is_restful'
p2337
asbag49
(g70
g51
NtRp2338
(dp2339
g54
(dp2340
g81
g82
ssg63
g2329
sg56
(lp2341
S':'
asbag49
(g70
g51
NtRp2342
(dp2343
g54
(dp2344
sg63
g2329
sg56
(lp2345
g49
(g50
g51
NtRp2346
(dp2347
g54
(dp2348
g62
I5
ssg63
g2342
sg56
(lp2349
g92
asbasbasbag49
(g65
g51
NtRp2350
(dp2351
g54
(dp2352
sg63
g59
sg56
(lp2353
g49
(g70
g51
NtRp2354
(dp2355
g54
(dp2356
g74
g75
ssg63
g2350
sg56
(lp2357
S'now'
p2358
asbag49
(g70
g51
NtRp2359
(dp2360
g54
(dp2361
g81
g82
ssg63
g2350
sg56
(lp2362
S':'
asbag49
(g70
g51
NtRp2363
(dp2364
g54
(dp2365
sg63
g2350
sg56
(lp2366
g49
(g50
g51
NtRp2367
(dp2368
g54
(dp2369
g62
I5
ssg63
g2363
sg56
(lp2370
S'datetime.datetime(2013, 5, 6, 21, 45, 54, 194726)'
p2371
asbasbasbag49
(g65
g51
NtRp2372
(dp2373
g54
(dp2374
sg63
g59
sg56
(lp2375
g49
(g70
g51
NtRp2376
(dp2377
g54
(dp2378
g74
g75
ssg63
g2372
sg56
(lp2379
S'post_vars'
p2380
asbag49
(g70
g51
NtRp2381
(dp2382
g54
(dp2383
g81
g82
ssg63
g2372
sg56
(lp2384
S':'
asbag49
(g70
g51
NtRp2385
(dp2386
g54
(dp2387
sg63
g2372
sg56
(lp2388
g49
(g50
g51
NtRp2389
(dp2390
g54
(dp2391
g62
I5
ssg63
g2385
sg56
(lp2392
g49
(g58
g51
NtRp2393
(dp2394
g54
(dp2395
g62
I4
ssg63
Nsg56
(lp2396
sbasbasbasbag49
(g65
g51
NtRp2397
(dp2398
g54
(dp2399
sg63
g59
sg56
(lp2400
g49
(g70
g51
NtRp2401
(dp2402
g54
(dp2403
g74
g75
ssg63
g2397
sg56
(lp2404
S'raw_args'
p2405
asbag49
(g70
g51
NtRp2406
(dp2407
g54
(dp2408
g81
g82
ssg63
g2397
sg56
(lp2409
S':'
asbag49
(g70
g51
NtRp2410
(dp2411
g54
(dp2412
sg63
g2397
sg56
(lp2413
g49
(g50
g51
NtRp2414
(dp2415
g54
(dp2416
g62
I5
ssg63
g2410
sg56
(lp2417
S''
asbasbasbag49
(g65
g51
NtRp2418
(dp2419
g54
(dp2420
sg63
g59
sg56
(lp2421
g49
(g70
g51
NtRp2422
(dp2423
g54
(dp2424
g74
g75
ssg63
g2418
sg56
(lp2425
S'raw_extension'
p2426
asbag49
(g70
g51
NtRp2427
(dp2428
g54
(dp2429
g81
g82
ssg63
g2418
sg56
(lp2430
S':'
asbag49
(g70
g51
NtRp2431
(dp2432
g54
(dp2433
sg63
g2418
sg56
(lp2434
g49
(g50
g51
NtRp2435
(dp2436
g54
(dp2437
g62
I5
ssg63
g2431
sg56
(lp2438
S'None'
p2439
asbasbasbag49
(g65
g51
NtRp2440
(dp2441
g54
(dp2442
sg63
g59
sg56
(lp2443
g49
(g70
g51
NtRp2444
(dp2445
g54
(dp2446
g74
g75
ssg63
g2440
sg56
(lp2447
S'url'
p2448
asbag49
(g70
g51
NtRp2449
(dp2450
g54
(dp2451
g81
g82
ssg63
g2440
sg56
(lp2452
S':'
asbag49
(g70
g51
NtRp2453
(dp2454
g54
(dp2455
sg63
g2440
sg56
(lp2456
g49
(g50
g51
NtRp2457
(dp2458
g54
(dp2459
g62
I5
ssg63
g2453
sg56
(lp2460
g1290
asbasbasbag49
(g65
g51
NtRp2461
(dp2462
g54
(dp2463
sg63
g59
sg56
(lp2464
g49
(g70
g51
NtRp2465
(dp2466
g54
(dp2467
g74
g75
ssg63
g2461
sg56
(lp2468
S'utcnow'
p2469
asbag49
(g70
g51
NtRp2470
(dp2471
g54
(dp2472
g81
g82
ssg63
g2461
sg56
(lp2473
S':'
asbag49
(g70
g51
NtRp2474
(dp2475
g54
(dp2476
sg63
g2461
sg56
(lp2477
g49
(g50
g51
NtRp2478
(dp2479
g54
(dp2480
g62
I5
ssg63
g2474
sg56
(lp2481
S'datetime.datetime(2013, 5, 7, 1, 45, 54, 194739)'
p2482
asbasbasbag49
(g65
g51
NtRp2483
(dp2484
g54
(dp2485
sg63
g59
sg56
(lp2486
g49
(g70
g51
NtRp2487
(dp2488
g54
(dp2489
g74
g75
ssg63
g2483
sg56
(lp2490
S'uuid'
p2491
asbag49
(g70
g51
NtRp2492
(dp2493
g54
(dp2494
g81
g82
ssg63
g2483
sg56
(lp2495
S':'
asbag49
(g70
g51
NtRp2496
(dp2497
g54
(dp2498
sg63
g2483
sg56
(lp2499
g49
(g50
g51
NtRp2500
(dp2501
g54
(dp2502
g62
I5
ssg63
g2496
sg56
(lp2503
S'MR/127.0.0.1.2013-05-06.21-45-54.f5c3ba7f-79b9-4dd8-8faf-e9ad98320bfd'
p2504
asbasbasbag49
(g65
g51
NtRp2505
(dp2506
g54
(dp2507
sg63
g59
sg56
(lp2508
g49
(g70
g51
NtRp2509
(dp2510
g54
(dp2511
g74
g75
ssg63
g2505
sg56
(lp2512
S'vars'
p2513
asbag49
(g70
g51
NtRp2514
(dp2515
g54
(dp2516
g81
g82
ssg63
g2505
sg56
(lp2517
S':'
asbag49
(g70
g51
NtRp2518
(dp2519
g54
(dp2520
sg63
g2505
sg56
(lp2521
g49
(g50
g51
NtRp2522
(dp2523
g54
(dp2524
g62
I5
ssg63
g2518
sg56
(lp2525
g49
(g58
g51
NtRp2526
(dp2527
g54
(dp2528
g62
I4
ssg63
Nsg56
(lp2529
sbasbasbasbag49
(g65
g51
NtRp2530
(dp2531
g54
(dp2532
sg63
g59
sg56
(lp2533
g49
(g70
g51
NtRp2534
(dp2535
g54
(dp2536
g74
g75
ssg63
g2530
sg56
(lp2537
S'wsgi'
p2538
asbag49
(g70
g51
NtRp2539
(dp2540
g54
(dp2541
g81
g82
ssg63
g2530
sg56
(lp2542
S':'
asbag49
(g70
g51
NtRp2543
(dp2544
g54
(dp2545
sg63
g2530
sg56
(lp2546
g49
(g50
g51
NtRp2547
(dp2548
g54
(dp2549
g62
I5
ssg63
g2543
sg56
(lp2550
g49
(g58
g51
NtRp2551
(dp2552
g54
(dp2553
g62
I4
ssg63
Nsg56
(lp2554
g49
(g65
g51
NtRp2555
(dp2556
g54
(dp2557
sg63
g2551
sg56
(lp2558
g49
(g70
g51
NtRp2559
(dp2560
g54
(dp2561
g74
g75
ssg63
g2555
sg56
(lp2562
S'environ'
p2563
asbag49
(g70
g51
NtRp2564
(dp2565
g54
(dp2566
g81
g82
ssg63
g2555
sg56
(lp2567
S':'
asbag49
(g70
g51
NtRp2568
(dp2569
g54
(dp2570
sg63
g2555
sg56
(lp2571
g49
(g50
g51
NtRp2572
(dp2573
g54
(dp2574
g62
I4
ssg63
g2568
sg56
(lp2575
g49
(g58
g51
NtRp2576
(dp2577
g54
(dp2578
g62
I3
ssg63
Nsg56
(lp2579
g49
(g65
g51
NtRp2580
(dp2581
g54
(dp2582
sg63
g2576
sg56
(lp2583
g49
(g70
g51
NtRp2584
(dp2585
g54
(dp2586
g74
g75
ssg63
g2580
sg56
(lp2587
S'HTTP_ACCEPT'
p2588
asbag49
(g70
g51
NtRp2589
(dp2590
g54
(dp2591
g81
g82
ssg63
g2580
sg56
(lp2592
S':'
asbag49
(g70
g51
NtRp2593
(dp2594
g54
(dp2595
sg63
g2580
sg56
(lp2596
g49
(g50
g51
NtRp2597
(dp2598
g54
(dp2599
g62
I3
ssg63
g2593
sg56
(lp2600
g960
asbasbasbag49
(g65
g51
NtRp2601
(dp2602
g54
(dp2603
sg63
g2576
sg56
(lp2604
g49
(g70
g51
NtRp2605
(dp2606
g54
(dp2607
g74
g75
ssg63
g2601
sg56
(lp2608
S'HTTP_ACCEPT_CHARSET'
p2609
asbag49
(g70
g51
NtRp2610
(dp2611
g54
(dp2612
g81
g82
ssg63
g2601
sg56
(lp2613
S':'
asbag49
(g70
g51
NtRp2614
(dp2615
g54
(dp2616
sg63
g2601
sg56
(lp2617
g49
(g50
g51
NtRp2618
(dp2619
g54
(dp2620
g62
I3
ssg63
g2614
sg56
(lp2621
g982
asbasbasbag49
(g65
g51
NtRp2622
(dp2623
g54
(dp2624
sg63
g2576
sg56
(lp2625
g49
(g70
g51
NtRp2626
(dp2627
g54
(dp2628
g74
g75
ssg63
g2622
sg56
(lp2629
S'HTTP_ACCEPT_ENCODING'
p2630
asbag49
(g70
g51
NtRp2631
(dp2632
g54
(dp2633
g81
g82
ssg63
g2622
sg56
(lp2634
S':'
asbag49
(g70
g51
NtRp2635
(dp2636
g54
(dp2637
sg63
g2622
sg56
(lp2638
g49
(g50
g51
NtRp2639
(dp2640
g54
(dp2641
g62
I3
ssg63
g2635
sg56
(lp2642
g1004
asbasbasbag49
(g65
g51
NtRp2643
(dp2644
g54
(dp2645
sg63
g2576
sg56
(lp2646
g49
(g70
g51
NtRp2647
(dp2648
g54
(dp2649
g74
g75
ssg63
g2643
sg56
(lp2650
S'HTTP_ACCEPT_LANGUAGE'
p2651
asbag49
(g70
g51
NtRp2652
(dp2653
g54
(dp2654
g81
g82
ssg63
g2643
sg56
(lp2655
S':'
asbag49
(g70
g51
NtRp2656
(dp2657
g54
(dp2658
sg63
g2643
sg56
(lp2659
g49
(g50
g51
NtRp2660
(dp2661
g54
(dp2662
g62
I3
ssg63
g2656
sg56
(lp2663
g1026
asbasbasbag49
(g65
g51
NtRp2664
(dp2665
g54
(dp2666
sg63
g2576
sg56
(lp2667
g49
(g70
g51
NtRp2668
(dp2669
g54
(dp2670
g74
g75
ssg63
g2664
sg56
(lp2671
S'HTTP_CONNECTION'
p2672
asbag49
(g70
g51
NtRp2673
(dp2674
g54
(dp2675
g81
g82
ssg63
g2664
sg56
(lp2676
S':'
asbag49
(g70
g51
NtRp2677
(dp2678
g54
(dp2679
sg63
g2664
sg56
(lp2680
g49
(g50
g51
NtRp2681
(dp2682
g54
(dp2683
g62
I3
ssg63
g2677
sg56
(lp2684
g1048
asbasbasbag49
(g65
g51
NtRp2685
(dp2686
g54
(dp2687
sg63
g2576
sg56
(lp2688
g49
(g70
g51
NtRp2689
(dp2690
g54
(dp2691
g74
g75
ssg63
g2685
sg56
(lp2692
S'HTTP_COOKIE'
p2693
asbag49
(g70
g51
NtRp2694
(dp2695
g54
(dp2696
g81
g82
ssg63
g2685
sg56
(lp2697
S':'
asbag49
(g70
g51
NtRp2698
(dp2699
g54
(dp2700
sg63
g2685
sg56
(lp2701
g49
(g50
g51
NtRp2702
(dp2703
g54
(dp2704
g62
I3
ssg63
g2698
sg56
(lp2705
g1070
asbasbasbag49
(g65
g51
NtRp2706
(dp2707
g54
(dp2708
sg63
g2576
sg56
(lp2709
g49
(g70
g51
NtRp2710
(dp2711
g54
(dp2712
g74
g75
ssg63
g2706
sg56
(lp2713
S'HTTP_HOST'
p2714
asbag49
(g70
g51
NtRp2715
(dp2716
g54
(dp2717
g81
g82
ssg63
g2706
sg56
(lp2718
S':'
asbag49
(g70
g51
NtRp2719
(dp2720
g54
(dp2721
sg63
g2706
sg56
(lp2722
g49
(g50
g51
NtRp2723
(dp2724
g54
(dp2725
g62
I3
ssg63
g2719
sg56
(lp2726
g1092
asbasbasbag49
(g65
g51
NtRp2727
(dp2728
g54
(dp2729
sg63
g2576
sg56
(lp2730
g49
(g70
g51
NtRp2731
(dp2732
g54
(dp2733
g74
g75
ssg63
g2727
sg56
(lp2734
S'HTTP_REFERER'
p2735
asbag49
(g70
g51
NtRp2736
(dp2737
g54
(dp2738
g81
g82
ssg63
g2727
sg56
(lp2739
S':'
asbag49
(g70
g51
NtRp2740
(dp2741
g54
(dp2742
sg63
g2727
sg56
(lp2743
g49
(g50
g51
NtRp2744
(dp2745
g54
(dp2746
g62
I3
ssg63
g2740
sg56
(lp2747
g1114
asbasbasbag49
(g65
g51
NtRp2748
(dp2749
g54
(dp2750
sg63
g2576
sg56
(lp2751
g49
(g70
g51
NtRp2752
(dp2753
g54
(dp2754
g74
g75
ssg63
g2748
sg56
(lp2755
S'HTTP_USER_AGENT'
p2756
asbag49
(g70
g51
NtRp2757
(dp2758
g54
(dp2759
g81
g82
ssg63
g2748
sg56
(lp2760
S':'
asbag49
(g70
g51
NtRp2761
(dp2762
g54
(dp2763
sg63
g2748
sg56
(lp2764
g49
(g50
g51
NtRp2765
(dp2766
g54
(dp2767
g62
I3
ssg63
g2761
sg56
(lp2768
g1136
asbasbasbag49
(g65
g51
NtRp2769
(dp2770
g54
(dp2771
sg63
g2576
sg56
(lp2772
g49
(g70
g51
NtRp2773
(dp2774
g54
(dp2775
g74
g75
ssg63
g2769
sg56
(lp2776
S'PATH_INFO'
p2777
asbag49
(g70
g51
NtRp2778
(dp2779
g54
(dp2780
g81
g82
ssg63
g2769
sg56
(lp2781
S':'
asbag49
(g70
g51
NtRp2782
(dp2783
g54
(dp2784
sg63
g2769
sg56
(lp2785
g49
(g50
g51
NtRp2786
(dp2787
g54
(dp2788
g62
I3
ssg63
g2782
sg56
(lp2789
g1290
asbasbasbag49
(g65
g51
NtRp2790
(dp2791
g54
(dp2792
sg63
g2576
sg56
(lp2793
g49
(g70
g51
NtRp2794
(dp2795
g54
(dp2796
g74
g75
ssg63
g2790
sg56
(lp2797
S'QUERY_STRING'
p2798
asbag49
(g70
g51
NtRp2799
(dp2800
g54
(dp2801
g81
g82
ssg63
g2790
sg56
(lp2802
S':'
asbag49
(g70
g51
NtRp2803
(dp2804
g54
(dp2805
sg63
g2790
sg56
(lp2806
g49
(g50
g51
NtRp2807
(dp2808
g54
(dp2809
g62
I3
ssg63
g2803
sg56
(lp2810
S''
asbasbasbag49
(g65
g51
NtRp2811
(dp2812
g54
(dp2813
sg63
g2576
sg56
(lp2814
g49
(g70
g51
NtRp2815
(dp2816
g54
(dp2817
g74
g75
ssg63
g2811
sg56
(lp2818
S'REMOTE_ADDR'
p2819
asbag49
(g70
g51
NtRp2820
(dp2821
g54
(dp2822
g81
g82
ssg63
g2811
sg56
(lp2823
S':'
asbag49
(g70
g51
NtRp2824
(dp2825
g54
(dp2826
sg63
g2811
sg56
(lp2827
g49
(g50
g51
NtRp2828
(dp2829
g54
(dp2830
g62
I3
ssg63
g2824
sg56
(lp2831
g204
asbasbasbag49
(g65
g51
NtRp2832
(dp2833
g54
(dp2834
sg63
g2576
sg56
(lp2835
g49
(g70
g51
NtRp2836
(dp2837
g54
(dp2838
g74
g75
ssg63
g2832
sg56
(lp2839
S'REMOTE_PORT'
p2840
asbag49
(g70
g51
NtRp2841
(dp2842
g54
(dp2843
g81
g82
ssg63
g2832
sg56
(lp2844
S':'
asbag49
(g70
g51
NtRp2845
(dp2846
g54
(dp2847
sg63
g2832
sg56
(lp2848
g49
(g50
g51
NtRp2849
(dp2850
g54
(dp2851
g62
I3
ssg63
g2845
sg56
(lp2852
g1354
asbasbasbag49
(g65
g51
NtRp2853
(dp2854
g54
(dp2855
sg63
g2576
sg56
(lp2856
g49
(g70
g51
NtRp2857
(dp2858
g54
(dp2859
g74
g75
ssg63
g2853
sg56
(lp2860
S'REQUEST_METHOD'
p2861
asbag49
(g70
g51
NtRp2862
(dp2863
g54
(dp2864
g81
g82
ssg63
g2853
sg56
(lp2865
S':'
asbag49
(g70
g51
NtRp2866
(dp2867
g54
(dp2868
sg63
g2853
sg56
(lp2869
g49
(g50
g51
NtRp2870
(dp2871
g54
(dp2872
g62
I3
ssg63
g2866
sg56
(lp2873
g1376
asbasbasbag49
(g65
g51
NtRp2874
(dp2875
g54
(dp2876
sg63
g2576
sg56
(lp2877
g49
(g70
g51
NtRp2878
(dp2879
g54
(dp2880
g74
g75
ssg63
g2874
sg56
(lp2881
S'REQUEST_URI'
p2882
asbag49
(g70
g51
NtRp2883
(dp2884
g54
(dp2885
g81
g82
ssg63
g2874
sg56
(lp2886
S':'
asbag49
(g70
g51
NtRp2887
(dp2888
g54
(dp2889
sg63
g2874
sg56
(lp2890
g49
(g50
g51
NtRp2891
(dp2892
g54
(dp2893
g62
I3
ssg63
g2887
sg56
(lp2894
g1290
asbasbasbag49
(g65
g51
NtRp2895
(dp2896
g54
(dp2897
sg63
g2576
sg56
(lp2898
g49
(g70
g51
NtRp2899
(dp2900
g54
(dp2901
g74
g75
ssg63
g2895
sg56
(lp2902
S'SCRIPT_NAME'
p2903
asbag49
(g70
g51
NtRp2904
(dp2905
g54
(dp2906
g81
g82
ssg63
g2895
sg56
(lp2907
S':'
asbag49
(g70
g51
NtRp2908
(dp2909
g54
(dp2910
sg63
g2895
sg56
(lp2911
g49
(g50
g51
NtRp2912
(dp2913
g54
(dp2914
g62
I3
ssg63
g2908
sg56
(lp2915
S''
asbasbasbag49
(g65
g51
NtRp2916
(dp2917
g54
(dp2918
sg63
g2576
sg56
(lp2919
g49
(g70
g51
NtRp2920
(dp2921
g54
(dp2922
g74
g75
ssg63
g2916
sg56
(lp2923
S'SERVER_NAME'
p2924
asbag49
(g70
g51
NtRp2925
(dp2926
g54
(dp2927
g81
g82
ssg63
g2916
sg56
(lp2928
S':'
asbag49
(g70
g51
NtRp2929
(dp2930
g54
(dp2931
sg63
g2916
sg56
(lp2932
g49
(g50
g51
NtRp2933
(dp2934
g54
(dp2935
g62
I3
ssg63
g2929
sg56
(lp2936
g1440
asbasbasbag49
(g65
g51
NtRp2937
(dp2938
g54
(dp2939
sg63
g2576
sg56
(lp2940
g49
(g70
g51
NtRp2941
(dp2942
g54
(dp2943
g74
g75
ssg63
g2937
sg56
(lp2944
S'SERVER_PORT'
p2945
asbag49
(g70
g51
NtRp2946
(dp2947
g54
(dp2948
g81
g82
ssg63
g2937
sg56
(lp2949
S':'
asbag49
(g70
g51
NtRp2950
(dp2951
g54
(dp2952
sg63
g2937
sg56
(lp2953
g49
(g50
g51
NtRp2954
(dp2955
g54
(dp2956
g62
I3
ssg63
g2950
sg56
(lp2957
g1462
asbasbasbag49
(g65
g51
NtRp2958
(dp2959
g54
(dp2960
sg63
g2576
sg56
(lp2961
g49
(g70
g51
NtRp2962
(dp2963
g54
(dp2964
g74
g75
ssg63
g2958
sg56
(lp2965
S'SERVER_PROTOCOL'
p2966
asbag49
(g70
g51
NtRp2967
(dp2968
g54
(dp2969
g81
g82
ssg63
g2958
sg56
(lp2970
S':'
asbag49
(g70
g51
NtRp2971
(dp2972
g54
(dp2973
sg63
g2958
sg56
(lp2974
g49
(g50
g51
NtRp2975
(dp2976
g54
(dp2977
g62
I3
ssg63
g2971
sg56
(lp2978
g1484
asbasbasbag49
(g65
g51
NtRp2979
(dp2980
g54
(dp2981
sg63
g2576
sg56
(lp2982
g49
(g70
g51
NtRp2983
(dp2984
g54
(dp2985
g74
g75
ssg63
g2979
sg56
(lp2986
S'SERVER_SOFTWARE'
p2987
asbag49
(g70
g51
NtRp2988
(dp2989
g54
(dp2990
g81
g82
ssg63
g2979
sg56
(lp2991
S':'
asbag49
(g70
g51
NtRp2992
(dp2993
g54
(dp2994
sg63
g2979
sg56
(lp2995
g49
(g50
g51
NtRp2996
(dp2997
g54
(dp2998
g62
I3
ssg63
g2992
sg56
(lp2999
g1506
asbasbasbag49
(g65
g51
NtRp3000
(dp3001
g54
(dp3002
sg63
g2576
sg56
(lp3003
g49
(g70
g51
NtRp3004
(dp3005
g54
(dp3006
g74
g75
ssg63
g3000
sg56
(lp3007
S'wsgi.errors'
p3008
asbag49
(g70
g51
NtRp3009
(dp3010
g54
(dp3011
g81
g82
ssg63
g3000
sg56
(lp3012
S':'
asbag49
(g70
g51
NtRp3013
(dp3014
g54
(dp3015
sg63
g3000
sg56
(lp3016
g49
(g50
g51
NtRp3017
(dp3018
g54
(dp3019
g62
I3
ssg63
g3013
sg56
(lp3020
S"<open file '<stderr>', mode 'w' at 0x660b0>"
p3021
asbasbasbag49
(g65
g51
NtRp3022
(dp3023
g54
(dp3024
sg63
g2576
sg56
(lp3025
g49
(g70
g51
NtRp3026
(dp3027
g54
(dp3028
g74
g75
ssg63
g3022
sg56
(lp3029
S'wsgi.file_wrapper'
p3030
asbag49
(g70
g51
NtRp3031
(dp3032
g54
(dp3033
g81
g82
ssg63
g3022
sg56
(lp3034
S':'
asbag49
(g70
g51
NtRp3035
(dp3036
g54
(dp3037
sg63
g3022
sg56
(lp3038
g49
(g50
g51
NtRp3039
(dp3040
g54
(dp3041
g62
I3
ssg63
g3035
sg56
(lp3042
S'<class wsgiref.util.FileWrapper at 0x456e060>'
p3043
asbasbasbag49
(g65
g51
NtRp3044
(dp3045
g54
(dp3046
sg63
g2576
sg56
(lp3047
g49
(g70
g51
NtRp3048
(dp3049
g54
(dp3050
g74
g75
ssg63
g3044
sg56
(lp3051
S'wsgi.input'
p3052
asbag49
(g70
g51
NtRp3053
(dp3054
g54
(dp3055
g81
g82
ssg63
g3044
sg56
(lp3056
S':'
asbag49
(g70
g51
NtRp3057
(dp3058
g54
(dp3059
sg63
g3044
sg56
(lp3060
g49
(g50
g51
NtRp3061
(dp3062
g54
(dp3063
g62
I3
ssg63
g3057
sg56
(lp3064
S'<cStringIO.StringO object at 0x7e0caa0>'
p3065
asbasbasbag49
(g65
g51
NtRp3066
(dp3067
g54
(dp3068
sg63
g2576
sg56
(lp3069
g49
(g70
g51
NtRp3070
(dp3071
g54
(dp3072
g74
g75
ssg63
g3066
sg56
(lp3073
S'wsgi.multiprocess'
p3074
asbag49
(g70
g51
NtRp3075
(dp3076
g54
(dp3077
g81
g82
ssg63
g3066
sg56
(lp3078
S':'
asbag49
(g70
g51
NtRp3079
(dp3080
g54
(dp3081
sg63
g3066
sg56
(lp3082
g49
(g50
g51
NtRp3083
(dp3084
g54
(dp3085
g62
I3
ssg63
g3079
sg56
(lp3086
g92
asbasbasbag49
(g65
g51
NtRp3087
(dp3088
g54
(dp3089
sg63
g2576
sg56
(lp3090
g49
(g70
g51
NtRp3091
(dp3092
g54
(dp3093
g74
g75
ssg63
g3087
sg56
(lp3094
S'wsgi.multithread'
p3095
asbag49
(g70
g51
NtRp3096
(dp3097
g54
(dp3098
g81
g82
ssg63
g3087
sg56
(lp3099
S':'
asbag49
(g70
g51
NtRp3100
(dp3101
g54
(dp3102
sg63
g3087
sg56
(lp3103
g49
(g50
g51
NtRp3104
(dp3105
g54
(dp3106
g62
I3
ssg63
g3100
sg56
(lp3107
g916
asbasbasbag49
(g65
g51
NtRp3108
(dp3109
g54
(dp3110
sg63
g2576
sg56
(lp3111
g49
(g70
g51
NtRp3112
(dp3113
g54
(dp3114
g74
g75
ssg63
g3108
sg56
(lp3115
S'wsgi.run_once'
p3116
asbag49
(g70
g51
NtRp3117
(dp3118
g54
(dp3119
g81
g82
ssg63
g3108
sg56
(lp3120
S':'
asbag49
(g70
g51
NtRp3121
(dp3122
g54
(dp3123
sg63
g3108
sg56
(lp3124
g49
(g50
g51
NtRp3125
(dp3126
g54
(dp3127
g62
I3
ssg63
g3121
sg56
(lp3128
g92
asbasbasbag49
(g65
g51
NtRp3129
(dp3130
g54
(dp3131
sg63
g2576
sg56
(lp3132
g49
(g70
g51
NtRp3133
(dp3134
g54
(dp3135
g74
g75
ssg63
g3129
sg56
(lp3136
S'wsgi.url_scheme'
p3137
asbag49
(g70
g51
NtRp3138
(dp3139
g54
(dp3140
g81
g82
ssg63
g3129
sg56
(lp3141
S':'
asbag49
(g70
g51
NtRp3142
(dp3143
g54
(dp3144
sg63
g3129
sg56
(lp3145
g49
(g50
g51
NtRp3146
(dp3147
g54
(dp3148
g62
I3
ssg63
g3142
sg56
(lp3149
g1765
asbasbasbag49
(g65
g51
NtRp3150
(dp3151
g54
(dp3152
sg63
g2576
sg56
(lp3153
g49
(g70
g51
NtRp3154
(dp3155
g54
(dp3156
g74
g75
ssg63
g3150
sg56
(lp3157
S'wsgi.version'
p3158
asbag49
(g70
g51
NtRp3159
(dp3160
g54
(dp3161
g81
g82
ssg63
g3150
sg56
(lp3162
S':'
asbag49
(g70
g51
NtRp3163
(dp3164
g54
(dp3165
sg63
g3150
sg56
(lp3166
g49
(g50
g51
NtRp3167
(dp3168
g54
(dp3169
g62
I3
ssg63
g3163
sg56
(lp3170
S'1'
asbasbasbasbasbasbasbasbasbasbasbasbasbsS'frames'
p3171
(lp3172
(dp3173
S'file'
p3174
S'/home/mdipierro/web2py/gluon/restricted.py'
p3175
sS'dump'
p3176
(dp3177
sS'lnum'
p3178
I212
sS'lines'
p3179
(dp3180
sS'call'
p3181
S'(code="# coding: utf8\\ndb.define_table(\'patient\',\\n    Fi...res=IS_NULL_OR(IS_IN_SET(\'US\',\'CHINA\'))\\n    ),\\n)\\n", environment={\'A\': <class \'gluon.html.A\'>, \'Auth\': <class \'gluon.tools.Auth\'>, \'B\': <class \'gluon.html.B\'>, \'BEAUTIFY\': <class \'gluon.html.BEAUTIFY\'>, \'BODY\': <class \'gluon.html.BODY\'>, \'BR\': <class \'gluon.html.BR\'>, \'BUTTON\': <class \'gluon.html.BUTTON\'>, \'CAT\': <class \'gluon.html.CAT\'>, \'CENTER\': <class \'gluon.html.CENTER\'>, \'CLEANUP\': <class \'gluon.validators.CLEANUP\'>, ...}, layer=\'/Applications/web2py.app/Contents/Resources/applications/MR/models/mobile_user.py\')'
p3182
sS'func'
p3183
S'restricted'
p3184
sa(dp3185
g3174
S'/Applications/web2py.app/Contents/Resources/applications/MR/models/mobile_user.py'
p3186
sg3176
(dp3187
sg3178
I14
sg3179
(dp3188
I9
S'    ),'
p3189
sI10
S"    Field('first_name', length=128, label=T('First name'), default='',"
p3190
sI11
S'        requires=(IS_NOT_EMPTY(error_message=auth.messages.is_empty),'
p3191
sI12
S"        IS_NOT_IN_DB(db, 'auth_user.first_name'))"
p3192
sI13
S'    ),'
p3193
sI14
S"    Field('middle_name', length-128, label=T('Middle name'), default=''),"
p3194
sI15
S"    Field('last_name', length=128, label=T('Last name'), default='',"
p3195
sI16
S'        requires=(IS_NOT_EMPTY(error_message=auth.messages.is_empty),'
p3196
sI17
S"        IS_NOT_IN_DB(db, 'auth_user.last_name'))"
p3197
sI18
S'    ),'
p3198
ssg3181
S'()'
p3199
sg3183
S'<module>'
p3200
sasS'pyver'
p3201
S'Python 2.5.1: /Applications/web2py.app/Contents/MacOS/python'
p3202
sS'session'
p3203
g49
(g50
g51
NtRp3204
(dp3205
g54
(dp3206
sg56
(lp3207
g49
(g58
g51
NtRp3208
(dp3209
g54
(dp3210
g62
I5
ssg63
Nsg56
(lp3211
sbasbsS'etype'
p3212
S"<type 'exceptions.NameError'>"
p3213
sS'date'
p3214
S'Mon May  6 21:45:54 2013'
p3215
sS'response'
p3216
g49
(g50
g51
NtRp3217
(dp3218
g54
(dp3219
sg56
(lp3220
g49
(g58
g51
NtRp3221
(dp3222
g54
(dp3223
g62
I5
ssg63
Nsg56
(lp3224
g49
(g65
g51
NtRp3225
(dp3226
g54
(dp3227
sg63
g3221
sg56
(lp3228
g49
(g70
g51
NtRp3229
(dp3230
g54
(dp3231
g74
g75
ssg63
g3225
sg56
(lp3232
g147
asbag49
(g70
g51
NtRp3233
(dp3234
g54
(dp3235
g81
g82
ssg63
g3225
sg56
(lp3236
S':'
asbag49
(g70
g51
NtRp3237
(dp3238
g54
(dp3239
sg63
g3225
sg56
(lp3240
g49
(g50
g51
NtRp3241
(dp3242
g54
(dp3243
g62
I5
ssg63
g3237
sg56
(lp3244
S'<cStringIO.StringO object at 0x7e0c780>'
p3245
asbasbasbag49
(g65
g51
NtRp3246
(dp3247
g54
(dp3248
sg63
g3221
sg56
(lp3249
g49
(g70
g51
NtRp3250
(dp3251
g54
(dp3252
g74
g75
ssg63
g3246
sg56
(lp3253
g235
asbag49
(g70
g51
NtRp3254
(dp3255
g54
(dp3256
g81
g82
ssg63
g3246
sg56
(lp3257
S':'
asbag49
(g70
g51
NtRp3258
(dp3259
g54
(dp3260
sg63
g3246
sg56
(lp3261
g49
(g50
g51
NtRp3262
(dp3263
g54
(dp3264
g62
I5
ssg63
g3258
sg56
(lp3265
g49
(g58
g51
NtRp3266
(dp3267
g54
(dp3268
g62
I4
ssg63
Nsg56
(lp3269
g49
(g65
g51
NtRp3270
(dp3271
g54
(dp3272
sg63
g3266
sg56
(lp3273
g49
(g70
g51
NtRp3274
(dp3275
g54
(dp3276
g74
g75
ssg63
g3270
sg56
(lp3277
S'session_id_mr'
p3278
asbag49
(g70
g51
NtRp3279
(dp3280
g54
(dp3281
g81
g82
ssg63
g3270
sg56
(lp3282
S':'
asbag49
(g70
g51
NtRp3283
(dp3284
g54
(dp3285
sg63
g3270
sg56
(lp3286
g49
(g50
g51
NtRp3287
(dp3288
g54
(dp3289
g62
I4
ssg63
g3283
sg56
(lp3290
g446
ag49
(g58
g51
NtRp3291
(dp3292
g54
(dp3293
g62
I3
ssg63
Nsg56
(lp3294
g49
(g65
g51
NtRp3295
(dp3296
g54
(dp3297
sg63
g3291
sg56
(lp3298
g49
(g70
g51
NtRp3299
(dp3300
g54
(dp3301
g74
g75
ssg63
g3295
sg56
(lp3302
g286
asbag49
(g70
g51
NtRp3303
(dp3304
g54
(dp3305
g81
g82
ssg63
g3295
sg56
(lp3306
S':'
asbag49
(g70
g51
NtRp3307
(dp3308
g54
(dp3309
sg63
g3295
sg56
(lp3310
g49
(g50
g51
NtRp3311
(dp3312
g54
(dp3313
g62
I3
ssg63
g3307
sg56
(lp3314
S''
asbasbasbag49
(g65
g51
NtRp3315
(dp3316
g54
(dp3317
sg63
g3291
sg56
(lp3318
g49
(g70
g51
NtRp3319
(dp3320
g54
(dp3321
g74
g75
ssg63
g3315
sg56
(lp3322
g307
asbag49
(g70
g51
NtRp3323
(dp3324
g54
(dp3325
g81
g82
ssg63
g3315
sg56
(lp3326
S':'
asbag49
(g70
g51
NtRp3327
(dp3328
g54
(dp3329
sg63
g3315
sg56
(lp3330
g49
(g50
g51
NtRp3331
(dp3332
g54
(dp3333
g62
I3
ssg63
g3327
sg56
(lp3334
S''
asbasbasbag49
(g65
g51
NtRp3335
(dp3336
g54
(dp3337
sg63
g3291
sg56
(lp3338
g49
(g70
g51
NtRp3339
(dp3340
g54
(dp3341
g74
g75
ssg63
g3335
sg56
(lp3342
g328
asbag49
(g70
g51
NtRp3343
(dp3344
g54
(dp3345
g81
g82
ssg63
g3335
sg56
(lp3346
S':'
asbag49
(g70
g51
NtRp3347
(dp3348
g54
(dp3349
sg63
g3335
sg56
(lp3350
g49
(g50
g51
NtRp3351
(dp3352
g54
(dp3353
g62
I3
ssg63
g3347
sg56
(lp3354
S''
asbasbasbag49
(g65
g51
NtRp3355
(dp3356
g54
(dp3357
sg63
g3291
sg56
(lp3358
g49
(g70
g51
NtRp3359
(dp3360
g54
(dp3361
g74
g75
ssg63
g3355
sg56
(lp3362
g349
asbag49
(g70
g51
NtRp3363
(dp3364
g54
(dp3365
g81
g82
ssg63
g3355
sg56
(lp3366
S':'
asbag49
(g70
g51
NtRp3367
(dp3368
g54
(dp3369
sg63
g3355
sg56
(lp3370
g49
(g50
g51
NtRp3371
(dp3372
g54
(dp3373
g62
I3
ssg63
g3367
sg56
(lp3374
S''
asbasbasbag49
(g65
g51
NtRp3375
(dp3376
g54
(dp3377
sg63
g3291
sg56
(lp3378
g49
(g70
g51
NtRp3379
(dp3380
g54
(dp3381
g74
g75
ssg63
g3375
sg56
(lp3382
g370
asbag49
(g70
g51
NtRp3383
(dp3384
g54
(dp3385
g81
g82
ssg63
g3375
sg56
(lp3386
S':'
asbag49
(g70
g51
NtRp3387
(dp3388
g54
(dp3389
sg63
g3375
sg56
(lp3390
g49
(g50
g51
NtRp3391
(dp3392
g54
(dp3393
g62
I3
ssg63
g3387
sg56
(lp3394
S'/'
asbasbasbag49
(g65
g51
NtRp3395
(dp3396
g54
(dp3397
sg63
g3291
sg56
(lp3398
g49
(g70
g51
NtRp3399
(dp3400
g54
(dp3401
g74
g75
ssg63
g3395
sg56
(lp3402
g391
asbag49
(g70
g51
NtRp3403
(dp3404
g54
(dp3405
g81
g82
ssg63
g3395
sg56
(lp3406
S':'
asbag49
(g70
g51
NtRp3407
(dp3408
g54
(dp3409
sg63
g3395
sg56
(lp3410
g49
(g50
g51
NtRp3411
(dp3412
g54
(dp3413
g62
I3
ssg63
g3407
sg56
(lp3414
S''
asbasbasbag49
(g65
g51
NtRp3415
(dp3416
g54
(dp3417
sg63
g3291
sg56
(lp3418
g49
(g70
g51
NtRp3419
(dp3420
g54
(dp3421
g74
g75
ssg63
g3415
sg56
(lp3422
g412
asbag49
(g70
g51
NtRp3423
(dp3424
g54
(dp3425
g81
g82
ssg63
g3415
sg56
(lp3426
S':'
asbag49
(g70
g51
NtRp3427
(dp3428
g54
(dp3429
sg63
g3415
sg56
(lp3430
g49
(g50
g51
NtRp3431
(dp3432
g54
(dp3433
g62
I3
ssg63
g3427
sg56
(lp3434
S''
asbasbasbasbasbasbasbasbasbasbasbag49
(g65
g51
NtRp3435
(dp3436
g54
(dp3437
sg63
g3221
sg56
(lp3438
g49
(g70
g51
NtRp3439
(dp3440
g54
(dp3441
g74
g75
ssg63
g3435
sg56
(lp3442
S'delimiters'
p3443
asbag49
(g70
g51
NtRp3444
(dp3445
g54
(dp3446
g81
g82
ssg63
g3435
sg56
(lp3447
S':'
asbag49
(g70
g51
NtRp3448
(dp3449
g54
(dp3450
sg63
g3435
sg56
(lp3451
g49
(g50
g51
NtRp3452
(dp3453
g54
(dp3454
g62
I5
ssg63
g3448
sg56
(lp3455
g49
(g58
g51
NtRp3456
(dp3457
g54
(dp3458
g62
I4
ssg63
Nsg56
(lp3459
g49
(g65
g51
NtRp3460
(dp3461
g54
(dp3462
sg63
g3456
sg56
(lp3463
g49
(g70
g51
NtRp3464
(dp3465
g54
(dp3466
sg63
g3460
sg56
(lp3467
g49
(g50
g51
NtRp3468
(dp3469
g54
(dp3470
g62
I4
ssg63
g3464
sg56
(lp3471
S'{{'
p3472
asbasbasbag49
(g65
g51
NtRp3473
(dp3474
g54
(dp3475
sg63
g3456
sg56
(lp3476
g49
(g70
g51
NtRp3477
(dp3478
g54
(dp3479
sg63
g3473
sg56
(lp3480
g49
(g50
g51
NtRp3481
(dp3482
g54
(dp3483
g62
I4
ssg63
g3477
sg56
(lp3484
S'}}'
p3485
asbasbasbasbasbasbasbag49
(g65
g51
NtRp3486
(dp3487
g54
(dp3488
sg63
g3221
sg56
(lp3489
g49
(g70
g51
NtRp3490
(dp3491
g54
(dp3492
g74
g75
ssg63
g3486
sg56
(lp3493
S'files'
p3494
asbag49
(g70
g51
NtRp3495
(dp3496
g54
(dp3497
g81
g82
ssg63
g3486
sg56
(lp3498
S':'
asbag49
(g70
g51
NtRp3499
(dp3500
g54
(dp3501
sg63
g3486
sg56
(lp3502
g49
(g50
g51
NtRp3503
(dp3504
g54
(dp3505
g62
I5
ssg63
g3499
sg56
(lp3506
g49
(g58
g51
NtRp3507
(dp3508
g54
(dp3509
g62
I4
ssg63
Nsg56
(lp3510
sbasbasbasbag49
(g65
g51
NtRp3511
(dp3512
g54
(dp3513
sg63
g3221
sg56
(lp3514
g49
(g70
g51
NtRp3515
(dp3516
g54
(dp3517
g74
g75
ssg63
g3511
sg56
(lp3518
S'flash'
p3519
asbag49
(g70
g51
NtRp3520
(dp3521
g54
(dp3522
g81
g82
ssg63
g3511
sg56
(lp3523
S':'
asbag49
(g70
g51
NtRp3524
(dp3525
g54
(dp3526
sg63
g3511
sg56
(lp3527
g49
(g50
g51
NtRp3528
(dp3529
g54
(dp3530
g62
I5
ssg63
g3524
sg56
(lp3531
S''
asbasbasbag49
(g65
g51
NtRp3532
(dp3533
g54
(dp3534
sg63
g3221
sg56
(lp3535
g49
(g70
g51
NtRp3536
(dp3537
g54
(dp3538
g74
g75
ssg63
g3532
sg56
(lp3539
S'generic_patterns'
p3540
asbag49
(g70
g51
NtRp3541
(dp3542
g54
(dp3543
g81
g82
ssg63
g3532
sg56
(lp3544
S':'
asbag49
(g70
g51
NtRp3545
(dp3546
g54
(dp3547
sg63
g3532
sg56
(lp3548
g49
(g50
g51
NtRp3549
(dp3550
g54
(dp3551
g62
I5
ssg63
g3545
sg56
(lp3552
g49
(g58
g51
NtRp3553
(dp3554
g54
(dp3555
g62
I4
ssg63
Nsg56
(lp3556
g49
(g65
g51
NtRp3557
(dp3558
g54
(dp3559
sg63
g3553
sg56
(lp3560
g49
(g70
g51
NtRp3561
(dp3562
g54
(dp3563
sg63
g3557
sg56
(lp3564
g49
(g50
g51
NtRp3565
(dp3566
g54
(dp3567
g62
I4
ssg63
g3561
sg56
(lp3568
S'*'
asbasbasbasbasbasbasbag49
(g65
g51
NtRp3569
(dp3570
g54
(dp3571
sg63
g3221
sg56
(lp3572
g49
(g70
g51
NtRp3573
(dp3574
g54
(dp3575
g74
g75
ssg63
g3569
sg56
(lp3576
S'google_analytics_id'
p3577
asbag49
(g70
g51
NtRp3578
(dp3579
g54
(dp3580
g81
g82
ssg63
g3569
sg56
(lp3581
S':'
asbag49
(g70
g51
NtRp3582
(dp3583
g54
(dp3584
sg63
g3569
sg56
(lp3585
g49
(g50
g51
NtRp3586
(dp3587
g54
(dp3588
g62
I5
ssg63
g3582
sg56
(lp3589
S'None'
p3590
asbasbasbag49
(g65
g51
NtRp3591
(dp3592
g54
(dp3593
sg63
g3221
sg56
(lp3594
g49
(g70
g51
NtRp3595
(dp3596
g54
(dp3597
g74
g75
ssg63
g3591
sg56
(lp3598
S'headers'
p3599
asbag49
(g70
g51
NtRp3600
(dp3601
g54
(dp3602
g81
g82
ssg63
g3591
sg56
(lp3603
S':'
asbag49
(g70
g51
NtRp3604
(dp3605
g54
(dp3606
sg63
g3591
sg56
(lp3607
g49
(g50
g51
NtRp3608
(dp3609
g54
(dp3610
g62
I5
ssg63
g3604
sg56
(lp3611
g49
(g58
g51
NtRp3612
(dp3613
g54
(dp3614
g62
I4
ssg63
Nsg56
(lp3615
g49
(g65
g51
NtRp3616
(dp3617
g54
(dp3618
sg63
g3612
sg56
(lp3619
g49
(g70
g51
NtRp3620
(dp3621
g54
(dp3622
g74
g75
ssg63
g3616
sg56
(lp3623
S'X-Powered-By'
p3624
asbag49
(g70
g51
NtRp3625
(dp3626
g54
(dp3627
g81
g82
ssg63
g3616
sg56
(lp3628
S':'
asbag49
(g70
g51
NtRp3629
(dp3630
g54
(dp3631
sg63
g3616
sg56
(lp3632
g49
(g50
g51
NtRp3633
(dp3634
g54
(dp3635
g62
I4
ssg63
g3629
sg56
(lp3636
S'web2py'
p3637
asbasbasbasbasbasbasbag49
(g65
g51
NtRp3638
(dp3639
g54
(dp3640
sg63
g3221
sg56
(lp3641
g49
(g70
g51
NtRp3642
(dp3643
g54
(dp3644
g74
g75
ssg63
g3638
sg56
(lp3645
S'logo'
p3646
asbag49
(g70
g51
NtRp3647
(dp3648
g54
(dp3649
g81
g82
ssg63
g3638
sg56
(lp3650
S':'
asbag49
(g70
g51
NtRp3651
(dp3652
g54
(dp3653
sg63
g3638
sg56
(lp3654
g49
(g50
g51
NtRp3655
(dp3656
g54
(dp3657
g62
I5
ssg63
g3651
sg56
(lp3658
g49
(cgluon.html
A
p3659
g51
NtRp3660
(dp3661
g54
(dp3662
S'_class'
p3663
S'brand'
p3664
sS'_href'
p3665
S'http://www.web2py.com/'
p3666
ssg63
Nsg56
(lp3667
g49
(cgluon.html
B
p3668
g51
NtRp3669
(dp3670
g54
(dp3671
sg63
g3660
sg56
(lp3672
S'web'
p3673
ag49
(cgluon.html
SPAN
p3674
g51
NtRp3675
(dp3676
g54
(dp3677
sg63
g3669
sg56
(lp3678
I2
asbaS'py'
p3679
asbacgluon.html
XML_unpickle
p3680
(S's\r\x00\x00\x00&trade;&nbsp;'
tRp3681
asbasbasbasbag49
(g65
g51
NtRp3682
(dp3683
g54
(dp3684
sg63
g3221
sg56
(lp3685
g49
(g70
g51
NtRp3686
(dp3687
g54
(dp3688
g74
g75
ssg63
g3682
sg56
(lp3689
S'menu'
p3690
asbag49
(g70
g51
NtRp3691
(dp3692
g54
(dp3693
g81
g82
ssg63
g3682
sg56
(lp3694
S':'
asbag49
(g70
g51
NtRp3695
(dp3696
g54
(dp3697
sg63
g3682
sg56
(lp3698
g49
(g50
g51
NtRp3699
(dp3700
g54
(dp3701
g62
I5
ssg63
g3695
sg56
(lp3702
g49
(g58
g51
NtRp3703
(dp3704
g54
(dp3705
g62
I4
ssg63
Nsg56
(lp3706
g49
(g65
g51
NtRp3707
(dp3708
g54
(dp3709
sg63
g3703
sg56
(lp3710
g49
(g70
g51
NtRp3711
(dp3712
g54
(dp3713
sg63
g3707
sg56
(lp3714
g49
(g50
g51
NtRp3715
(dp3716
g54
(dp3717
g62
I4
ssg63
g3711
sg56
(lp3718
g49
(g58
g51
NtRp3719
(dp3720
g54
(dp3721
g62
I3
ssg63
Nsg56
(lp3722
g49
(g65
g51
NtRp3723
(dp3724
g54
(dp3725
sg63
g3719
sg56
(lp3726
g49
(g70
g51
NtRp3727
(dp3728
g54
(dp3729
sg63
g3723
sg56
(lp3730
g49
(g50
g51
NtRp3731
(dp3732
g54
(dp3733
g62
I3
ssg63
g3727
sg56
(lp3734
cgluon.languages
lazyT_unpickle
p3735
(S't\x04\x00\x00\x00Home'
tRp3736
asbasbasbag49
(g65
g51
NtRp3737
(dp3738
g54
(dp3739
sg63
g3719
sg56
(lp3740
g49
(g70
g51
NtRp3741
(dp3742
g54
(dp3743
sg63
g3737
sg56
(lp3744
g49
(g50
g51
NtRp3745
(dp3746
g54
(dp3747
g62
I3
ssg63
g3741
sg56
(lp3748
g92
asbasbasbag49
(g65
g51
NtRp3749
(dp3750
g54
(dp3751
sg63
g3719
sg56
(lp3752
g49
(g70
g51
NtRp3753
(dp3754
g54
(dp3755
sg63
g3749
sg56
(lp3756
g49
(g50
g51
NtRp3757
(dp3758
g54
(dp3759
g62
I3
ssg63
g3753
sg56
(lp3760
S'/MR/default/index'
p3761
asbasbasbag49
(g65
g51
NtRp3762
(dp3763
g54
(dp3764
sg63
g3719
sg56
(lp3765
g49
(g70
g51
NtRp3766
(dp3767
g54
(dp3768
sg63
g3762
sg56
(lp3769
g49
(g50
g51
NtRp3770
(dp3771
g54
(dp3772
g62
I3
ssg63
g3766
sg56
(lp3773
g49
(g58
g51
NtRp3774
(dp3775
g54
(dp3776
g62
I2
ssg63
Nsg56
(lp3777
sbasbasbasbasbasbasbasbag49
(g65
g51
NtRp3778
(dp3779
g54
(dp3780
sg63
g3703
sg56
(lp3781
g49
(g70
g51
NtRp3782
(dp3783
g54
(dp3784
sg63
g3778
sg56
(lp3785
g49
(g50
g51
NtRp3786
(dp3787
g54
(dp3788
g62
I4
ssg63
g3782
sg56
(lp3789
g49
(g58
g51
NtRp3790
(dp3791
g54
(dp3792
g62
I3
ssg63
Nsg56
(lp3793
g49
(g65
g51
NtRp3794
(dp3795
g54
(dp3796
sg63
g3790
sg56
(lp3797
g49
(g70
g51
NtRp3798
(dp3799
g54
(dp3800
sg63
g3794
sg56
(lp3801
g49
(g50
g51
NtRp3802
(dp3803
g54
(dp3804
g62
I3
ssg63
g3798
sg56
(lp3805
g49
(g3674
g51
NtRp3806
(dp3807
g54
(dp3808
g3663
S'highlighted'
p3809
ssg63
Nsg56
(lp3810
g3637
asbasbasbasbag49
(g65
g51
NtRp3811
(dp3812
g54
(dp3813
sg63
g3790
sg56
(lp3814
g49
(g70
g51
NtRp3815
(dp3816
g54
(dp3817
sg63
g3811
sg56
(lp3818
g49
(g50
g51
NtRp3819
(dp3820
g54
(dp3821
g62
I3
ssg63
g3815
sg56
(lp3822
g92
asbasbasbag49
(g65
g51
NtRp3823
(dp3824
g54
(dp3825
sg63
g3790
sg56
(lp3826
g49
(g70
g51
NtRp3827
(dp3828
g54
(dp3829
sg63
g3823
sg56
(lp3830
g49
(g50
g51
NtRp3831
(dp3832
g54
(dp3833
g62
I3
ssg63
g3827
sg56
(lp3834
S'http://web2py.com'
p3835
asbasbasbag49
(g65
g51
NtRp3836
(dp3837
g54
(dp3838
sg63
g3790
sg56
(lp3839
g49
(g70
g51
NtRp3840
(dp3841
g54
(dp3842
sg63
g3836
sg56
(lp3843
g49
(g50
g51
NtRp3844
(dp3845
g54
(dp3846
g62
I3
ssg63
g3840
sg56
(lp3847
g49
(g58
g51
NtRp3848
(dp3849
g54
(dp3850
g62
I2
ssg63
Nsg56
(lp3851
g49
(g65
g51
NtRp3852
(dp3853
g54
(dp3854
sg63
g3848
sg56
(lp3855
g49
(g70
g51
NtRp3856
(dp3857
g54
(dp3858
sg63
g3852
sg56
(lp3859
g49
(g50
g51
NtRp3860
(dp3861
g54
(dp3862
g62
I2
ssg63
g3856
sg56
(lp3863
g49
(g58
g51
NtRp3864
(dp3865
g54
(dp3866
g62
I1
ssg63
Nsg56
(lp3867
g49
(g65
g51
NtRp3868
(dp3869
g54
(dp3870
sg63
g3864
sg56
(lp3871
g49
(g70
g51
NtRp3872
(dp3873
g54
(dp3874
sg63
g3868
sg56
(lp3875
g49
(g50
g51
NtRp3876
(dp3877
g54
(dp3878
g62
I1
ssg63
g3872
sg56
(lp3879
g3735
(S's\x08\x00\x00\x00My Sites'
tRp3880
asbasbasbag49
(g65
g51
NtRp3881
(dp3882
g54
(dp3883
sg63
g3864
sg56
(lp3884
g49
(g70
g51
NtRp3885
(dp3886
g54
(dp3887
sg63
g3881
sg56
(lp3888
g49
(g50
g51
NtRp3889
(dp3890
g54
(dp3891
g62
I1
ssg63
g3885
sg56
(lp3892
I00
asbasbasbag49
(g65
g51
NtRp3893
(dp3894
g54
(dp3895
sg63
g3864
sg56
(lp3896
g49
(g70
g51
NtRp3897
(dp3898
g54
(dp3899
sg63
g3893
sg56
(lp3900
g49
(g50
g51
NtRp3901
(dp3902
g54
(dp3903
g62
I1
ssg63
g3897
sg56
(lp3904
S'/admin/default/site'
p3905
asbasbasbasbasbasbasbag49
(g65
g51
NtRp3906
(dp3907
g54
(dp3908
sg63
g3848
sg56
(lp3909
g49
(g70
g51
NtRp3910
(dp3911
g54
(dp3912
sg63
g3906
sg56
(lp3913
g49
(g50
g51
NtRp3914
(dp3915
g54
(dp3916
g62
I2
ssg63
g3910
sg56
(lp3917
g49
(g58
g51
NtRp3918
(dp3919
g54
(dp3920
g62
I1
ssg63
Nsg56
(lp3921
g49
(g65
g51
NtRp3922
(dp3923
g54
(dp3924
sg63
g3918
sg56
(lp3925
g49
(g70
g51
NtRp3926
(dp3927
g54
(dp3928
sg63
g3922
sg56
(lp3929
g49
(g50
g51
NtRp3930
(dp3931
g54
(dp3932
g62
I1
ssg63
g3926
sg56
(lp3933
g3735
(S's\x08\x00\x00\x00This App'
tRp3934
asbasbasbag49
(g65
g51
NtRp3935
(dp3936
g54
(dp3937
sg63
g3918
sg56
(lp3938
g49
(g70
g51
NtRp3939
(dp3940
g54
(dp3941
sg63
g3935
sg56
(lp3942
g49
(g50
g51
NtRp3943
(dp3944
g54
(dp3945
g62
I1
ssg63
g3939
sg56
(lp3946
I00
asbasbasbag49
(g65
g51
NtRp3947
(dp3948
g54
(dp3949
sg63
g3918
sg56
(lp3950
g49
(g70
g51
NtRp3951
(dp3952
g54
(dp3953
sg63
g3947
sg56
(lp3954
g49
(g50
g51
NtRp3955
(dp3956
g54
(dp3957
g62
I1
ssg63
g3951
sg56
(lp3958
S'/admin/default/design/MR'
p3959
asbasbasbag49
(g65
g51
NtRp3960
(dp3961
g54
(dp3962
sg63
g3918
sg56
(lp3963
g49
(g70
g51
NtRp3964
(dp3965
g54
(dp3966
sg63
g3960
sg56
(lp3967
g49
(g50
g51
NtRp3968
(dp3969
g54
(dp3970
g62
I1
ssg63
g3964
sg56
(lp3971
(lp3972
(g3735
(S's\x06\x00\x00\x00\xe6\x8e\xa7\xe4\xbb\xb6'
tRp3973
I00
S'/admin/default/edit/MR/controllers/appadmin.py'
tp3974
a(g3735
(S's\x06\x00\x00\x00\xe8\xa6\x96\xe5\x9c\x96'
tRp3975
I00
S'/admin/default/edit/MR/views/appadmin/index.html'
tp3976
a(g3735
(S's\x0c\x00\x00\x00\xe7\xb6\xb2\xe9\xa0\x81\xe9\x85\x8d\xe7\xbd\xae'
tRp3977
I00
S'/admin/default/edit/MR/views/layout.html'
tp3978
a(g3735
(S's\x0f\x00\x00\x00\xe7\xb6\xb2\xe9\xa0\x81\xe9\xa2\xa8\xe6\xa0\xbc\xe6\xaa\x94'
tRp3979
I00
S'/admin/default/edit/MR/static/css/web2py.css'
tp3980
a(g3735
(S's\x0f\x00\x00\x00\xe8\xb3\x87\xe6\x96\x99\xe5\xba\xab\xe6\xa8\xa1\xe7\xb5\x84'
tRp3981
I00
S'/admin/default/edit/MR/models/db.py'
tp3982
a(g3735
(S's\x12\x00\x00\x00\xe9\x81\xb8\xe5\x96\xae\xe6\xa8\xa1\xe7\xb5\x84(menu)'
tRp3983
I00
S'/admin/default/edit/MR/models/menu.py'
tp3984
a(g3735
(S's\t\x00\x00\x00\xe8\xb3\x87\xe6\x96\x99\xe5\xba\xab'
tRp3985
I00
S'/MR/appadmin/index'
tp3986
a(g3735
(S't\x06\x00\x00\x00Errors'
tRp3987
I00
S'/admin/default/errors/MR'
tp3988
a(g3735
(S's\x06\x00\x00\x00\xe9\x97\x9c\xe6\x96\xbc'
tRp3989
I00
S'/admin/default/about/MR'
tp3990
aasbasbasbasbasbasbasbag49
(g65
g51
NtRp3991
(dp3992
g54
(dp3993
sg63
g3848
sg56
(lp3994
g49
(g70
g51
NtRp3995
(dp3996
g54
(dp3997
sg63
g3991
sg56
(lp3998
g49
(g50
g51
NtRp3999
(dp4000
g54
(dp4001
g62
I2
ssg63
g3995
sg56
(lp4002
g49
(g58
g51
NtRp4003
(dp4004
g54
(dp4005
g62
I1
ssg63
Nsg56
(lp4006
g49
(g65
g51
NtRp4007
(dp4008
g54
(dp4009
sg63
g4003
sg56
(lp4010
g49
(g70
g51
NtRp4011
(dp4012
g54
(dp4013
sg63
g4007
sg56
(lp4014
g49
(g50
g51
NtRp4015
(dp4016
g54
(dp4017
g62
I1
ssg63
g4011
sg56
(lp4018
S'web2py.com'
p4019
asbasbasbag49
(g65
g51
NtRp4020
(dp4021
g54
(dp4022
sg63
g4003
sg56
(lp4023
g49
(g70
g51
NtRp4024
(dp4025
g54
(dp4026
sg63
g4020
sg56
(lp4027
g49
(g50
g51
NtRp4028
(dp4029
g54
(dp4030
g62
I1
ssg63
g4024
sg56
(lp4031
I00
asbasbasbag49
(g65
g51
NtRp4032
(dp4033
g54
(dp4034
sg63
g4003
sg56
(lp4035
g49
(g70
g51
NtRp4036
(dp4037
g54
(dp4038
sg63
g4032
sg56
(lp4039
g49
(g50
g51
NtRp4040
(dp4041
g54
(dp4042
g62
I1
ssg63
g4036
sg56
(lp4043
S'http://www.web2py.com'
p4044
asbasbasbag49
(g65
g51
NtRp4045
(dp4046
g54
(dp4047
sg63
g4003
sg56
(lp4048
g49
(g70
g51
NtRp4049
(dp4050
g54
(dp4051
sg63
g4045
sg56
(lp4052
g49
(g50
g51
NtRp4053
(dp4054
g54
(dp4055
g62
I1
ssg63
g4049
sg56
(lp4056
(lp4057
(g3735
(S't\x08\x00\x00\x00Download'
tRp4058
I00
S'http://www.web2py.com/examples/default/download'
p4059
tp4060
a(g3735
(S't\x07\x00\x00\x00Support'
tRp4061
I00
S'http://www.web2py.com/examples/default/support'
p4062
tp4063
a(g3735
(S't\x04\x00\x00\x00Demo'
tRp4064
I00
S'http://web2py.com/demo_admin'
p4065
tp4066
a(g3735
(S's\x0e\x00\x00\x00Quick Examples'
tRp4067
I00
S'http://web2py.com/examples/default/examples'
p4068
tp4069
a(g3735
(S't\x03\x00\x00\x00FAQ'
tRp4070
I00
S'http://web2py.com/AlterEgo'
p4071
tp4072
a(g3735
(S't\x06\x00\x00\x00Videos'
tRp4073
I00
S'http://www.web2py.com/examples/default/videos/'
p4074
tp4075
a(g3735
(S's\x11\x00\x00\x00Free Applications'
tRp4076
I00
S'http://web2py.com/appliances'
p4077
tp4078
a(g3735
(S't\x07\x00\x00\x00Plugins'
tRp4079
I00
S'http://web2py.com/plugins'
p4080
tp4081
a(g3735
(S't\x07\x00\x00\x00Layouts'
tRp4082
I00
S'http://web2py.com/layouts'
p4083
tp4084
a(g3735
(S't\x07\x00\x00\x00Recipes'
tRp4085
I00
S'http://web2pyslices.com/'
p4086
tp4087
a(g3735
(S't\x08\x00\x00\x00Semantic'
tRp4088
I00
S'http://web2py.com/semantic'
p4089
tp4090
aasbasbasbasbasbasbasbag49
(g65
g51
NtRp4091
(dp4092
g54
(dp4093
sg63
g3848
sg56
(lp4094
g49
(g70
g51
NtRp4095
(dp4096
g54
(dp4097
sg63
g4091
sg56
(lp4098
g49
(g50
g51
NtRp4099
(dp4100
g54
(dp4101
g62
I2
ssg63
g4095
sg56
(lp4102
g49
(g58
g51
NtRp4103
(dp4104
g54
(dp4105
g62
I1
ssg63
Nsg56
(lp4106
g49
(g65
g51
NtRp4107
(dp4108
g54
(dp4109
sg63
g4103
sg56
(lp4110
g49
(g70
g51
NtRp4111
(dp4112
g54
(dp4113
sg63
g4107
sg56
(lp4114
g49
(g50
g51
NtRp4115
(dp4116
g54
(dp4117
g62
I1
ssg63
g4111
sg56
(lp4118
g3735
(S't\r\x00\x00\x00Documentation'
tRp4119
asbasbasbag49
(g65
g51
NtRp4120
(dp4121
g54
(dp4122
sg63
g4103
sg56
(lp4123
g49
(g70
g51
NtRp4124
(dp4125
g54
(dp4126
sg63
g4120
sg56
(lp4127
g49
(g50
g51
NtRp4128
(dp4129
g54
(dp4130
g62
I1
ssg63
g4124
sg56
(lp4131
I00
asbasbasbag49
(g65
g51
NtRp4132
(dp4133
g54
(dp4134
sg63
g4103
sg56
(lp4135
g49
(g70
g51
NtRp4136
(dp4137
g54
(dp4138
sg63
g4132
sg56
(lp4139
g49
(g50
g51
NtRp4140
(dp4141
g54
(dp4142
g62
I1
ssg63
g4136
sg56
(lp4143
S'http://www.web2py.com/book'
p4144
asbasbasbag49
(g65
g51
NtRp4145
(dp4146
g54
(dp4147
sg63
g4103
sg56
(lp4148
g49
(g70
g51
NtRp4149
(dp4150
g54
(dp4151
sg63
g4145
sg56
(lp4152
g49
(g50
g51
NtRp4153
(dp4154
g54
(dp4155
g62
I1
ssg63
g4149
sg56
(lp4156
(lp4157
(g3735
(S't\x07\x00\x00\x00Preface'
tRp4158
I00
S'http://www.web2py.com/book/default/chapter/00'
p4159
tp4160
a(g3735
(S't\x0c\x00\x00\x00Introduction'
tRp4161
I00
S'http://www.web2py.com/book/default/chapter/01'
p4162
tp4163
a(g3735
(S't\x06\x00\x00\x00Python'
tRp4164
I00
S'http://www.web2py.com/book/default/chapter/02'
p4165
tp4166
a(g3735
(S't\x08\x00\x00\x00Overview'
tRp4167
I00
S'http://www.web2py.com/book/default/chapter/03'
p4168
tp4169
a(g3735
(S's\x08\x00\x00\x00The Core'
tRp4170
I00
S'http://www.web2py.com/book/default/chapter/04'
p4171
tp4172
a(g3735
(S's\t\x00\x00\x00The Views'
tRp4173
I00
S'http://www.web2py.com/book/default/chapter/05'
p4174
tp4175
a(g3735
(S's\t\x00\x00\x00\xe8\xb3\x87\xe6\x96\x99\xe5\xba\xab'
tRp4176
I00
S'http://www.web2py.com/book/default/chapter/06'
p4177
tp4178
a(g3735
(S's\x14\x00\x00\x00Forms and Validators'
tRp4179
I00
S'http://www.web2py.com/book/default/chapter/07'
p4180
tp4181
a(g3735
(S's\r\x00\x00\x00Email and SMS'
tRp4182
I00
S'http://www.web2py.com/book/default/chapter/08'
p4183
tp4184
a(g3735
(S's\x0e\x00\x00\x00Access Control'
tRp4185
I00
S'http://www.web2py.com/book/default/chapter/09'
p4186
tp4187
a(g3735
(S't\x08\x00\x00\x00Services'
tRp4188
I00
S'http://www.web2py.com/book/default/chapter/10'
p4189
tp4190
a(g3735
(S's\x0c\x00\x00\x00Ajax Recipes'
tRp4191
I00
S'http://www.web2py.com/book/default/chapter/11'
p4192
tp4193
a(g3735
(S's\x16\x00\x00\x00Components and Plugins'
tRp4194
I00
S'http://www.web2py.com/book/default/chapter/12'
p4195
tp4196
a(g3735
(S's\x12\x00\x00\x00Deployment Recipes'
tRp4197
I00
S'http://www.web2py.com/book/default/chapter/13'
p4198
tp4199
a(g3735
(S's\r\x00\x00\x00Other Recipes'
tRp4200
I00
S'http://www.web2py.com/book/default/chapter/14'
p4201
tp4202
a(g3735
(S's\r\x00\x00\x00Buy this book'
tRp4203
I00
S'http://stores.lulu.com/web2py'
p4204
tp4205
aasbasbasbasbasbasbasbag49
(g65
g51
NtRp4206
(dp4207
g54
(dp4208
sg63
g3848
sg56
(lp4209
g49
(g70
g51
NtRp4210
(dp4211
g54
(dp4212
sg63
g4206
sg56
(lp4213
g49
(g50
g51
NtRp4214
(dp4215
g54
(dp4216
g62
I2
ssg63
g4210
sg56
(lp4217
g49
(g58
g51
NtRp4218
(dp4219
g54
(dp4220
g62
I1
ssg63
Nsg56
(lp4221
g49
(g65
g51
NtRp4222
(dp4223
g54
(dp4224
sg63
g4218
sg56
(lp4225
g49
(g70
g51
NtRp4226
(dp4227
g54
(dp4228
sg63
g4222
sg56
(lp4229
g49
(g50
g51
NtRp4230
(dp4231
g54
(dp4232
g62
I1
ssg63
g4226
sg56
(lp4233
g3735
(S't\t\x00\x00\x00Community'
tRp4234
asbasbasbag49
(g65
g51
NtRp4235
(dp4236
g54
(dp4237
sg63
g4218
sg56
(lp4238
g49
(g70
g51
NtRp4239
(dp4240
g54
(dp4241
sg63
g4235
sg56
(lp4242
g49
(g50
g51
NtRp4243
(dp4244
g54
(dp4245
g62
I1
ssg63
g4239
sg56
(lp4246
I00
asbasbasbag49
(g65
g51
NtRp4247
(dp4248
g54
(dp4249
sg63
g4218
sg56
(lp4250
g49
(g70
g51
NtRp4251
(dp4252
g54
(dp4253
sg63
g4247
sg56
(lp4254
g49
(g50
g51
NtRp4255
(dp4256
g54
(dp4257
g62
I1
ssg63
g4251
sg56
(lp4258
Nasbasbasbag49
(g65
g51
NtRp4259
(dp4260
g54
(dp4261
sg63
g4218
sg56
(lp4262
g49
(g70
g51
NtRp4263
(dp4264
g54
(dp4265
sg63
g4259
sg56
(lp4266
g49
(g50
g51
NtRp4267
(dp4268
g54
(dp4269
g62
I1
ssg63
g4263
sg56
(lp4270
(lp4271
(g3735
(S't\x06\x00\x00\x00Groups'
tRp4272
I00
S'http://www.web2py.com/examples/default/usergroups'
p4273
tp4274
a(g3735
(S't\x07\x00\x00\x00Twitter'
tRp4275
I00
S'http://twitter.com/web2py'
p4276
tp4277
a(g3735
(S's\t\x00\x00\x00Live Chat'
tRp4278
I00
S'http://webchat.freenode.net/?channels=web2py'
p4279
tp4280
aasbasbasbasbasbasbasbag49
(g65
g51
NtRp4281
(dp4282
g54
(dp4283
sg63
g3848
sg56
(lp4284
g49
(g70
g51
NtRp4285
(dp4286
g54
(dp4287
sg63
g4281
sg56
(lp4288
g49
(g50
g51
NtRp4289
(dp4290
g54
(dp4291
g62
I2
ssg63
g4285
sg56
(lp4292
g49
(g58
g51
NtRp4293
(dp4294
g54
(dp4295
g62
I1
ssg63
Nsg56
(lp4296
g49
(g65
g51
NtRp4297
(dp4298
g54
(dp4299
sg63
g4293
sg56
(lp4300
g49
(g70
g51
NtRp4301
(dp4302
g54
(dp4303
sg63
g4297
sg56
(lp4304
g49
(g50
g51
NtRp4305
(dp4306
g54
(dp4307
g62
I1
ssg63
g4301
sg56
(lp4308
g3735
(S't\x07\x00\x00\x00Plugins'
tRp4309
asbasbasbag49
(g65
g51
NtRp4310
(dp4311
g54
(dp4312
sg63
g4293
sg56
(lp4313
g49
(g70
g51
NtRp4314
(dp4315
g54
(dp4316
sg63
g4310
sg56
(lp4317
g49
(g50
g51
NtRp4318
(dp4319
g54
(dp4320
g62
I1
ssg63
g4314
sg56
(lp4321
I00
asbasbasbag49
(g65
g51
NtRp4322
(dp4323
g54
(dp4324
sg63
g4293
sg56
(lp4325
g49
(g70
g51
NtRp4326
(dp4327
g54
(dp4328
sg63
g4322
sg56
(lp4329
g49
(g50
g51
NtRp4330
(dp4331
g54
(dp4332
g62
I1
ssg63
g4326
sg56
(lp4333
Nasbasbasbag49
(g65
g51
NtRp4334
(dp4335
g54
(dp4336
sg63
g4293
sg56
(lp4337
g49
(g70
g51
NtRp4338
(dp4339
g54
(dp4340
sg63
g4334
sg56
(lp4341
g49
(g50
g51
NtRp4342
(dp4343
g54
(dp4344
g62
I1
ssg63
g4338
sg56
(lp4345
(lp4346
(S'plugin_wiki'
p4347
I00
S'http://web2py.com/examples/default/download'
p4348
tp4349
a(g3735
(S's\r\x00\x00\x00Other Plugins'
tRp4350
I00
g4080
tp4351
a(g3735
(S's\x0e\x00\x00\x00Layout Plugins'
tRp4352
I00
g4083
tp4353
aasbasbasbasbasbasbasbasbasbasbasbasbasbasbasbasbasbasbasbag49
(g65
g51
NtRp4354
(dp4355
g54
(dp4356
sg63
g3221
sg56
(lp4357
g49
(g70
g51
NtRp4358
(dp4359
g54
(dp4360
g74
g75
ssg63
g4354
sg56
(lp4361
S'meta'
p4362
asbag49
(g70
g51
NtRp4363
(dp4364
g54
(dp4365
g81
g82
ssg63
g4354
sg56
(lp4366
S':'
asbag49
(g70
g51
NtRp4367
(dp4368
g54
(dp4369
sg63
g4354
sg56
(lp4370
g49
(g50
g51
NtRp4371
(dp4372
g54
(dp4373
g62
I5
ssg63
g4367
sg56
(lp4374
g49
(g58
g51
NtRp4375
(dp4376
g54
(dp4377
g62
I4
ssg63
Nsg56
(lp4378
g49
(g65
g51
NtRp4379
(dp4380
g54
(dp4381
sg63
g4375
sg56
(lp4382
g49
(g70
g51
NtRp4383
(dp4384
g54
(dp4385
g74
g75
ssg63
g4379
sg56
(lp4386
S'author'
p4387
asbag49
(g70
g51
NtRp4388
(dp4389
g54
(dp4390
g81
g82
ssg63
g4379
sg56
(lp4391
S':'
asbag49
(g70
g51
NtRp4392
(dp4393
g54
(dp4394
sg63
g4379
sg56
(lp4395
g49
(g50
g51
NtRp4396
(dp4397
g54
(dp4398
g62
I4
ssg63
g4392
sg56
(lp4399
S'Your Name <you@example.com>'
p4400
asbasbasbag49
(g65
g51
NtRp4401
(dp4402
g54
(dp4403
sg63
g4375
sg56
(lp4404
g49
(g70
g51
NtRp4405
(dp4406
g54
(dp4407
g74
g75
ssg63
g4401
sg56
(lp4408
S'description'
p4409
asbag49
(g70
g51
NtRp4410
(dp4411
g54
(dp4412
g81
g82
ssg63
g4401
sg56
(lp4413
S':'
asbag49
(g70
g51
NtRp4414
(dp4415
g54
(dp4416
sg63
g4401
sg56
(lp4417
g49
(g50
g51
NtRp4418
(dp4419
g54
(dp4420
g62
I4
ssg63
g4414
sg56
(lp4421
S'a cool new app'
p4422
asbasbasbag49
(g65
g51
NtRp4423
(dp4424
g54
(dp4425
sg63
g4375
sg56
(lp4426
g49
(g70
g51
NtRp4427
(dp4428
g54
(dp4429
g74
g75
ssg63
g4423
sg56
(lp4430
S'generator'
p4431
asbag49
(g70
g51
NtRp4432
(dp4433
g54
(dp4434
g81
g82
ssg63
g4423
sg56
(lp4435
S':'
asbag49
(g70
g51
NtRp4436
(dp4437
g54
(dp4438
sg63
g4423
sg56
(lp4439
g49
(g50
g51
NtRp4440
(dp4441
g54
(dp4442
g62
I4
ssg63
g4436
sg56
(lp4443
S'Web2py Web Framework'
p4444
asbasbasbag49
(g65
g51
NtRp4445
(dp4446
g54
(dp4447
sg63
g4375
sg56
(lp4448
g49
(g70
g51
NtRp4449
(dp4450
g54
(dp4451
g74
g75
ssg63
g4445
sg56
(lp4452
S'keywords'
p4453
asbag49
(g70
g51
NtRp4454
(dp4455
g54
(dp4456
g81
g82
ssg63
g4445
sg56
(lp4457
S':'
asbag49
(g70
g51
NtRp4458
(dp4459
g54
(dp4460
sg63
g4445
sg56
(lp4461
g49
(g50
g51
NtRp4462
(dp4463
g54
(dp4464
g62
I4
ssg63
g4458
sg56
(lp4465
S'web2py, python, framework'
p4466
asbasbasbasbasbasbasbag49
(g65
g51
NtRp4467
(dp4468
g54
(dp4469
sg63
g3221
sg56
(lp4470
g49
(g70
g51
NtRp4471
(dp4472
g54
(dp4473
g74
g75
ssg63
g4467
sg56
(lp4474
S'models_to_run'
p4475
asbag49
(g70
g51
NtRp4476
(dp4477
g54
(dp4478
g81
g82
ssg63
g4467
sg56
(lp4479
S':'
asbag49
(g70
g51
NtRp4480
(dp4481
g54
(dp4482
sg63
g4467
sg56
(lp4483
g49
(g50
g51
NtRp4484
(dp4485
g54
(dp4486
g62
I5
ssg63
g4480
sg56
(lp4487
g49
(g58
g51
NtRp4488
(dp4489
g54
(dp4490
g62
I4
ssg63
Nsg56
(lp4491
g49
(g65
g51
NtRp4492
(dp4493
g54
(dp4494
sg63
g4488
sg56
(lp4495
g49
(g70
g51
NtRp4496
(dp4497
g54
(dp4498
sg63
g4492
sg56
(lp4499
g49
(g50
g51
NtRp4500
(dp4501
g54
(dp4502
g62
I4
ssg63
g4496
sg56
(lp4503
S'^\\w+\\.py$'
p4504
asbasbasbag49
(g65
g51
NtRp4505
(dp4506
g54
(dp4507
sg63
g4488
sg56
(lp4508
g49
(g70
g51
NtRp4509
(dp4510
g54
(dp4511
sg63
g4505
sg56
(lp4512
g49
(g50
g51
NtRp4513
(dp4514
g54
(dp4515
g62
I4
ssg63
g4509
sg56
(lp4516
S'^appadmin/\\w+\\.py$'
p4517
asbasbasbag49
(g65
g51
NtRp4518
(dp4519
g54
(dp4520
sg63
g4488
sg56
(lp4521
g49
(g70
g51
NtRp4522
(dp4523
g54
(dp4524
sg63
g4518
sg56
(lp4525
g49
(g50
g51
NtRp4526
(dp4527
g54
(dp4528
g62
I4
ssg63
g4522
sg56
(lp4529
S'^appadmin/index/\\w+\\.py$'
p4530
asbasbasbasbasbasbasbag49
(g65
g51
NtRp4531
(dp4532
g54
(dp4533
sg63
g3221
sg56
(lp4534
g49
(g70
g51
NtRp4535
(dp4536
g54
(dp4537
g74
g75
ssg63
g4531
sg56
(lp4538
S'postprocessing'
p4539
asbag49
(g70
g51
NtRp4540
(dp4541
g54
(dp4542
g81
g82
ssg63
g4531
sg56
(lp4543
S':'
asbag49
(g70
g51
NtRp4544
(dp4545
g54
(dp4546
sg63
g4531
sg56
(lp4547
g49
(g50
g51
NtRp4548
(dp4549
g54
(dp4550
g62
I5
ssg63
g4544
sg56
(lp4551
g49
(g58
g51
NtRp4552
(dp4553
g54
(dp4554
g62
I4
ssg63
Nsg56
(lp4555
sbasbasbasbag49
(g65
g51
NtRp4556
(dp4557
g54
(dp4558
sg63
g3221
sg56
(lp4559
g49
(g70
g51
NtRp4560
(dp4561
g54
(dp4562
g74
g75
ssg63
g4556
sg56
(lp4563
S'session_cookie_expires'
p4564
asbag49
(g70
g51
NtRp4565
(dp4566
g54
(dp4567
g81
g82
ssg63
g4556
sg56
(lp4568
S':'
asbag49
(g70
g51
NtRp4569
(dp4570
g54
(dp4571
sg63
g4556
sg56
(lp4572
g49
(g50
g51
NtRp4573
(dp4574
g54
(dp4575
g62
I5
ssg63
g4569
sg56
(lp4576
S'None'
p4577
asbasbasbag49
(g65
g51
NtRp4578
(dp4579
g54
(dp4580
sg63
g3221
sg56
(lp4581
g49
(g70
g51
NtRp4582
(dp4583
g54
(dp4584
g74
g75
ssg63
g4578
sg56
(lp4585
S'session_data_name'
p4586
asbag49
(g70
g51
NtRp4587
(dp4588
g54
(dp4589
g81
g82
ssg63
g4578
sg56
(lp4590
S':'
asbag49
(g70
g51
NtRp4591
(dp4592
g54
(dp4593
sg63
g4578
sg56
(lp4594
g49
(g50
g51
NtRp4595
(dp4596
g54
(dp4597
g62
I5
ssg63
g4591
sg56
(lp4598
S'session_data_mr'
p4599
asbasbasbag49
(g65
g51
NtRp4600
(dp4601
g54
(dp4602
sg63
g3221
sg56
(lp4603
g49
(g70
g51
NtRp4604
(dp4605
g54
(dp4606
g74
g75
ssg63
g4600
sg56
(lp4607
S'session_file'
p4608
asbag49
(g70
g51
NtRp4609
(dp4610
g54
(dp4611
g81
g82
ssg63
g4600
sg56
(lp4612
S':'
asbag49
(g70
g51
NtRp4613
(dp4614
g54
(dp4615
sg63
g4600
sg56
(lp4616
g49
(g50
g51
NtRp4617
(dp4618
g54
(dp4619
g62
I5
ssg63
g4613
sg56
(lp4620
S'None'
p4621
asbasbasbag49
(g65
g51
NtRp4622
(dp4623
g54
(dp4624
sg63
g3221
sg56
(lp4625
g49
(g70
g51
NtRp4626
(dp4627
g54
(dp4628
g74
g75
ssg63
g4622
sg56
(lp4629
S'session_filename'
p4630
asbag49
(g70
g51
NtRp4631
(dp4632
g54
(dp4633
g81
g82
ssg63
g4622
sg56
(lp4634
S':'
asbag49
(g70
g51
NtRp4635
(dp4636
g54
(dp4637
sg63
g4622
sg56
(lp4638
g49
(g50
g51
NtRp4639
(dp4640
g54
(dp4641
g62
I5
ssg63
g4635
sg56
(lp4642
S'/Applications/web2py.app/Contents/Resources/applications/MR/sessions/127.0.0.1-93356ae9-d6eb-42c1-bf89-8f42dc924ebb'
p4643
asbasbasbag49
(g65
g51
NtRp4644
(dp4645
g54
(dp4646
sg63
g3221
sg56
(lp4647
g49
(g70
g51
NtRp4648
(dp4649
g54
(dp4650
g74
g75
ssg63
g4644
sg56
(lp4651
S'session_id'
p4652
asbag49
(g70
g51
NtRp4653
(dp4654
g54
(dp4655
g81
g82
ssg63
g4644
sg56
(lp4656
S':'
asbag49
(g70
g51
NtRp4657
(dp4658
g54
(dp4659
sg63
g4644
sg56
(lp4660
g49
(g50
g51
NtRp4661
(dp4662
g54
(dp4663
g62
I5
ssg63
g4657
sg56
(lp4664
g446
asbasbasbag49
(g65
g51
NtRp4665
(dp4666
g54
(dp4667
sg63
g3221
sg56
(lp4668
g49
(g70
g51
NtRp4669
(dp4670
g54
(dp4671
g74
g75
ssg63
g4665
sg56
(lp4672
S'session_id_name'
p4673
asbag49
(g70
g51
NtRp4674
(dp4675
g54
(dp4676
g81
g82
ssg63
g4665
sg56
(lp4677
S':'
asbag49
(g70
g51
NtRp4678
(dp4679
g54
(dp4680
sg63
g4665
sg56
(lp4681
g49
(g50
g51
NtRp4682
(dp4683
g54
(dp4684
g62
I5
ssg63
g4678
sg56
(lp4685
g3278
asbasbasbag49
(g65
g51
NtRp4686
(dp4687
g54
(dp4688
sg63
g3221
sg56
(lp4689
g49
(g70
g51
NtRp4690
(dp4691
g54
(dp4692
g74
g75
ssg63
g4686
sg56
(lp4693
S'session_new'
p4694
asbag49
(g70
g51
NtRp4695
(dp4696
g54
(dp4697
g81
g82
ssg63
g4686
sg56
(lp4698
S':'
asbag49
(g70
g51
NtRp4699
(dp4700
g54
(dp4701
sg63
g4686
sg56
(lp4702
g49
(g50
g51
NtRp4703
(dp4704
g54
(dp4705
g62
I5
ssg63
g4699
sg56
(lp4706
g92
asbasbasbag49
(g65
g51
NtRp4707
(dp4708
g54
(dp4709
sg63
g3221
sg56
(lp4710
g49
(g70
g51
NtRp4711
(dp4712
g54
(dp4713
g74
g75
ssg63
g4707
sg56
(lp4714
S'session_storage_type'
p4715
asbag49
(g70
g51
NtRp4716
(dp4717
g54
(dp4718
g81
g82
ssg63
g4707
sg56
(lp4719
S':'
asbag49
(g70
g51
NtRp4720
(dp4721
g54
(dp4722
sg63
g4707
sg56
(lp4723
g49
(g50
g51
NtRp4724
(dp4725
g54
(dp4726
g62
I5
ssg63
g4720
sg56
(lp4727
g3174
asbasbasbag49
(g65
g51
NtRp4728
(dp4729
g54
(dp4730
sg63
g3221
sg56
(lp4731
g49
(g70
g51
NtRp4732
(dp4733
g54
(dp4734
g74
g75
ssg63
g4728
sg56
(lp4735
S'status'
p4736
asbag49
(g70
g51
NtRp4737
(dp4738
g54
(dp4739
g81
g82
ssg63
g4728
sg56
(lp4740
S':'
asbag49
(g70
g51
NtRp4741
(dp4742
g54
(dp4743
sg63
g4728
sg56
(lp4744
g49
(g50
g51
NtRp4745
(dp4746
g54
(dp4747
g62
I5
ssg63
g4741
sg56
(lp4748
S'200'
p4749
asbasbasbag49
(g65
g51
NtRp4750
(dp4751
g54
(dp4752
sg63
g3221
sg56
(lp4753
g49
(g70
g51
NtRp4754
(dp4755
g54
(dp4756
g74
g75
ssg63
g4750
sg56
(lp4757
S'subtitle'
p4758
asbag49
(g70
g51
NtRp4759
(dp4760
g54
(dp4761
g81
g82
ssg63
g4750
sg56
(lp4762
S':'
asbag49
(g70
g51
NtRp4763
(dp4764
g54
(dp4765
sg63
g4750
sg56
(lp4766
g49
(g50
g51
NtRp4767
(dp4768
g54
(dp4769
g62
I5
ssg63
g4763
sg56
(lp4770
g3735
(S's\r\x00\x00\x00\xe8\xab\x8b\xe8\xaa\xbf\xe6\x95\xb4\xe6\x88\x91!'
tRp4771
asbasbasbag49
(g65
g51
NtRp4772
(dp4773
g54
(dp4774
sg63
g3221
sg56
(lp4775
g49
(g70
g51
NtRp4776
(dp4777
g54
(dp4778
g74
g75
ssg63
g4772
sg56
(lp4779
S'title'
p4780
asbag49
(g70
g51
NtRp4781
(dp4782
g54
(dp4783
g81
g82
ssg63
g4772
sg56
(lp4784
S':'
asbag49
(g70
g51
NtRp4785
(dp4786
g54
(dp4787
sg63
g4772
sg56
(lp4788
g49
(g50
g51
NtRp4789
(dp4790
g54
(dp4791
g62
I5
ssg63
g4785
sg56
(lp4792
S'Mr'
p4793
asbasbasbag49
(g65
g51
NtRp4794
(dp4795
g54
(dp4796
sg63
g3221
sg56
(lp4797
g49
(g70
g51
NtRp4798
(dp4799
g54
(dp4800
g74
g75
ssg63
g4794
sg56
(lp4801
S'view'
p4802
asbag49
(g70
g51
NtRp4803
(dp4804
g54
(dp4805
g81
g82
ssg63
g4794
sg56
(lp4806
S':'
asbag49
(g70
g51
NtRp4807
(dp4808
g54
(dp4809
sg63
g4794
sg56
(lp4810
g49
(g50
g51
NtRp4811
(dp4812
g54
(dp4813
g62
I5
ssg63
g4807
sg56
(lp4814
S'appadmin/index.html'
p4815
asbasbasbasbasbsS'locals'
p4816
(dp4817
S'Service'
p4818
S"<class 'gluon.tools.Service'>"
p4819
sS'OBJECT'
p4820
S"<class 'gluon.html.OBJECT'>"
p4821
sS'SQLDB'
p4822
S"<class 'gluon.dal.DAL'>"
p4823
sg3203
S'<Storage {}>'
p4824
sS'LINK'
p4825
S"<class 'gluon.html.LINK'>"
p4826
sS'BR'
p4827
S"<class 'gluon.html.BR'>"
p4828
sS'local_import'
p4829
S'<function <lambda> at 0x8c6cf70>'
p4830
sS'OPTGROUP'
p4831
S"<class 'gluon.html.OPTGROUP'>"
p4832
sS'PRE'
p4833
S"<class 'gluon.html.PRE'>"
p4834
sS'IS_INT_IN_RANGE'
p4835
S"<class 'gluon.validators.IS_INT_IN_RANGE'>"
p4836
sS'IS_LOWER'
p4837
S"<class 'gluon.validators.IS_LOWER'>"
p4838
sS'IS_STRONG'
p4839
S"<class 'gluon.validators.IS_STRONG'>"
p4840
sS'cache'
p4841
S'<gluon.cache.Cache object at 0x7e0c6f0>'
p4842
sS'IS_IN_DB'
p4843
S"<class 'gluon.validators.IS_IN_DB'>"
p4844
sS'TAG'
p4845
S'<gluon.html.__TAG__ object at 0x41a3d90>'
p4846
sS'SQLField'
p4847
S"<class 'gluon.dal.Field'>"
p4848
sS'mail'
p4849
S'<gluon.tools.Mail object at 0x7e0ce90>'
p4850
sS'BODY'
p4851
S"<class 'gluon.html.BODY'>"
p4852
sS'IS_DATE_IN_RANGE'
p4853
S"<class 'gluon.validators.IS_DATE_IN_RANGE'>"
p4854
sS'TH'
p4855
S"<class 'gluon.html.TH'>"
p4856
sS'URL'
p4857
S'<function URL at 0x4190ef0>'
p4858
sS'__file__'
p4859
S"'/Applications/web2py.app/Contents/Resources/applications/MR/models/mobile_user.py'"
p4860
sS'db'
p4861
S'<DAL uri="sqlite://storage.sqlite">'
p4862
sS'auth'
p4863
S'<gluon.tools.Auth object at 0x7e0c7d0>'
p4864
sS'P'
S"<class 'gluon.html.P'>"
p4865
sS'TFOOT'
p4866
S"<class 'gluon.html.TFOOT'>"
p4867
sS'XHTML'
p4868
S"<class 'gluon.html.XHTML'>"
p4869
sS'ON'
p4870
g916
sS'OL'
p4871
S"<class 'gluon.html.OL'>"
p4872
sS'TEXTAREA'
p4873
S"<class 'gluon.html.TEXTAREA'>"
p4874
sS'MENU'
p4875
S"<class 'gluon.html.MENU'>"
p4876
sS'LOAD'
p4877
S'<function LOAD at 0x44594f0>'
p4878
sS'CODE'
p4879
S"<class 'gluon.html.CODE'>"
p4880
sS'HTTP'
p4881
S"<class 'gluon.http.HTTP'>"
p4882
sS'HR'
p4883
S"<class 'gluon.html.HR'>"
p4884
sS'IS_DATETIME'
p4885
S"<class 'gluon.validators.IS_DATETIME'>"
p4886
sS'HEAD'
p4887
S"<class 'gluon.html.HEAD'>"
p4888
sS'LABEL'
p4889
S"<class 'gluon.html.LABEL'>"
p4890
sS'CLEANUP'
p4891
S"<class 'gluon.validators.CLEANUP'>"
p4892
sS'plugins'
p4893
S'<gluon.tools.PluginManager object at 0x7ddf4d0>'
p4894
sS'SELECT'
p4895
S"<class 'gluon.html.SELECT'>"
p4896
sS'use_janrain'
p4897
S'<function use_janrain at 0x764de70>'
p4898
sS'CENTER'
p4899
S"<class 'gluon.html.CENTER'>"
p4900
sS'prettydate'
p4901
S'<function prettydate at 0x764d1f0>'
p4902
sS'Crud'
p4903
S"<class 'gluon.tools.Crud'>"
p4904
sS'Auth'
p4905
S"<class 'gluon.tools.Auth'>"
p4906
sS'DEVELOPMENT_MENU'
p4907
g916
sS'__builtins__'
p4908
S"{'ArithmeticError': <type 'exceptions.ArithmeticError'>, 'AssertionError': <type 'exceptions.AssertionError'>, 'AttributeError': <type 'exceptions.AttributeError'>, 'BaseException': <type 'exceptions.BaseException'>, 'DeprecationWarning': <type 'exceptions.DeprecationWarning'>, 'EOFError': <type 'exceptions.EOFError'>, 'Ellipsis': Ellipsis, 'EnvironmentError': <type 'exceptions.EnvironmentError'>, 'Exception': <type 'exceptions.Exception'>, 'False': False, ...}"
p4909
sS'HTML'
p4910
S"<class 'gluon.html.HTML'>"
p4911
sS'SQLFORM'
p4912
S"<class 'gluon.sqlhtml.SQLFORM'>"
p4913
sS'EM'
p4914
S"<class 'gluon.html.EM'>"
p4915
sS'redirect'
p4916
S'<function redirect at 0x3be94b0>'
p4917
sS'FIELDSET'
p4918
S"<class 'gluon.html.FIELDSET'>"
p4919
sS'IS_EQUAL_TO'
p4920
S"<class 'gluon.validators.IS_EQUAL_TO'>"
p4921
sS'embed64'
p4922
S'<function embed64 at 0x41a5b30>'
p4923
sS'IS_LIST_OF'
p4924
S"<class 'gluon.validators.IS_LIST_OF'>"
p4925
sS'__name__'
p4926
S"'__restricted__'"
p4927
sS'EMBED'
p4928
S"<class 'gluon.html.EMBED'>"
p4929
sS'_'
S'<function _ at 0x8c6c0b0>'
p4930
sS'FORM'
p4931
S"<class 'gluon.html.FORM'>"
p4932
sS'H2'
p4933
S"<class 'gluon.html.H2'>"
p4934
sS'H3'
p4935
S"<class 'gluon.html.H3'>"
p4936
sS'BUTTON'
p4937
S"<class 'gluon.html.BUTTON'>"
p4938
sS'H1'
p4939
S"<class 'gluon.html.H1'>"
p4940
sS'H6'
p4941
S"<class 'gluon.html.H6'>"
p4942
sS'H4'
p4943
S"<class 'gluon.html.H4'>"
p4944
sS'H5'
p4945
S"<class 'gluon.html.H5'>"
p4946
sS'UL'
p4947
S"<class 'gluon.html.UL'>"
p4948
sS'IS_UPPER'
p4949
S"<class 'gluon.validators.IS_UPPER'>"
p4950
sS'xmlescape'
p4951
S'<function xmlescape at 0x4190a70>'
p4952
sS'IS_TIME'
p4953
S"<class 'gluon.validators.IS_TIME'>"
p4954
sS'OPTION'
p4955
S"<class 'gluon.html.OPTION'>"
p4956
sS'TITLE'
p4957
S"<class 'gluon.html.TITLE'>"
p4958
sS'CRYPT'
p4959
S"<class 'gluon.validators.CRYPT'>"
p4960
sS'IS_EMPTY_OR'
p4961
S"<class 'gluon.validators.IS_EMPTY_OR'>"
p4962
sS'MARKMIN'
p4963
S"<class 'gluon.html.MARKMIN'>"
p4964
sS'INPUT'
p4965
S"<class 'gluon.html.INPUT'>"
p4966
sS'STRONG'
p4967
S"<class 'gluon.html.STRONG'>"
p4968
sS'COL'
p4969
S"<class 'gluon.html.COL'>"
p4970
sS'service'
p4971
S'<gluon.tools.Service object at 0x7ddfdb0>'
p4972
sS'SCRIPT'
p4973
S"<class 'gluon.html.SCRIPT'>"
p4974
sS'TABLE'
p4975
S"<class 'gluon.html.TABLE'>"
p4976
sS'IS_IPV4'
p4977
S"<class 'gluon.validators.IS_IPV4'>"
p4978
sS'IS_LENGTH'
p4979
S"<class 'gluon.validators.IS_LENGTH'>"
p4980
sS'XML'
p4981
S"<class 'gluon.html.XML'>"
p4982
sS'B'
S"<class 'gluon.html.B'>"
p4983
sS'IMG'
p4984
S"<class 'gluon.html.IMG'>"
p4985
sS'SQLTABLE'
p4986
S"<class 'gluon.sqlhtml.SQLTABLE'>"
p4987
sS'IS_MATCH'
p4988
S"<class 'gluon.validators.IS_MATCH'>"
p4989
sS'IS_ALPHANUMERIC'
p4990
S"<class 'gluon.validators.IS_ALPHANUMERIC'>"
p4991
sS'SPAN'
p4992
S"<class 'gluon.html.SPAN'>"
p4993
sS'IS_JSON'
p4994
S"<class 'gluon.validators.IS_JSON'>"
p4995
sS'IS_SLUG'
p4996
S"<class 'gluon.validators.IS_SLUG'>"
p4997
sS'BEAUTIFY'
p4998
S"<class 'gluon.html.BEAUTIFY'>"
p4999
sS'META'
p5000
S"<class 'gluon.html.META'>"
p5001
sS'IS_DATE'
p5002
S"<class 'gluon.validators.IS_DATE'>"
p5003
sS'IS_EMAIL'
p5004
S"<class 'gluon.validators.IS_EMAIL'>"
p5005
sS'IS_NOT_EMPTY'
p5006
S"<class 'gluon.validators.IS_NOT_EMPTY'>"
p5007
sS'IS_FLOAT_IN_RANGE'
p5008
S"<class 'gluon.validators.IS_FLOAT_IN_RANGE'>"
p5009
sS'TBODY'
p5010
S"<class 'gluon.html.TBODY'>"
p5011
sS'CAT'
p5012
S"<class 'gluon.html.CAT'>"
p5013
sS'Field'
p5014
S"<class 'gluon.dal.Field'>"
p5015
sS'DIV'
p5016
S"<class 'gluon.html.DIV'>"
p5017
sS'LEGEND'
p5018
S"<class 'gluon.html.LEGEND'>"
p5019
sS'COLGROUP'
p5020
S"<class 'gluon.html.COLGROUP'>"
p5021
sS'DAL'
p5022
S"<class 'gluon.dal.DAL'>"
p5023
sS'TT'
p5024
S"<class 'gluon.html.TT'>"
p5025
sS'TR'
p5026
S"<class 'gluon.html.TR'>"
p5027
sS'LI'
p5028
S"<class 'gluon.html.LI'>"
p5029
sS'IFRAME'
p5030
S"<class 'gluon.html.IFRAME'>"
p5031
sS'TD'
p5032
S"<class 'gluon.html.TD'>"
p5033
sS'PluginManager'
p5034
S"<class 'gluon.tools.PluginManager'>"
p5035
sS'IS_URL'
p5036
S"<class 'gluon.validators.IS_URL'>"
p5037
sS'A'
S"<class 'gluon.html.A'>"
p5038
sS'STYLE'
p5039
S"<class 'gluon.html.STYLE'>"
p5040
sS'IS_DATETIME_IN_RANGE'
p5041
S"<class 'gluon.validators.IS_DATETIME_IN_RANGE'>"
p5042
sS'IS_IMAGE'
p5043
S"<class 'gluon.validators.IS_IMAGE'>"
p5044
sS'I'
S"<class 'gluon.html.I'>"
p5045
sS'crud'
p5046
S'<gluon.tools.Crud object at 0x7e0c3b0>'
p5047
sS'IS_NOT_IN_DB'
p5048
S"<class 'gluon.validators.IS_NOT_IN_DB'>"
p5049
sg3216
S"<Storage {'body': <cStringIO.StringO object at 0...a> at 0x8ae25f0>, 'view': 'appadmin/index.html'}>"
p5050
sS'THEAD'
p5051
S"<class 'gluon.html.THEAD'>"
p5052
sS'IS_NULL_OR'
p5053
S"<class 'gluon.validators.IS_EMPTY_OR'>"
p5054
sg48
S"<Storage {'function': 'index', 'body': <cStringI...es/applications/MR/', 'post_vars': <Storage {}>}>"
p5055
sS'IS_EXPR'
p5056
S"<class 'gluon.validators.IS_EXPR'>"
p5057
sS'IS_IN_SET'
p5058
S"<class 'gluon.validators.IS_IN_SET'>"
p5059
sS'IS_UPLOAD_FILENAME'
p5060
S"<class 'gluon.validators.IS_UPLOAD_FILENAME'>"
p5061
sS'IS_DECIMAL_IN_RANGE'
p5062
S"<class 'gluon.validators.IS_DECIMAL_IN_RANGE'>"
p5063
sS'T'
S'<gluon.languages.translator object at 0x7e0ce50>'
p5064
sssS'traceback'
p5065
S'Traceback (most recent call last):\n  File "/home/mdipierro/web2py/gluon/restricted.py", line 212, in restricted\n  File "/Applications/web2py.app/Contents/Resources/applications/MR/models/mobile_user.py", line 14, in <module>\nNameError: name \'length\' is not defined\n'
p5066
s.